---
triple:          'arm64-apple-darwin'
binary-path:     '/Users/miyako/Documents/GitHub/onnx-genai/cpp/macOS/onnx-genai'
relocations:
  - { offset: 0x8C6A, size: 0x8, addend: 0x0, symName: __ZN5Eigen8internal28conditional_aligned_new_autoIfLb1EEEPT_m, symObjAddr: 0x494, symBinAddr: 0x100000E04, symSize: 0x6C }
  - { offset: 0xAC44, size: 0x8, addend: 0x0, symName: __ZN5Eigen8internal15call_assignmentINS_5BlockINS_6MatrixIfLin1ELin1ELi0ELin1ELin1EEELi1ELin1ELb0EEENS_7ProductINS_9TransposeINS3_IfLin1ELi1ELi0ELin1ELi1EEEEES4_Li0EEENS0_9assign_opIffEEEEvRT_RKT0_RKT1_NSt3__19enable_ifIXsr25evaluator_assume_aliasingISF_EE5valueEPvE4typeE, symObjAddr: 0x27BC, symBinAddr: 0x10000312C, symSize: 0x208 }
  - { offset: 0x9DC6D, size: 0x8, addend: 0x0, symName: __ZNSt3__124__put_character_sequenceB8ne200100IcNS_11char_traitsIcEEEERNS_13basic_ostreamIT_T0_EES7_PKS4_m, symObjAddr: 0x7E64, symBinAddr: 0x1000087D4, symSize: 0x16C }
  - { offset: 0xB8A6D, size: 0x8, addend: 0x0, symName: __ZNSt3__111__introsortINS_17_ClassicAlgPolicyERZN7httplib6detail19parse_accept_headerERKNS_12basic_stringIcNS_11char_traitsIcEENS_9allocatorIcEEEERNS_6vectorIS9_NS7_IS9_EEEEEUlRKZNS3_19parse_accept_headerESB_SF_E11AcceptEntrySI_E_PSG_Lb0EEEvT1_SM_T0_NS_15iterator_traitsISM_E15difference_typeEb, symObjAddr: 0x1C26C, symBinAddr: 0x10001C8B8, symSize: 0x570 }
  - { offset: 0xB9335, size: 0x8, addend: 0x0, symName: __ZNSt3__126__insertion_sort_unguardedB8ne200100INS_17_ClassicAlgPolicyERZN7httplib6detail19parse_accept_headerERKNS_12basic_stringIcNS_11char_traitsIcEENS_9allocatorIcEEEERNS_6vectorIS9_NS7_IS9_EEEEEUlRKZNS3_19parse_accept_headerESB_SF_E11AcceptEntrySI_E_PSG_EEvT1_SM_T0_, symObjAddr: 0x1D434, symBinAddr: 0x10001DA80, symSize: 0x198 }
  - { offset: 0xB96AB, size: 0x8, addend: 0x0, symName: __ZNSt3__111__sift_downB8ne200100INS_17_ClassicAlgPolicyERZN7httplib6detail19parse_accept_headerERKNS_12basic_stringIcNS_11char_traitsIcEENS_9allocatorIcEEEERNS_6vectorIS9_NS7_IS9_EEEEEUlRKZNS3_19parse_accept_headerESB_SF_E11AcceptEntrySI_E_PSG_EEvT1_OT0_NS_15iterator_traitsISM_E15difference_typeESM_, symObjAddr: 0x1DE98, symBinAddr: 0x10001E4E4, symSize: 0x240 }
  - { offset: 0xB9AF6, size: 0x8, addend: 0x0, symName: __ZNSt3__131__partition_with_equals_on_leftB8ne200100INS_17_ClassicAlgPolicyEPZN7httplib6detail19parse_accept_headerERKNS_12basic_stringIcNS_11char_traitsIcEENS_9allocatorIcEEEERNS_6vectorIS9_NS7_IS9_EEEEE11AcceptEntryRZNS3_19parse_accept_headerESB_SF_EUlRKSG_SJ_E_EET0_SM_SM_T1_, symObjAddr: 0x1D5CC, symBinAddr: 0x10001DC18, symSize: 0x2C0 }
  - { offset: 0xBA1EF, size: 0x8, addend: 0x0, symName: __ZNSt3__132__partition_with_equals_on_rightB8ne200100INS_17_ClassicAlgPolicyEPZN7httplib6detail19parse_accept_headerERKNS_12basic_stringIcNS_11char_traitsIcEENS_9allocatorIcEEEERNS_6vectorIS9_NS7_IS9_EEEEE11AcceptEntryRZNS3_19parse_accept_headerESB_SF_EUlRKSG_SJ_E_EENS_4pairIT0_bEESN_SN_T1_, symObjAddr: 0x1D88C, symBinAddr: 0x10001DED8, symSize: 0x2C0 }
  - { offset: 0xBA8DE, size: 0x8, addend: 0x0, symName: __ZNSt3__127__insertion_sort_incompleteB8ne200100INS_17_ClassicAlgPolicyERZN7httplib6detail19parse_accept_headerERKNS_12basic_stringIcNS_11char_traitsIcEENS_9allocatorIcEEEERNS_6vectorIS9_NS7_IS9_EEEEEUlRKZNS3_19parse_accept_headerESB_SF_E11AcceptEntrySI_E_PSG_EEbT1_SM_T0_, symObjAddr: 0x1DB4C, symBinAddr: 0x10001E198, symSize: 0x34C }
  - { offset: 0xBB25A, size: 0x8, addend: 0x0, symName: __ZNSt3__1rsB8ne200100IcNS_11char_traitsIcEEEERNS_13basic_istreamIT_T0_EES7_RKNS_8__iom_t9IS4_EE, symObjAddr: 0x21950, symBinAddr: 0x100021F2C, symSize: 0x138 }
  - { offset: 0xBEB63, size: 0x8, addend: 0x0, symName: __ZNSt3__111__introsortINS_17_ClassicAlgPolicyERZN7httplib6detail15coalesce_rangesERNS_6vectorINS_4pairIllEENS_9allocatorIS6_EEEEmEUlRKS6_SC_E_PS6_Lb0EEEvT1_SG_T0_NS_15iterator_traitsISG_E15difference_typeEb, symObjAddr: 0x38324, symBinAddr: 0x1000381FC, symSize: 0x9B8 }
  - { offset: 0xC1C98, size: 0x8, addend: 0x0, symName: __ZNSt3__127__insertion_sort_incompleteB8ne200100INS_17_ClassicAlgPolicyERZN7httplib6detail15coalesce_rangesERNS_6vectorINS_4pairIllEENS_9allocatorIS6_EEEEmEUlRKS6_SC_E_PS6_EEbT1_SG_T0_, symObjAddr: 0x38EAC, symBinAddr: 0x100038D84, symSize: 0x3A8 }
  - { offset: 0xCA1CA, size: 0x8, addend: 0x0, symName: __ZNSt3__14endlB8ne200100IcNS_11char_traitsIcEEEERNS_13basic_ostreamIT_T0_EES7_, symObjAddr: 0x59C0, symBinAddr: 0x100006330, symSize: 0x90 }
  - { offset: 0xCAB2F, size: 0x8, addend: 0x0, symName: __ZNSt3__120__throw_length_errorB8ne200100EPKc, symObjAddr: 0x7C0C, symBinAddr: 0x10000857C, symSize: 0x50 }
  - { offset: 0xCAB6E, size: 0x8, addend: 0x0, symName: __ZNSt3__116__pad_and_outputB8ne200100IcNS_11char_traitsIcEEEENS_19ostreambuf_iteratorIT_T0_EES6_PKS4_S8_S8_RNS_8ios_baseES4_, symObjAddr: 0x7FD0, symBinAddr: 0x100008940, symSize: 0x19C }
  - { offset: 0xCBAAB, size: 0x8, addend: 0x0, symName: __ZNSt3__112__destroy_atB8ne200100IN7httplib6Server15MountPointEntryELi0EEEvPT_, symObjAddr: 0xB398, symBinAddr: 0x10000BB94, symSize: 0xB4 }
  - { offset: 0xCD31A, size: 0x8, addend: 0x0, symName: __ZNSt3__114__thread_proxyB8ne200100INS_5tupleIJNS_10unique_ptrINS_15__thread_structENS_14default_deleteIS3_EEEEN7httplib10ThreadPool6workerEEEEEEPvSB_, symObjAddr: 0xA84C, symBinAddr: 0x10000B0CC, symSize: 0x78 }
  - { offset: 0xCD704, size: 0x8, addend: 0x0, symName: __ZNSt3__125__throw_bad_function_callB8ne200100Ev, symObjAddr: 0xAD74, symBinAddr: 0x10000B5F4, symSize: 0x34 }
  - { offset: 0xCE354, size: 0x8, addend: 0x0, symName: __ZNSt3__1eqB8ne200100IcNS_11char_traitsIcEENS_9allocatorIcEEEEbRKNS_12basic_stringIT_T0_T1_EEPKS6_, symObjAddr: 0xDF50, symBinAddr: 0x10000E738, symSize: 0x88 }
  - { offset: 0xCE4F3, size: 0x8, addend: 0x0, symName: __ZNSt3__111make_sharedB8ne200100IN7httplib6detail4mmapEJPKcELi0EEENS_10shared_ptrIT_EEDpOT0_, symObjAddr: 0xFFBC, symBinAddr: 0x1000107A4, symSize: 0x80 }
  - { offset: 0xD18EA, size: 0x8, addend: 0x0, symName: __ZNSt3__120__throw_out_of_rangeB8ne200100EPKc, symObjAddr: 0x14EF0, symBinAddr: 0x10001567C, symSize: 0x50 }
  - { offset: 0xD2040, size: 0x8, addend: 0x0, symName: __ZNSt3__1plB8ne200100IcNS_11char_traitsIcEENS_9allocatorIcEEEENS_12basic_stringIT_T0_T1_EEOS9_PKS6_, symObjAddr: 0x15830, symBinAddr: 0x100015FA8, symSize: 0x5C }
  - { offset: 0xD4FA3, size: 0x8, addend: 0x0, symName: __ZNSt3__127__tree_balance_after_insertB8ne200100IPNS_16__tree_node_baseIPvEEEEvT_S5_, symObjAddr: 0x19E58, symBinAddr: 0x10001A5D0, symSize: 0x1AC }
  - { offset: 0xD674A, size: 0x8, addend: 0x0, symName: __ZNSt3__17__sort3B8ne200100INS_17_ClassicAlgPolicyERZN7httplib6detail19parse_accept_headerERKNS_12basic_stringIcNS_11char_traitsIcEENS_9allocatorIcEEEERNS_6vectorIS9_NS7_IS9_EEEEEUlRKZNS3_19parse_accept_headerESB_SF_E11AcceptEntrySI_E_PSG_Li0EEEbT1_SM_SM_T0_, symObjAddr: 0x1C7DC, symBinAddr: 0x10001CE28, symSize: 0x434 }
  - { offset: 0xD7650, size: 0x8, addend: 0x0, symName: __ZNSt3__17__sort5B8ne200100INS_17_ClassicAlgPolicyERZN7httplib6detail19parse_accept_headerERKNS_12basic_stringIcNS_11char_traitsIcEENS_9allocatorIcEEEERNS_6vectorIS9_NS7_IS9_EEEEEUlRKZNS3_19parse_accept_headerESB_SF_E11AcceptEntrySI_E_PSG_Li0EEEvT1_SM_SM_SM_SM_T0_, symObjAddr: 0x1CEE0, symBinAddr: 0x10001D52C, symSize: 0x39C }
  - { offset: 0xD8242, size: 0x8, addend: 0x0, symName: __ZNSt3__17__sort4B8ne200100INS_17_ClassicAlgPolicyERZN7httplib6detail19parse_accept_headerERKNS_12basic_stringIcNS_11char_traitsIcEENS_9allocatorIcEEEERNS_6vectorIS9_NS7_IS9_EEEEEUlRKZNS3_19parse_accept_headerESB_SF_E11AcceptEntrySI_E_PSG_Li0EEEvT1_SM_SM_SM_T0_, symObjAddr: 0x1CC10, symBinAddr: 0x10001D25C, symSize: 0x2D0 }
  - { offset: 0xD8B55, size: 0x8, addend: 0x0, symName: __ZNSt3__116__insertion_sortB8ne200100INS_17_ClassicAlgPolicyERZN7httplib6detail19parse_accept_headerERKNS_12basic_stringIcNS_11char_traitsIcEENS_9allocatorIcEEEERNS_6vectorIS9_NS7_IS9_EEEEEUlRKZNS3_19parse_accept_headerESB_SF_E11AcceptEntrySI_E_PSG_EEvT1_SM_T0_, symObjAddr: 0x1D27C, symBinAddr: 0x10001D8C8, symSize: 0x1B8 }
  - { offset: 0xD8ED8, size: 0x8, addend: 0x0, symName: __ZNSt3__110__pop_heapB8ne200100INS_17_ClassicAlgPolicyEZN7httplib6detail19parse_accept_headerERKNS_12basic_stringIcNS_11char_traitsIcEENS_9allocatorIcEEEERNS_6vectorIS9_NS7_IS9_EEEEEUlRKZNS3_19parse_accept_headerESB_SF_E11AcceptEntrySI_E_PSG_EEvT1_SL_RT0_NS_15iterator_traitsISL_E15difference_typeE, symObjAddr: 0x1E0D8, symBinAddr: 0x10001E724, symSize: 0x27C }
  - { offset: 0xD9610, size: 0x8, addend: 0x0, symName: __ZNSt3__19__sift_upB8ne200100INS_17_ClassicAlgPolicyERZN7httplib6detail19parse_accept_headerERKNS_12basic_stringIcNS_11char_traitsIcEENS_9allocatorIcEEEERNS_6vectorIS9_NS7_IS9_EEEEEUlRKZNS3_19parse_accept_headerESB_SF_E11AcceptEntrySI_E_PSG_EEvT1_SM_OT0_NS_15iterator_traitsISM_E15difference_typeE, symObjAddr: 0x1E354, symBinAddr: 0x10001E9A0, symSize: 0x170 }
  - { offset: 0xDCDD9, size: 0x8, addend: 0x0, symName: __ZNSt3__119__throw_regex_errorB8ne200100ILNS_15regex_constants10error_typeE17EEEvv, symObjAddr: 0x2702C, symBinAddr: 0x1000275AC, symSize: 0x4C }
  - { offset: 0xDD646, size: 0x8, addend: 0x0, symName: __ZNSt3__119__throw_regex_errorB8ne200100ILNS_15regex_constants10error_typeE14EEEvv, symObjAddr: 0x27838, symBinAddr: 0x100027DB8, symSize: 0x4C }
  - { offset: 0xDD83F, size: 0x8, addend: 0x0, symName: __ZNSt3__119__throw_regex_errorB8ne200100ILNS_15regex_constants10error_typeE15EEEvv, symObjAddr: 0x2F074, symBinAddr: 0x10002F590, symSize: 0x4C }
  - { offset: 0xDDA23, size: 0x8, addend: 0x0, symName: __ZNSt3__119__throw_regex_errorB8ne200100ILNS_15regex_constants10error_typeE6EEEvv, symObjAddr: 0x286A0, symBinAddr: 0x100028C20, symSize: 0x4C }
  - { offset: 0xDDBD2, size: 0x8, addend: 0x0, symName: __ZNSt3__119__throw_regex_errorB8ne200100ILNS_15regex_constants10error_typeE11EEEvv, symObjAddr: 0x29F7C, symBinAddr: 0x10002A4C0, symSize: 0x4C }
  - { offset: 0xDDC16, size: 0x8, addend: 0x0, symName: __ZNSt3__119__throw_regex_errorB8ne200100ILNS_15regex_constants10error_typeE8EEEvv, symObjAddr: 0x2EA34, symBinAddr: 0x10002EF50, symSize: 0x4C }
  - { offset: 0xDDC3C, size: 0x8, addend: 0x0, symName: __ZNSt3__119__throw_regex_errorB8ne200100ILNS_15regex_constants10error_typeE7EEEvv, symObjAddr: 0x2EA80, symBinAddr: 0x10002EF9C, symSize: 0x4C }
  - { offset: 0xDDF1A, size: 0x8, addend: 0x0, symName: __ZNSt3__119__throw_regex_errorB8ne200100ILNS_15regex_constants10error_typeE12EEEvv, symObjAddr: 0x29410, symBinAddr: 0x10002997C, symSize: 0x4C }
  - { offset: 0xDDF40, size: 0x8, addend: 0x0, symName: __ZNSt3__119__throw_regex_errorB8ne200100ILNS_15regex_constants10error_typeE16EEEvv, symObjAddr: 0x2945C, symBinAddr: 0x1000299C8, symSize: 0x4C }
  - { offset: 0xDEB6C, size: 0x8, addend: 0x0, symName: __ZNSt3__119__throw_regex_errorB8ne200100ILNS_15regex_constants10error_typeE4EEEvv, symObjAddr: 0x2A9B0, symBinAddr: 0x10002AEF4, symSize: 0x4C }
  - { offset: 0xDEB92, size: 0x8, addend: 0x0, symName: __ZNSt3__119__throw_regex_errorB8ne200100ILNS_15regex_constants10error_typeE3EEEvv, symObjAddr: 0x2A0D4, symBinAddr: 0x10002A618, symSize: 0x4C }
  - { offset: 0xDEBB8, size: 0x8, addend: 0x0, symName: __ZNSt3__119__throw_regex_errorB8ne200100ILNS_15regex_constants10error_typeE5EEEvv, symObjAddr: 0x2C550, symBinAddr: 0x10002CA94, symSize: 0x4C }
  - { offset: 0xDF621, size: 0x8, addend: 0x0, symName: __ZNSt3__119__throw_regex_errorB8ne200100ILNS_15regex_constants10error_typeE1EEEvv, symObjAddr: 0x2DB80, symBinAddr: 0x10002E0C4, symSize: 0x4C }
  - { offset: 0xDF647, size: 0x8, addend: 0x0, symName: __ZNSt3__119__throw_regex_errorB8ne200100ILNS_15regex_constants10error_typeE2EEEvv, symObjAddr: 0x2E138, symBinAddr: 0x10002E67C, symSize: 0x4C }
  - { offset: 0xDF6A9, size: 0x8, addend: 0x0, symName: __ZNSt3__119__throw_regex_errorB8ne200100ILNS_15regex_constants10error_typeE9EEEvv, symObjAddr: 0x2E6FC, symBinAddr: 0x10002EC40, symSize: 0x4C }
  - { offset: 0xE2BAD, size: 0x8, addend: 0x0, symName: __ZNSt3__18__invokeB8ne200100IRZN7httplib6Server7routingERNS1_7RequestERNS1_8ResponseERNS1_6StreamEEUlNS_8functionIFbRKNS1_8FormDataEEEENS9_IFbPKcmEEEE_JSE_SI_EEEDTclclsr3stdE7declvalIT_EEspclsr3stdE7declvalIT0_EEEEOSL_DpOSM_, symObjAddr: 0x36728, symBinAddr: 0x100036718, symSize: 0x1C0 }
  - { offset: 0xE3E58, size: 0x8, addend: 0x0, symName: __ZNSt3__17__sort5B8ne200100INS_17_ClassicAlgPolicyERZN7httplib6detail15coalesce_rangesERNS_6vectorINS_4pairIllEENS_9allocatorIS6_EEEEmEUlRKS6_SC_E_PS6_Li0EEEvT1_SG_SG_SG_SG_T0_, symObjAddr: 0x38CDC, symBinAddr: 0x100038BB4, symSize: 0x1D0 }
  - { offset: 0xE3EC9, size: 0x8, addend: 0x0, symName: __ZNSt3__17__sort5B8ne200100INS_17_ClassicAlgPolicyERZN7httplib6detail15coalesce_rangesERNS_6vectorINS_4pairIllEENS_9allocatorIS6_EEEEmEUlRKS6_SC_E_PS6_Li0EEEvT1_SG_SG_SG_SG_T0_, symObjAddr: 0x38CDC, symBinAddr: 0x100038BB4, symSize: 0x1D0 }
  - { offset: 0xE3F00, size: 0x8, addend: 0x0, symName: __ZNSt3__17__sort5B8ne200100INS_17_ClassicAlgPolicyERZN7httplib6detail15coalesce_rangesERNS_6vectorINS_4pairIllEENS_9allocatorIS6_EEEEmEUlRKS6_SC_E_PS6_Li0EEEvT1_SG_SG_SG_SG_T0_, symObjAddr: 0x38CDC, symBinAddr: 0x100038BB4, symSize: 0x1D0 }
  - { offset: 0xE3F30, size: 0x8, addend: 0x0, symName: __ZNSt3__17__sort5B8ne200100INS_17_ClassicAlgPolicyERZN7httplib6detail15coalesce_rangesERNS_6vectorINS_4pairIllEENS_9allocatorIS6_EEEEmEUlRKS6_SC_E_PS6_Li0EEEvT1_SG_SG_SG_SG_T0_, symObjAddr: 0x38CDC, symBinAddr: 0x100038BB4, symSize: 0x1D0 }
  - { offset: 0xE4B5D, size: 0x8, addend: 0x0, symName: __ZNSt3__119__partial_sort_implB8ne200100INS_17_ClassicAlgPolicyERZN7httplib6detail15coalesce_rangesERNS_6vectorINS_4pairIllEENS_9allocatorIS6_EEEEmEUlRKS6_SC_E_PS6_SF_EET1_SG_SG_T2_OT0_, symObjAddr: 0x39254, symBinAddr: 0x10003912C, symSize: 0x3BC }
  - { offset: 0xF1EA2, size: 0x8, addend: 0x0, symName: __ZSt28__throw_bad_array_new_lengthB8ne200100v, symObjAddr: 0x7C80, symBinAddr: 0x1000085F0, symSize: 0x28 }
  - { offset: 0xF2291, size: 0x8, addend: 0x0, symName: __ZN7httplib6detail14parse_trailersERNS0_18stream_line_readerERNSt3__118unordered_multimapINS3_12basic_stringIcNS3_11char_traitsIcEENS3_9allocatorIcEEEESA_NS0_11case_ignore4hashENSB_8equal_toENS8_INS3_4pairIKSA_SA_EEEEEERKSI_, symObjAddr: 0x34568, symBinAddr: 0x10003476C, symSize: 0xB28 }
  - { offset: 0xF22BD, size: 0x8, addend: 0x0, symName: __ZZN7httplib6detail14parse_trailersERNS0_18stream_line_readerERNSt3__118unordered_multimapINS3_12basic_stringIcNS3_11char_traitsIcEENS3_9allocatorIcEEEESA_NS0_11case_ignore4hashENSB_8equal_toENS8_INS3_4pairIKSA_SA_EEEEEERKSI_E19prohibited_trailers, symObjAddr: 0x52FD8, symBinAddr: 0x1000D2ED0, symSize: 0x0 }
  - { offset: 0xF3603, size: 0x8, addend: 0x0, symName: __ZN7httplib6detail14file_extensionERKNSt3__112basic_stringIcNS1_11char_traitsIcEENS1_9allocatorIcEEEE, symObjAddr: 0x37A80, symBinAddr: 0x100037A70, symSize: 0x274 }
  - { offset: 0xF362F, size: 0x8, addend: 0x0, symName: __ZZN7httplib6detail14file_extensionERKNSt3__112basic_stringIcNS1_11char_traitsIcEENS1_9allocatorIcEEEEE2re, symObjAddr: 0x53008, symBinAddr: 0x1000D2F00, symSize: 0x0 }
  - { offset: 0xF42DE, size: 0x8, addend: 0x0, symName: __ZN7httplib6detail27write_content_with_progressIZNS_6Server27write_content_with_providerERNS_6StreamERKNS_7RequestERNS_8ResponseERKNSt3__112basic_stringIcNSA_11char_traitsIcEENSA_9allocatorIcEEEESI_EUlvE_EEbS4_RKNSA_8functionIFbmmRNS_8DataSinkEEEEmmT_RKNSK_IFbmmEEERNS_5ErrorE, symObjAddr: 0x16638, symBinAddr: 0x100016DB0, symSize: 0x314 }
  - { offset: 0xF4D76, size: 0x8, addend: 0x0, symName: __ZN7httplib6detail21write_content_chunkedIZNS_6Server27write_content_with_providerERNS_6StreamERKNS_7RequestERNS_8ResponseERKNSt3__112basic_stringIcNSA_11char_traitsIcEENSA_9allocatorIcEEEESI_EUlvE_NS0_10compressorEEEbS4_RKNSA_8functionIFbmmRNS_8DataSinkEEEERKT_RT0_RNS_5ErrorE, symObjAddr: 0x17864, symBinAddr: 0x100017FDC, symSize: 0x3A4 }
  - { offset: 0xF5B42, size: 0x8, addend: 0x0, symName: __ZN7httplib6detail28write_content_without_lengthIZNS_6Server27write_content_with_providerERNS_6StreamERKNS_7RequestERNS_8ResponseERKNSt3__112basic_stringIcNSA_11char_traitsIcEENSA_9allocatorIcEEEESI_EUlvE_EEbS4_RKNSA_8functionIFbmmRNS_8DataSinkEEEERKT_, symObjAddr: 0x1631C, symBinAddr: 0x100016A94, symSize: 0x31C }
  - { offset: 0xF666C, size: 0x8, addend: 0x0, symName: __ZN7httplib6detail16parse_query_textEPKcmRNSt3__18multimapINS3_12basic_stringIcNS3_11char_traitsIcEENS3_9allocatorIcEEEESA_NS3_4lessISA_EENS8_INS3_4pairIKSA_SA_EEEEEE, symObjAddr: 0x1A37C, symBinAddr: 0x10001AAF4, symSize: 0x150 }
  - { offset: 0xF6DC6, size: 0x8, addend: 0x0, symName: __ZN7httplib6detail19parse_accept_headerERKNSt3__112basic_stringIcNS1_11char_traitsIcEENS1_9allocatorIcEEEERNS1_6vectorIS7_NS5_IS7_EEEE, symObjAddr: 0xE50C, symBinAddr: 0x10000ECF4, symSize: 0x384 }
  - { offset: 0xF7CD5, size: 0x8, addend: 0x0, symName: __ZN7httplib6detail18parse_range_headerERKNSt3__112basic_stringIcNS1_11char_traitsIcEENS1_9allocatorIcEEEERNS1_6vectorINS1_4pairIllEENS5_ISC_EEEE, symObjAddr: 0xE890, symBinAddr: 0x10000F078, symSize: 0x1C4 }
  - { offset: 0xF8350, size: 0x8, addend: 0x0, symName: __ZN7httplib6detail24parse_disposition_paramsERKNSt3__112basic_stringIcNS1_11char_traitsIcEENS1_9allocatorIcEEEERNS1_8multimapIS7_S7_NS1_4lessIS7_EENS5_INS1_4pairIS8_S7_EEEEEE, symObjAddr: 0x26A60, symBinAddr: 0x10002703C, symSize: 0x168 }
  - { offset: 0xF8AD5, size: 0x8, addend: 0x0, symName: __ZN7httplib6detail24prepare_content_receiverINS_7RequestEZNS0_12read_contentIS2_EEbRNS_6StreamERT_mRiNSt3__18functionIFbmmEEENSA_IFbPKcmmmEEEbEUlRKSG_E_EEbS7_S8_SG_bT0_, symObjAddr: 0x332DC, symBinAddr: 0x1000334E0, symSize: 0x36C }
  - { offset: 0xF9C43, size: 0x8, addend: 0x0, symName: __ZN7httplib6detail13create_socketIZNKS_6Server20create_server_socketERKNSt3__112basic_stringIcNS3_11char_traitsIcEENS3_9allocatorIcEEEEiiNS3_8functionIFviEEEEUliR8addrinfoRbE_EEiSB_SB_iiibbSE_T_l, symObjAddr: 0x44794, symBinAddr: 0x100044358, symSize: 0x444 }
  - { offset: 0xFAC31, size: 0x8, addend: 0x0, symName: __ZN7httplib6detail13write_headersERNS_6StreamERKNSt3__118unordered_multimapINS3_12basic_stringIcNS3_11char_traitsIcEENS3_9allocatorIcEEEESA_NS0_11case_ignore4hashENSB_8equal_toENS8_INS3_4pairIKSA_SA_EEEEEE, symObjAddr: 0x9A38, symBinAddr: 0x10000A36C, symSize: 0x180 }
  - { offset: 0xFB449, size: 0x8, addend: 0x0, symName: __ZN7httplib6detail26process_server_socket_coreIZNS0_21process_server_socketIZNS_6Server24process_and_close_socketEiEUlRNS_6StreamEbRbE_EEbRKNSt3__16atomicIiEEimlllllT_EUlbS6_E_EEbSC_imlSD_, symObjAddr: 0xB44C, symBinAddr: 0x10000BC48, symSize: 0x100 }
  - { offset: 0xFB695, size: 0x8, addend: 0x0, symName: __ZZN7httplib6detail21process_server_socketIZNS_6Server24process_and_close_socketEiEUlRNS_6StreamEbRbE_EEbRKNSt3__16atomicIiEEimlllllT_ENKUlbS5_E_clEbS5_, symObjAddr: 0xB54C, symBinAddr: 0x10000BD48, symSize: 0x190 }
  - { offset: 0xFB74F, size: 0x8, addend: 0x0, symName: __ZN7httplib6detail11select_implILb1EEElill, symObjAddr: 0xB6DC, symBinAddr: 0x10000BED8, symSize: 0x108 }
  - { offset: 0xFBA65, size: 0x8, addend: 0x0, symName: __ZN7httplib6detail11select_implILb0EEElill, symObjAddr: 0xBFC0, symBinAddr: 0x10000C7A8, symSize: 0x108 }
  - { offset: 0xFBCA4, size: 0x8, addend: 0x0, symName: __ZN7httplib6detail15is_socket_aliveEi, symObjAddr: 0xBED0, symBinAddr: 0x10000C6B8, symSize: 0xF0 }
  - { offset: 0xFC12C, size: 0x8, addend: 0x0, symName: __ZN7httplib6detail12read_headersERNS_6StreamERNSt3__118unordered_multimapINS3_12basic_stringIcNS3_11char_traitsIcEENS3_9allocatorIcEEEESA_NS0_11case_ignore4hashENSB_8equal_toENS8_INS3_4pairIKSA_SA_EEEEEE, symObjAddr: 0xD5AC, symBinAddr: 0x10000DD94, symSize: 0x1FC }
  - { offset: 0xFC613, size: 0x8, addend: 0x0, symName: __ZN7httplib6detail16get_header_valueERKNSt3__118unordered_multimapINS1_12basic_stringIcNS1_11char_traitsIcEENS1_9allocatorIcEEEES8_NS0_11case_ignore4hashENS9_8equal_toENS6_INS1_4pairIKS8_S8_EEEEEERSD_PKcm, symObjAddr: 0x15584, symBinAddr: 0x100015CFC, symSize: 0x2AC }
  - { offset: 0xFCCC1, size: 0x8, addend: 0x0, symName: __ZN7httplib6detail19write_response_lineERNS_6StreamEi, symObjAddr: 0xEA54, symBinAddr: 0x10000F23C, symSize: 0x278 }
  - { offset: 0xFD811, size: 0x8, addend: 0x0, symName: __ZN7httplib6detail17find_content_typeERKNSt3__112basic_stringIcNS1_11char_traitsIcEENS1_9allocatorIcEEEERKNS1_3mapIS7_S7_NS1_4lessIS7_EENS5_INS1_4pairIS8_S7_EEEEEES9_, symObjAddr: 0x1003C, symBinAddr: 0x100010824, symSize: 0x708 }
  - { offset: 0xFE1AF, size: 0x8, addend: 0x0, symName: __ZN7httplib6detail11range_errorERNS_7RequestERNS_8ResponseE, symObjAddr: 0x109A0, symBinAddr: 0x10001112C, symSize: 0x274 }
  - { offset: 0xFE948, size: 0x8, addend: 0x0, symName: __ZN7httplib6detail12parse_headerIZNS0_12read_headersERNS_6StreamERNSt3__118unordered_multimapINS4_12basic_stringIcNS4_11char_traitsIcEENS4_9allocatorIcEEEESB_NS0_11case_ignore4hashENSC_8equal_toENS9_INS4_4pairIKSB_SB_EEEEEEEUlRSG_SL_E_EEbPKcSO_T_, symObjAddr: 0x11B98, symBinAddr: 0x100012324, symSize: 0x76C }
  - { offset: 0x1000CC, size: 0x8, addend: 0x0, symName: __ZN7httplib6detail5splitEPKcS2_cmNSt3__18functionIFvS2_S2_EEE, symObjAddr: 0x193BC, symBinAddr: 0x100019B34, symSize: 0x28C }
  - { offset: 0x10032C, size: 0x8, addend: 0x0, symName: __ZNSt3__110__function6__funcIZNK7httplib6Server18parse_request_lineEPKcRNS2_7RequestEEUlS5_S5_E_NS_9allocatorIS8_EEFvS5_S5_EED1Ev, symObjAddr: 0x19648, symBinAddr: 0x100019DC0, symSize: 0x4 }
  - { offset: 0x100336, size: 0x8, addend: 0x0, symName: __ZN7httplib6detail6divideERKNSt3__112basic_stringIcNS1_11char_traitsIcEENS1_9allocatorIcEEEEcNS1_8functionIFvPKcmSC_mEEE, symObjAddr: 0x1922C, symBinAddr: 0x1000199A4, symSize: 0x190 }
  - { offset: 0x100810, size: 0x8, addend: 0x0, symName: __ZN7httplib6detail14expect_contentERKNS_7RequestE, symObjAddr: 0x1F984, symBinAddr: 0x10001FFBC, symSize: 0x37C }
  - { offset: 0x101441, size: 0x8, addend: 0x0, symName: __ZN7httplib6detail6fields13is_token_charEc, symObjAddr: 0x127E4, symBinAddr: 0x100012F70, symSize: 0x94 }
  - { offset: 0x1014C4, size: 0x8, addend: 0x0, symName: __ZN7httplib6detail15coalesce_rangesERNSt3__16vectorINS1_4pairIllEENS1_9allocatorIS4_EEEEm, symObjAddr: 0x380D0, symBinAddr: 0x100037FA8, symSize: 0x254 }
  - { offset: 0x1021AA, size: 0x8, addend: 0x0, symName: __ZN7httplib6detail28make_multipart_data_boundaryEv, symObjAddr: 0x141D4, symBinAddr: 0x100014960, symSize: 0x358 }
  - { offset: 0x102901, size: 0x8, addend: 0x0, symName: __ZN7httplib6detail13encoding_typeERKNS_7RequestERKNS_8ResponseE, symObjAddr: 0x1452C, symBinAddr: 0x100014CB8, symSize: 0x490 }
  - { offset: 0x1036E5, size: 0x8, addend: 0x0, symName: __ZN7httplib6detail31make_content_range_header_fieldERKNSt3__14pairImmEEm, symObjAddr: 0x149BC, symBinAddr: 0x100015148, symSize: 0x1D4 }
  - { offset: 0x103F5B, size: 0x8, addend: 0x0, symName: __ZN7httplib6detail29process_multipart_ranges_dataIZNS0_26make_multipart_ranges_dataERKNS_7RequestERNS_8ResponseERKNSt3__112basic_stringIcNS7_11char_traitsIcEENS7_9allocatorIcEEEESF_mRSD_EUlSF_E_ZNS0_26make_multipart_ranges_dataES4_S6_SF_SF_mSG_EUlSF_E0_ZNS0_26make_multipart_ranges_dataES4_S6_SF_SF_mSG_EUlmmE_EEbS4_SF_SF_mT_T0_T1_, symObjAddr: 0x15C98, symBinAddr: 0x100016410, symSize: 0x414 }
  - { offset: 0x105E73, size: 0x8, addend: 0x0, symName: __ZN7httplib6detail29process_multipart_ranges_dataIZNS0_32get_multipart_ranges_data_lengthERKNS_7RequestERKNSt3__112basic_stringIcNS5_11char_traitsIcEENS5_9allocatorIcEEEESD_mEUlSD_E_ZNS0_32get_multipart_ranges_data_lengthES4_SD_SD_mEUlSD_E0_ZNS0_32get_multipart_ranges_data_lengthES4_SD_SD_mEUlmmE_EEbS4_SD_SD_mT_T0_T1_, symObjAddr: 0x15AA0, symBinAddr: 0x100016218, symSize: 0x1F8 }
  - { offset: 0x10633D, size: 0x8, addend: 0x0, symName: __ZN7httplib6detail29process_multipart_ranges_dataIZNS0_26make_multipart_ranges_dataERKNS_7RequestERNS_8ResponseERKNSt3__112basic_stringIcNS7_11char_traitsIcEENS7_9allocatorIcEEEESF_mRSD_EUlSF_E_ZNS0_26make_multipart_ranges_dataES4_S6_SF_SF_mSG_EUlSF_E0_ZNS0_26make_multipart_ranges_dataES4_S6_SF_SF_mSG_EUlmmE_EEbS4_SF_SF_mT_T0_T1_, symObjAddr: 0x15C98, symBinAddr: 0x100016410, symSize: 0x414 }
  - { offset: 0x1065B7, size: 0x8, addend: 0x0, symName: __ZN7httplib6detail29process_multipart_ranges_dataIZNS0_27write_multipart_ranges_dataIZNS_6Server27write_content_with_providerERNS_6StreamERKNS_7RequestERNS_8ResponseERKNSt3__112basic_stringIcNSB_11char_traitsIcEENSB_9allocatorIcEEEESJ_EUlvE_EEbS5_S8_SA_SJ_SJ_mRKT_EUlSJ_E_ZNS2_ISK_EEbS5_S8_SA_SJ_SJ_mSN_EUlSJ_E0_ZNS2_ISK_EEbS5_S8_SA_SJ_SJ_mSN_EUlmmE_EEbS8_SJ_SJ_mSL_T0_T1_, symObjAddr: 0x17240, symBinAddr: 0x1000179B8, symSize: 0x5CC }
  - { offset: 0x108B6D, size: 0x8, addend: 0x0, symName: __ZN7httplib6detail13is_valid_pathERKNSt3__112basic_stringIcNS1_11char_traitsIcEENS1_9allocatorIcEEEE, symObjAddr: 0x20248, symBinAddr: 0x100020880, symSize: 0x238 }
  - { offset: 0x108D90, size: 0x8, addend: 0x0, symName: __ZN7httplib8Response12set_redirectERKNSt3__112basic_stringIcNS1_11char_traitsIcEENS1_9allocatorIcEEEEi, symObjAddr: 0x20480, symBinAddr: 0x100020AB8, symSize: 0x1E4 }
  - { offset: 0x108D9A, size: 0x8, addend: 0x0, symName: __ZN7httplib6detail12compute_etagERKNS0_8FileStatE, symObjAddr: 0x20664, symBinAddr: 0x100020C9C, symSize: 0x49C }
  - { offset: 0x10A7CF, size: 0x8, addend: 0x0, symName: __ZN7httplib6detail28is_chunked_transfer_encodingERKNSt3__118unordered_multimapINS1_12basic_stringIcNS1_11char_traitsIcEENS1_9allocatorIcEEEES8_NS0_11case_ignore4hashENS9_8equal_toENS6_INS1_4pairIKS8_S8_EEEEEE, symObjAddr: 0x221C8, symBinAddr: 0x1000227A4, symSize: 0x220 }
  - { offset: 0x10AF4C, size: 0x8, addend: 0x0, symName: __ZN7httplib6detail20get_header_value_u64ERKNSt3__118unordered_multimapINS1_12basic_stringIcNS1_11char_traitsIcEENS1_9allocatorIcEEEES8_NS0_11case_ignore4hashENS9_8equal_toENS6_INS1_4pairIKS8_S8_EEEEEERSD_mmRb, symObjAddr: 0x223E8, symBinAddr: 0x1000229C4, symSize: 0x1BC }
  - { offset: 0x10B546, size: 0x8, addend: 0x0, symName: __ZN7httplib6detail10split_findEPKcS2_cmNSt3__18functionIFbS2_S2_EEE, symObjAddr: 0x21278, symBinAddr: 0x100021854, symSize: 0x278 }
  - { offset: 0x10B7E1, size: 0x8, addend: 0x0, symName: __ZNSt3__110__function6__funcIZNK7httplib6Server21check_if_not_modifiedERKNS2_7RequestERNS2_8ResponseERKNS_12basic_stringIcNS_11char_traitsIcEENS_9allocatorIcEEEElEUlPKcSI_E_NSC_ISJ_EEFbSI_SI_EED1Ev, symObjAddr: 0x214F0, symBinAddr: 0x100021ACC, symSize: 0x4 }
  - { offset: 0x10B937, size: 0x8, addend: 0x0, symName: __ZN7httplib6detail24parse_multipart_boundaryERKNSt3__112basic_stringIcNS1_11char_traitsIcEENS1_9allocatorIcEEEERS7_, symObjAddr: 0x239E4, symBinAddr: 0x100023FC0, symSize: 0x324 }
  - { offset: 0x10C4E8, size: 0x8, addend: 0x0, symName: __ZN7httplib6detail12parse_headerIZNS0_14FormDataParser5parseEPKcmRKNSt3__18functionIFbRKNS_8FormDataEEEERKNS6_IFbS4_mEEEEUlRKNS5_12basic_stringIcNS5_11char_traitsIcEENS5_9allocatorIcEEEESP_E_EEbS4_S4_T_, symObjAddr: 0x25BB4, symBinAddr: 0x100026190, symSize: 0x6E4 }
  - { offset: 0x10D950, size: 0x8, addend: 0x0, symName: __ZN7httplib6detail12parse_headerIZNS0_14FormDataParser5parseEPKcmRKNSt3__18functionIFbRKNS_8FormDataEEEERKNS6_IFbS4_mEEEEUlRKNS5_12basic_stringIcNS5_11char_traitsIcEENS5_9allocatorIcEEEESP_E0_EEbS4_S4_T_, symObjAddr: 0x26298, symBinAddr: 0x100026874, symSize: 0x76C }
  - { offset: 0x10F077, size: 0x8, addend: 0x0, symName: __ZN7httplib6detail19create_decompressorERKNSt3__112basic_stringIcNS1_11char_traitsIcEENS1_9allocatorIcEEEE, symObjAddr: 0x33648, symBinAddr: 0x10003384C, symSize: 0x8 }
  - { offset: 0x10F0B7, size: 0x8, addend: 0x0, symName: __ZN7httplib6detail19create_decompressorERKNSt3__112basic_stringIcNS1_11char_traitsIcEENS1_9allocatorIcEEEE, symObjAddr: 0x33648, symBinAddr: 0x10003384C, symSize: 0x8 }
  - { offset: 0x10F0D3, size: 0x8, addend: 0x0, symName: __ZN7httplib6detail19create_decompressorERKNSt3__112basic_stringIcNS1_11char_traitsIcEENS1_9allocatorIcEEEE, symObjAddr: 0x33648, symBinAddr: 0x10003384C, symSize: 0x8 }
  - { offset: 0x10F3C1, size: 0x8, addend: 0x0, symName: __ZN7httplib6detail20read_content_chunkedINS_7RequestEEENS0_17ReadContentResultERNS_6StreamERT_mNSt3__18functionIFbPKcmmmEEE, symObjAddr: 0x34074, symBinAddr: 0x100034278, symSize: 0x1F4 }
  - { offset: 0x10F94D, size: 0x8, addend: 0x0, symName: __ZN7httplib6detail12parse_headerIZNS0_14parse_trailersERNS0_18stream_line_readerERNSt3__118unordered_multimapINS4_12basic_stringIcNS4_11char_traitsIcEENS4_9allocatorIcEEEESB_NS0_11case_ignore4hashENSC_8equal_toENS9_INS4_4pairIKSB_SB_EEEEEERKSJ_EUlRSG_SN_E_EEbPKcSQ_T_, symObjAddr: 0x35170, symBinAddr: 0x100035374, symSize: 0x7B4 }
  - { offset: 0x112ECC, size: 0x8, addend: 0x0, symName: __ZN7httplib13get_client_ipERKNSt3__112basic_stringIcNS0_11char_traitsIcEENS0_9allocatorIcEEEERKNS0_6vectorIS6_NS4_IS6_EEEE, symObjAddr: 0xE13C, symBinAddr: 0x10000E924, symSize: 0x3D0 }
  - { offset: 0x113E81, size: 0x8, addend: 0x0, symName: __ZN7httplib22default_socket_optionsEi, symObjAddr: 0x9A04, symBinAddr: 0x10000A338, symSize: 0x34 }
  - { offset: 0x113F4C, size: 0x8, addend: 0x0, symName: __ZN7httplib14status_messageEi, symObjAddr: 0x1EA14, symBinAddr: 0x10001F04C, symSize: 0x314 }
  - { offset: 0x113F7B, size: 0x8, addend: 0x0, symName: __ZN7httplib21decode_path_componentERKNSt3__112basic_stringIcNS0_11char_traitsIcEENS0_9allocatorIcEEEE, symObjAddr: 0x12304, symBinAddr: 0x100012A90, symSize: 0x4E0 }
  - { offset: 0x114498, size: 0x8, addend: 0x0, symName: __ZN7httplib22decode_query_componentERKNSt3__112basic_stringIcNS0_11char_traitsIcEENS0_9allocatorIcEEEEb, symObjAddr: 0x1A8EC, symBinAddr: 0x10001B064, symSize: 0x27C }
  - { offset: 0x1178E3, size: 0x8, addend: 0x0, symName: __ZNK7httplib6Server18parse_request_lineEPKcRNS_7RequestE, symObjAddr: 0xD830, symBinAddr: 0x10000E018, symSize: 0x720 }
  - { offset: 0x11790A, size: 0x8, addend: 0x0, symName: __ZZNK7httplib6Server18parse_request_lineEPKcRNS_7RequestEE7methods, symObjAddr: 0x52F48, symBinAddr: 0x1000D2E40, symSize: 0x0 }
  - { offset: 0x118BE7, size: 0x8, addend: 0x0, symName: __ZN7httplib6detail14FormDataParser5parseEPKcmRKNSt3__18functionIFbRKNS_8FormDataEEEERKNS5_IFbS3_mEEE, symObjAddr: 0x242F8, symBinAddr: 0x1000248D4, symSize: 0x1524 }
  - { offset: 0x118C0C, size: 0x8, addend: 0x0, symName: __ZZN7httplib6detail14FormDataParser5parseEPKcmRKNSt3__18functionIFbRKNS_8FormDataEEEERKNS5_IFbS3_mEEEE22re_content_disposition, symObjAddr: 0x52F78, symBinAddr: 0x1000D2E70, symSize: 0x0 }
  - { offset: 0x118C24, size: 0x8, addend: 0x0, symName: __ZZN7httplib6detail14FormDataParser5parseEPKcmRKNSt3__18functionIFbRKNS_8FormDataEEEERKNS5_IFbS3_mEEEE19re_rfc5987_encoding, symObjAddr: 0x52FA8, symBinAddr: 0x1000D2EA0, symSize: 0x0 }
  - { offset: 0x11E4AA, size: 0x8, addend: 0x0, symName: __ZN3Ort6GlobalIvE4api_E, symObjAddr: 0x52F08, symBinAddr: 0x1000D0900, symSize: 0x0 }
  - { offset: 0x1252F6, size: 0x8, addend: 0x0, symName: __ZN3Ort12ThrowOnErrorEP9OrtStatus, symObjAddr: 0x6214, symBinAddr: 0x100006B84, symSize: 0x130 }
  - { offset: 0x12E8E3, size: 0x8, addend: 0x0, symName: __ZN5Eigen8internal29general_matrix_vector_productIlfNS0_22const_blas_data_mapperIflLi1EEELi1ELb0EfNS2_IflLi0EEELb0ELi0EE3runEllRKS3_RKS4_Pflf, symObjAddr: 0xB38, symBinAddr: 0x1000014A8, symSize: 0x10E0 }
  - { offset: 0x133254, size: 0x8, addend: 0x0, symName: __ZN5Eigen8internal19gemv_dense_selectorILi2ELi1ELb1EE3runINS_9TransposeIKNS_3RefIKNS_6MatrixIfLin1ELin1ELi0ELin1ELin1EEELi0ENS_11OuterStrideILin1EEEEEEENS4_IKNS4_INS6_IfLin1ELi1ELi0ELin1ELi1EEEEEEESE_EEvRKT_RKT0_RT1_RKNSO_6ScalarE, symObjAddr: 0x978, symBinAddr: 0x1000012E8, symSize: 0x1C0 }
  - { offset: 0x133F22, size: 0x8, addend: 0x0, symName: __ZN5Eigen8internal19gemv_dense_selectorILi2ELi1ELb1EE3runINS_9TransposeIKNS_6MatrixIfLin1ELin1ELi0ELin1ELin1EEEEENS4_IKNS4_INS5_IfLin1ELi1ELi0ELin1ELi1EEEEEEENS4_INS5_IfLi1ELin1ELi1ELi1ELin1EEEEEEEvRKT_RKT0_RT1_RKNSL_6ScalarE, symObjAddr: 0x2D28, symBinAddr: 0x100003698, symSize: 0x1C4 }
  - { offset: 0x1378D0, size: 0x8, addend: 0x0, symName: __ZN7httplib6ServerC2Ev, symObjAddr: 0x951C, symBinAddr: 0x100009E50, symSize: 0x4E8 }
  - { offset: 0x13983F, size: 0x8, addend: 0x0, symName: __ZNK7httplib6Server12apply_rangesERKNS_7RequestERNS_8ResponseERNSt3__112basic_stringIcNS6_11char_traitsIcEENS6_9allocatorIcEEEESD_, symObjAddr: 0x13510, symBinAddr: 0x100013C9C, symSize: 0x9F4 }
  - { offset: 0x13CB3A, size: 0x8, addend: 0x0, symName: __ZZN7httplib6detail21write_content_chunkedIZNS_6Server27write_content_with_providerERNS_6StreamERKNS_7RequestERNS_8ResponseERKNSt3__112basic_stringIcNSA_11char_traitsIcEENSA_9allocatorIcEEEESI_EUlvE_NS0_10compressorEEEbS4_RKNSA_8functionIFbmmRNS_8DataSinkEEEERKT_RT0_RNS_5ErrorEENKUlPKcmE_clES10_m, symObjAddr: 0x17D08, symBinAddr: 0x100018480, symSize: 0x44C }
  - { offset: 0x13E134, size: 0x8, addend: 0x0, symName: __ZZN7httplib6detail21write_content_chunkedIZNS_6Server27write_content_with_providerERNS_6StreamERKNS_7RequestERNS_8ResponseERKNSt3__112basic_stringIcNSA_11char_traitsIcEENSA_9allocatorIcEEEESI_EUlvE_NS0_10compressorEEEbS4_RKNSA_8functionIFbmmRNS_8DataSinkEEEERKT_RT0_RNS_5ErrorEENKUlPKNSA_18unordered_multimapISG_SG_NS0_11case_ignore4hashENS10_8equal_toENSE_INSA_4pairISH_SG_EEEEEEE_clES18_, symObjAddr: 0x183EC, symBinAddr: 0x100018B64, symSize: 0x6F0 }
  - { offset: 0x14079B, size: 0x8, addend: 0x0, symName: __ZZN7httplib6detail16parse_query_textEPKcmRNSt3__18multimapINS3_12basic_stringIcNS3_11char_traitsIcEENS3_9allocatorIcEEEESA_NS3_4lessISA_EENS8_INS3_4pairIKSA_SA_EEEEEEENKUlS2_S2_E_clES2_S2_, symObjAddr: 0x1A5AC, symBinAddr: 0x10001AD24, symSize: 0x340 }
  - { offset: 0x141EF2, size: 0x8, addend: 0x0, symName: __ZN7httplib6Server15process_requestERNS_6StreamERKNSt3__112basic_stringIcNS3_11char_traitsIcEENS3_9allocatorIcEEEEiSB_ibRbRKNS3_8functionIFvRNS_7RequestEEEE, symObjAddr: 0xC0C8, symBinAddr: 0x10000C8B0, symSize: 0x1358 }
  - { offset: 0x147BB3, size: 0x8, addend: 0x0, symName: __ZNK7httplib6Server21check_if_not_modifiedERKNS_7RequestERNS_8ResponseERKNSt3__112basic_stringIcNS6_11char_traitsIcEENS6_9allocatorIcEEEEl, symObjAddr: 0x20B00, symBinAddr: 0x100021138, symSize: 0x528 }
  - { offset: 0x149707, size: 0x8, addend: 0x0, symName: __ZN7httplib6Server19handle_file_requestERNS_7RequestERNS_8ResponseE, symObjAddr: 0x1EE14, symBinAddr: 0x10001F44C, symSize: 0xB70 }
  - { offset: 0x14CFF4, size: 0x8, addend: 0x0, symName: __ZN7httplib6Server7routingERNS_7RequestERNS_8ResponseERNS_6StreamE, symObjAddr: 0xED70, symBinAddr: 0x10000F558, symSize: 0x1074 }
  - { offset: 0x150E52, size: 0x8, addend: 0x0, symName: __ZNK7httplib6Server17read_content_coreERNS_6StreamERNS_7RequestERNS_8ResponseENSt3__18functionIFbPKcmEEENS8_IFbRKNS_8FormDataEEEESC_, symObjAddr: 0x22C9C, symBinAddr: 0x100023278, symSize: 0x91C }
  - { offset: 0x15377E, size: 0x8, addend: 0x0, symName: __ZZN7httplib6detail24parse_disposition_paramsERKNSt3__112basic_stringIcNS1_11char_traitsIcEENS1_9allocatorIcEEEERNS1_8multimapIS7_S7_NS1_4lessIS7_EENS5_INS1_4pairIS8_S7_EEEEEEENKUlPKcSJ_E_clESJ_SJ_, symObjAddr: 0x3248C, symBinAddr: 0x100032690, symSize: 0x548 }
  - { offset: 0x155535, size: 0x8, addend: 0x0, symName: __ZN7httplib6Server12read_contentERNS_6StreamERNS_7RequestERNS_8ResponseE, symObjAddr: 0x1FD74, symBinAddr: 0x1000203AC, symSize: 0x4D4 }
  - { offset: 0x156DFD, size: 0x8, addend: 0x0, symName: _main, symObjAddr: 0x33AC, symBinAddr: 0x100003D1C, symSize: 0x2488 }
  - { offset: 0x161F45, size: 0x8, addend: 0x0, symName: __ZNSt3__124uniform_int_distributionIiEclINS_23mersenne_twister_engineIjLm32ELm624ELm397ELm31ELj2567483615ELm11ELj4294967295ELm7ELj2636928640ELm15ELj4022730752ELm18ELj1812433253EEEEEiRT_RKNS1_10param_typeE, symObjAddr: 0x40204, symBinAddr: 0x10003FE04, symSize: 0x194 }
  - { offset: 0x161FE5, size: 0x8, addend: 0x0, symName: __ZNSt3__124uniform_int_distributionIiEclINS_23mersenne_twister_engineIjLm32ELm624ELm397ELm31ELj2567483615ELm11ELj4294967295ELm7ELj2636928640ELm15ELj4022730752ELm18ELj1812433253EEEEEiRT_RKNS1_10param_typeE, symObjAddr: 0x40204, symBinAddr: 0x10003FE04, symSize: 0x194 }
  - { offset: 0x163197, size: 0x8, addend: 0x0, symName: __ZN7httplib6Server15listen_internalEv, symObjAddr: 0x43F74, symBinAddr: 0x100043B38, symSize: 0x43C }
  - { offset: 0x165088, size: 0x8, addend: 0x0, symName: __Z9mean_poolRKN5Eigen3RefIKNS_6MatrixIfLin1ELin1ELi0ELin1ELin1EEELi0ENS_11OuterStrideILin1EEEEERKNS0_IKNS1_IiLin1ELi1ELi0ELin1ELi1EEELi0ENS_11InnerStrideILi1EEEEE, symObjAddr: 0x0, symBinAddr: 0x100000970, symSize: 0x310 }
  - { offset: 0x16605A, size: 0x8, addend: 0x0, symName: __ZN5Eigen15PlainObjectBaseINS_6MatrixIfLin1ELi1ELi0ELin1ELi1EEEEC2INS_12CwiseUnaryOpINS_8internal12core_cast_opIifEEKNS_3RefIKNS1_IiLin1ELi1ELi0ELin1ELi1EEELi0ENS_11InnerStrideILi1EEEEEEEEERKNS_9DenseBaseIT_EE, symObjAddr: 0x344, symBinAddr: 0x100000CB4, symSize: 0x150 }
  - { offset: 0x166861, size: 0x8, addend: 0x0, symName: __ZN5Eigen15PlainObjectBaseINS_6MatrixIfLin1ELi1ELi0ELin1ELi1EEEEC2INS_7ProductINS_9TransposeIKNS_3RefIKNS1_IfLin1ELin1ELi0ELin1ELin1EEELi0ENS_11OuterStrideILin1EEEEEEENS6_IKNS6_IS2_EEEELi0EEEEERKNS_9DenseBaseIT_EE, symObjAddr: 0x500, symBinAddr: 0x100000E70, symSize: 0x110 }
  - { offset: 0x166DBF, size: 0x8, addend: 0x0, symName: __ZN5Eigen15PlainObjectBaseINS_6MatrixIfLin1ELi1ELi0ELin1ELi1EEEEC2INS_13CwiseBinaryOpINS_8internal18scalar_quotient_opIffEEKS2_KNS_14CwiseNullaryOpINS6_18scalar_constant_opIfEES9_EEEEEERKNS_9DenseBaseIT_EE, symObjAddr: 0x1C18, symBinAddr: 0x100002588, symSize: 0x134 }
  - { offset: 0x167650, size: 0x8, addend: 0x0, symName: __ZNSt16invalid_argumentC1B8ne200100EPKc, symObjAddr: 0x310, symBinAddr: 0x100000C80, symSize: 0x24 }
  - { offset: 0x167BF8, size: 0x8, addend: 0x0, symName: __ZN5Eigen8internal28conditional_aligned_new_autoIfLb1EEEPT_m.cold.1, symObjAddr: 0x45828, symBinAddr: 0x1000B2E08, symSize: 0x24 }
  - { offset: 0x167DDC, size: 0x8, addend: 0x0, symName: __ZN5Eigen8internal20generic_product_implINS_9TransposeIKNS_3RefIKNS_6MatrixIfLin1ELin1ELi0ELin1ELin1EEELi0ENS_11OuterStrideILin1EEEEEEENS2_IKNS2_INS4_IfLin1ELi1ELi0ELin1ELi1EEEEEEENS_10DenseShapeESG_Li7EE13scaleAndAddToISC_EEvRT_RKSB_RKSF_RKf, symObjAddr: 0x610, symBinAddr: 0x100000F80, symSize: 0x368 }
  - { offset: 0x168EB5, size: 0x8, addend: 0x0, symName: __ZN5Eigen8internal19gemv_dense_selectorILi2ELi1ELb1EE3runINS_9TransposeIKNS_3RefIKNS_6MatrixIfLin1ELin1ELi0ELin1ELin1EEELi0ENS_11OuterStrideILin1EEEEEEENS4_IKNS4_INS6_IfLin1ELi1ELi0ELin1ELi1EEEEEEESE_EEvRKT_RKT0_RT1_RKNSO_6ScalarE, symObjAddr: 0x978, symBinAddr: 0x1000012E8, symSize: 0x1C0 }
  - { offset: 0x1696DE, size: 0x8, addend: 0x0, symName: __ZN5Eigen8internal20generic_product_implINS_9TransposeIKNS_3RefIKNS_6MatrixIfLin1ELin1ELi0ELin1ELin1EEELi0ENS_11OuterStrideILin1EEEEEEENS2_IKNS2_INS4_IfLin1ELi1ELi0ELin1ELi1EEEEEEENS_10DenseShapeESG_Li7EE13scaleAndAddToISC_EEvRT_RKSB_RKSF_RKf.cold.1, symObjAddr: 0x4584C, symBinAddr: 0x1000B2E2C, symSize: 0x24 }
  - { offset: 0x1697DF, size: 0x8, addend: 0x0, symName: __ZN5Eigen8internal20generic_product_implINS_9TransposeIKNS_3RefIKNS_6MatrixIfLin1ELin1ELi0ELin1ELin1EEELi0ENS_11OuterStrideILin1EEEEEEENS2_IKNS2_INS4_IfLin1ELi1ELi0ELin1ELi1EEEEEEENS_10DenseShapeESG_Li7EE13scaleAndAddToISC_EEvRT_RKSB_RKSF_RKf.cold.3, symObjAddr: 0x45894, symBinAddr: 0x1000B2E50, symSize: 0x28 }
  - { offset: 0x1698AA, size: 0x8, addend: 0x0, symName: __ZN5Eigen8internal20generic_product_implINS_9TransposeIKNS_3RefIKNS_6MatrixIfLin1ELin1ELi0ELin1ELin1EEELi0ENS_11OuterStrideILin1EEEEEEENS2_IKNS2_INS4_IfLin1ELi1ELi0ELin1ELi1EEEEEEENS_10DenseShapeESG_Li7EE13scaleAndAddToISC_EEvRT_RKSB_RKSF_RKf.cold.4, symObjAddr: 0x458BC, symBinAddr: 0x1000B2E78, symSize: 0x24 }
  - { offset: 0x16A72C, size: 0x8, addend: 0x0, symName: __Z15mean_pool_batchRKNSt3__16vectorIN5Eigen6MatrixIfLin1ELin1ELi0ELin1ELin1EEENS_9allocatorIS3_EEEERKNS0_INS2_IiLin1ELi1ELi0ELin1ELi1EEENS4_IS9_EEEE, symObjAddr: 0x1D4C, symBinAddr: 0x1000026BC, symSize: 0x158 }
  - { offset: 0x16AA95, size: 0x8, addend: 0x0, symName: __Z15mean_pool_batchRKNSt3__16vectorIN5Eigen6MatrixIfLin1ELin1ELi0ELin1ELin1EEENS_9allocatorIS3_EEEERKNS0_INS2_IiLin1ELi1ELi0ELin1ELi1EEENS4_IS9_EEEE.cold.1, symObjAddr: 0x45928, symBinAddr: 0x1000B2E9C, symSize: 0x28 }
  - { offset: 0x16B5DC, size: 0x8, addend: 0x0, symName: __Z15mean_pool_batchRKNSt3__16vectorIN5Eigen6MatrixIfLin1ELin1ELi0ELin1ELin1EEENS_9allocatorIS3_EEEERKNS0_INS2_IiLin1ELi1ELi0ELin1ELi1EEENS4_IS9_EEEE.omp_outlined, symObjAddr: 0x1EA4, symBinAddr: 0x100002814, symSize: 0x7C8 }
  - { offset: 0x16CA5B, size: 0x8, addend: 0x0, symName: __ZN5Eigen15PlainObjectBaseINS_6MatrixIfLin1ELi1ELi0ELin1ELi1EEEEC2INS_12CwiseUnaryOpINS_8internal12core_cast_opIifEEKNS1_IiLin1ELi1ELi0ELin1ELi1EEEEEEERKNS_9DenseBaseIT_EE, symObjAddr: 0x266C, symBinAddr: 0x100002FDC, symSize: 0x150 }
  - { offset: 0x16DAC8, size: 0x8, addend: 0x0, symName: __ZN5Eigen8internal20generic_product_implINS_9TransposeINS_6MatrixIfLin1ELi1ELi0ELin1ELi1EEEEENS3_IfLin1ELin1ELi0ELin1ELin1EEENS_10DenseShapeES7_Li7EE13scaleAndAddToINS3_IfLi1ELin1ELi1ELi1ELin1EEEEEvRT_RKS5_RKS6_RKf, symObjAddr: 0x29C4, symBinAddr: 0x100003334, symSize: 0x364 }
  - { offset: 0x16EC27, size: 0x8, addend: 0x0, symName: __ZN5Eigen8internal19gemv_dense_selectorILi2ELi1ELb1EE3runINS_9TransposeIKNS_6MatrixIfLin1ELin1ELi0ELin1ELin1EEEEENS4_IKNS4_INS5_IfLin1ELi1ELi0ELin1ELi1EEEEEEENS4_INS5_IfLi1ELin1ELi1ELi1ELin1EEEEEEEvRKT_RKT0_RT1_RKNSL_6ScalarE, symObjAddr: 0x2D28, symBinAddr: 0x100003698, symSize: 0x1C4 }
  - { offset: 0x16FD23, size: 0x8, addend: 0x0, symName: __Z12l2_normalizeRKN5Eigen3RefIKNS_6MatrixIfLin1ELi1ELi0ELin1ELi1EEELi0ENS_11InnerStrideILi1EEEEE, symObjAddr: 0x2EEC, symBinAddr: 0x10000385C, symSize: 0x278 }
  - { offset: 0x170F2C, size: 0x8, addend: 0x0, symName: __ZN5Eigen15PlainObjectBaseINS_6MatrixIfLin1ELi1ELi0ELin1ELi1EEEEC2INS_13CwiseBinaryOpINS_8internal18scalar_quotient_opIffEEKNS_3RefIKS2_Li0ENS_11InnerStrideILi1EEEEEKNS_14CwiseNullaryOpINS6_18scalar_constant_opIfEESA_EEEEEERKNS_9DenseBaseIT_EE, symObjAddr: 0x3164, symBinAddr: 0x100003AD4, symSize: 0x134 }
  - { offset: 0x171779, size: 0x8, addend: 0x0, symName: __ZN5Eigen15PlainObjectBaseINS_6MatrixIfLin1ELi1ELi0ELin1ELi1EEEEC2INS_3RefIKS2_Li0ENS_11InnerStrideILi1EEEEEEERKNS_9DenseBaseIT_EE, symObjAddr: 0x3298, symBinAddr: 0x100003C08, symSize: 0x114 }
  - { offset: 0x171D9C, size: 0x8, addend: 0x0, symName: __Z12l2_normalizeRKN5Eigen3RefIKNS_6MatrixIfLin1ELi1ELi0ELin1ELi1EEELi0ENS_11InnerStrideILi1EEEEE.cold.1, symObjAddr: 0x45A2C, symBinAddr: 0x1000B2EC4, symSize: 0x28 }
  - { offset: 0x174E7B, size: 0x8, addend: 0x0, symName: __ZNSt3__112basic_stringIcNS_11char_traitsIcEENS_9allocatorIcEEE17__assign_externalEPKc, symObjAddr: 0x7E30, symBinAddr: 0x1000087A0, symSize: 0x34 }
  - { offset: 0x17513D, size: 0x8, addend: 0x0, symName: __ZL22get_system_fingerprintRKNSt3__112basic_stringIcNS_11char_traitsIcEENS_9allocatorIcEEEES7_, symObjAddr: 0x5A50, symBinAddr: 0x1000063C0, symSize: 0x31C }
  - { offset: 0x175FAF, size: 0x8, addend: 0x0, symName: __ZNSt3__112basic_stringIcNS_11char_traitsIcEENS_9allocatorIcEEE25__init_copy_ctor_externalEPKcm, symObjAddr: 0x930C, symBinAddr: 0x100009C7C, symSize: 0x88 }
  - { offset: 0x17616E, size: 0x8, addend: 0x0, symName: __ZNSt3__110unique_ptrI9OgaResultNS_14default_deleteIS1_EEED1B8ne200100Ev, symObjAddr: 0x9394, symBinAddr: 0x100009D04, symSize: 0x34 }
  - { offset: 0x176179, size: 0x8, addend: 0x0, symName: __ZL14get_model_nameNSt3__112basic_stringIcNS_11char_traitsIcEENS_9allocatorIcEEEE, symObjAddr: 0x5D6C, symBinAddr: 0x1000066DC, symSize: 0x2E8 }
  - { offset: 0x17709F, size: 0x8, addend: 0x0, symName: __ZN8OgaModel6CreateEPKc, symObjAddr: 0x6054, symBinAddr: 0x1000069C4, symSize: 0xAC }
  - { offset: 0x17720F, size: 0x8, addend: 0x0, symName: __ZN12OgaTokenizer6CreateERK8OgaModel, symObjAddr: 0x6134, symBinAddr: 0x100006AA4, symSize: 0xAC }
  - { offset: 0x17740C, size: 0x8, addend: 0x0, symName: __ZN7httplib6Server12make_matcherERKNSt3__112basic_stringIcNS1_11char_traitsIcEENS1_9allocatorIcEEEE, symObjAddr: 0x39BC0, symBinAddr: 0x100039A98, symSize: 0x17C }
  - { offset: 0x1778BA, size: 0x8, addend: 0x0, symName: __ZNSt3__16vectorINS_4pairINS_10unique_ptrIN7httplib6detail11MatcherBaseENS_14default_deleteIS5_EEEENS_8functionIFvRKNS3_7RequestERNS3_8ResponseEEEEEENS_9allocatorISH_EEE24__emplace_back_slow_pathIJS8_SG_EEEPSH_DpOT_, symObjAddr: 0x39D3C, symBinAddr: 0x100039C14, symSize: 0x1C0 }
  - { offset: 0x177F46, size: 0x8, addend: 0x0, symName: __ZN7httplib6Server13bind_internalERKNSt3__112basic_stringIcNS1_11char_traitsIcEENS1_9allocatorIcEEEEii, symObjAddr: 0x443B0, symBinAddr: 0x100043F74, symSize: 0x240 }
  - { offset: 0x178505, size: 0x8, addend: 0x0, symName: __ZN7httplib6ServerD2Ev, symObjAddr: 0x45008, symBinAddr: 0x100044BCC, symSize: 0x820 }
  - { offset: 0x17B2DA, size: 0x8, addend: 0x0, symName: __ZL20before_run_inferenceRKNSt3__112basic_stringIcNS_11char_traitsIcEENS_9allocatorIcEEEERS5_PjS9_PdSA_S9_Pb, symObjAddr: 0x64DC, symBinAddr: 0x100006E4C, symSize: 0x628 }
  - { offset: 0x17C0AC, size: 0x8, addend: 0x0, symName: __ZL13run_inferenceP8OgaModelP12OgaTokenizerRKNSt3__112basic_stringIcNS3_11char_traitsIcEENS3_9allocatorIcEEEESB_xjjddjS9_, symObjAddr: 0x6B04, symBinAddr: 0x100007474, symSize: 0x1084 }
  - { offset: 0x17E984, size: 0x8, addend: 0x0, symName: __ZL5usagev, symObjAddr: 0x58D8, symBinAddr: 0x100006248, symSize: 0xE8 }
  - { offset: 0x17E9FE, size: 0x8, addend: 0x0, symName: __ZNSt3__14endlB8ne200100IcNS_11char_traitsIcEEEERNS_13basic_ostreamIT_T0_EES7_, symObjAddr: 0x59C0, symBinAddr: 0x100006330, symSize: 0x90 }
  - { offset: 0x17EA0F, size: 0x8, addend: 0x0, symName: __ZNSt3__112basic_stringIcNS_11char_traitsIcEENS_9allocatorIcEEE20__throw_length_errorB8ne200100Ev, symObjAddr: 0x7BF8, symBinAddr: 0x100008568, symSize: 0x14 }
  - { offset: 0x17EA26, size: 0x8, addend: 0x0, symName: __ZNSt3__120__throw_length_errorB8ne200100EPKc, symObjAddr: 0x7C0C, symBinAddr: 0x10000857C, symSize: 0x50 }
  - { offset: 0x17EA4E, size: 0x8, addend: 0x0, symName: __ZN7httplib6ServerC2Ev, symObjAddr: 0x951C, symBinAddr: 0x100009E50, symSize: 0x4E8 }
  - { offset: 0x17EA59, size: 0x8, addend: 0x0, symName: __ZNSt3__16vectorIhNS_9allocatorIhEEE20__throw_length_errorB8ne200100Ev, symObjAddr: 0x7CA8, symBinAddr: 0x100008618, symSize: 0x14 }
  - { offset: 0x17EA70, size: 0x8, addend: 0x0, symName: __ZNSt3__112basic_stringIcNS_11char_traitsIcEENS_9allocatorIcEEE17__assign_externalEPKcm, symObjAddr: 0x7CBC, symBinAddr: 0x10000862C, symSize: 0x174 }
  - { offset: 0x17EA7B, size: 0x8, addend: 0x0, symName: __ZNSt3__112basic_stringIcNS_11char_traitsIcEENS_9allocatorIcEEEC1B8ne200100ILi0EEEPKc, symObjAddr: 0x5834, symBinAddr: 0x1000061A4, symSize: 0xA4 }
  - { offset: 0x17ECE2, size: 0x8, addend: 0x0, symName: __ZL5usagev, symObjAddr: 0x58D8, symBinAddr: 0x100006248, symSize: 0xE8 }
  - { offset: 0x17ED10, size: 0x8, addend: 0x0, symName: __ZNSt3__16vectorINS_12basic_stringIcNS_11char_traitsIcEENS_9allocatorIcEEEENS4_IS6_EEED1B8ne200100Ev, symObjAddr: 0x7B88, symBinAddr: 0x1000084F8, symSize: 0x70 }
  - { offset: 0x17EF68, size: 0x8, addend: 0x0, symName: __ZNSt3__110unique_ptrIN3Ort7SessionENS_14default_deleteIS2_EEED1B8ne200100Ev, symObjAddr: 0x6344, symBinAddr: 0x100006CB4, symSize: 0x4C }
  - { offset: 0x17F09B, size: 0x8, addend: 0x0, symName: __ZNSt3__110unique_ptrI12OgaTokenizerNS_14default_deleteIS1_EEED1B8ne200100Ev, symObjAddr: 0x61E0, symBinAddr: 0x100006B50, symSize: 0x34 }
  - { offset: 0x17F140, size: 0x8, addend: 0x0, symName: __ZNSt3__110unique_ptrI8OgaModelNS_14default_deleteIS1_EEED1B8ne200100Ev, symObjAddr: 0x6100, symBinAddr: 0x100006A70, symSize: 0x34 }
  - { offset: 0x17F664, size: 0x8, addend: 0x0, symName: __ZNKSt3__121__murmur2_or_cityhashImLm64EEclB8ne200100EPKvm, symObjAddr: 0x8334, symBinAddr: 0x100008CA4, symSize: 0x44C }
  - { offset: 0x18001E, size: 0x8, addend: 0x0, symName: __ZNSt3__118basic_stringstreamIcNS_11char_traitsIcEENS_9allocatorIcEEEC1B8ne200100Ev, symObjAddr: 0x816C, symBinAddr: 0x100008ADC, symSize: 0x134 }
  - { offset: 0x180232, size: 0x8, addend: 0x0, symName: __ZNSt3__118basic_stringstreamIcNS_11char_traitsIcEENS_9allocatorIcEEED1Ev, symObjAddr: 0x82A0, symBinAddr: 0x100008C10, symSize: 0x94 }
  - { offset: 0x180689, size: 0x8, addend: 0x0, symName: __ZNSt3__112basic_stringIcNS_11char_traitsIcEENS_9allocatorIcEEE6appendB8ne200100IPKcLi0EEERS5_T_SA_, symObjAddr: 0x906C, symBinAddr: 0x1000099DC, symSize: 0x2A0 }
  - { offset: 0x181359, size: 0x8, addend: 0x0, symName: __ZNSt3__110unique_ptrI9OgaResultNS_14default_deleteIS1_EEED1B8ne200100Ev, symObjAddr: 0x9394, symBinAddr: 0x100009D04, symSize: 0x34 }
  - { offset: 0x18159A, size: 0x8, addend: 0x0, symName: __ZNSt3__16vectorINS_12basic_stringIcNS_11char_traitsIcEENS_9allocatorIcEEEENS4_IS6_EEE9push_backB8ne200100EOS6_, symObjAddr: 0x6390, symBinAddr: 0x100006D00, symSize: 0x148 }
  - { offset: 0x181A4B, size: 0x8, addend: 0x0, symName: __ZN7httplib6ServerD1Ev, symObjAddr: 0x64D8, symBinAddr: 0x100006E48, symSize: 0x4 }
  - { offset: 0x181A56, size: 0x8, addend: 0x0, symName: __ZN7httplib6ServerD1Ev, symObjAddr: 0x64D8, symBinAddr: 0x100006E48, symSize: 0x4 }
  - { offset: 0x181A79, size: 0x8, addend: 0x0, symName: __ZN7httplib6ServerD1Ev, symObjAddr: 0x64D8, symBinAddr: 0x100006E48, symSize: 0x4 }
  - { offset: 0x1828FB, size: 0x8, addend: 0x0, symName: __ZN18OgaTokenizerStream6CreateERK12OgaTokenizer, symObjAddr: 0x41C18, symBinAddr: 0x100041818, symSize: 0xAC }
  - { offset: 0x182A5A, size: 0x8, addend: 0x0, symName: __ZN12OgaSequences6CreateEv, symObjAddr: 0x41CC4, symBinAddr: 0x1000418C4, symSize: 0xAC }
  - { offset: 0x182BA2, size: 0x8, addend: 0x0, symName: __ZNK12OgaTokenizer6EncodeEPKcR12OgaSequences, symObjAddr: 0x41D70, symBinAddr: 0x100041970, symSize: 0x9C }
  - { offset: 0x182CF0, size: 0x8, addend: 0x0, symName: __ZN18OgaGeneratorParams6CreateERK8OgaModel, symObjAddr: 0x41E0C, symBinAddr: 0x100041A0C, symSize: 0xAC }
  - { offset: 0x182E4F, size: 0x8, addend: 0x0, symName: __ZN18OgaGeneratorParams15SetSearchOptionEPKcd, symObjAddr: 0x41EB8, symBinAddr: 0x100041AB8, symSize: 0x9C }
  - { offset: 0x182F82, size: 0x8, addend: 0x0, symName: __ZN12OgaGenerator6CreateERK8OgaModelR18OgaGeneratorParams, symObjAddr: 0x41F54, symBinAddr: 0x100041B54, symSize: 0xAC }
  - { offset: 0x1830F8, size: 0x8, addend: 0x0, symName: __ZN12OgaGenerator20AppendTokenSequencesERK12OgaSequences, symObjAddr: 0x42000, symBinAddr: 0x100041C00, symSize: 0x9C }
  - { offset: 0x183231, size: 0x8, addend: 0x0, symName: __ZN12OgaGenerator17GenerateNextTokenEv, symObjAddr: 0x420D0, symBinAddr: 0x100041CD0, symSize: 0x9C }
  - { offset: 0x1833B0, size: 0x8, addend: 0x0, symName: __ZL19get_openai_style_idv, symObjAddr: 0x3FE50, symBinAddr: 0x10003FAA8, symSize: 0x148 }
  - { offset: 0x183ADF, size: 0x8, addend: 0x0, symName: '__ZNSt3__110__function6__funcIZZZ4mainENK3$_0clERKN7httplib7RequestERNS3_8ResponseEENKUlmRNS3_8DataSinkEE_clEmSA_EUlRKNS_12basic_stringIcNS_11char_traitsIcEENS_9allocatorIcEEEEjE_NSF_ISK_EEFbSJ_jEED1Ev', symObjAddr: 0x4230C, symBinAddr: 0x100041EF8, symSize: 0x4 }
  - { offset: 0x183AEA, size: 0x8, addend: 0x0, symName: __ZNSt3__128__exception_guard_exceptionsINS_6vectorINS_12basic_stringIcNS_11char_traitsIcEENS_9allocatorIcEEEENS5_IS7_EEE16__destroy_vectorEED1B8ne200100Ev, symObjAddr: 0x42278, symBinAddr: 0x100041E78, symSize: 0x80 }
  - { offset: 0x183D50, size: 0x8, addend: 0x0, symName: __ZNSt3__110unique_ptrI18OgaTokenizerStreamNS_14default_deleteIS1_EEED1B8ne200100Ev, symObjAddr: 0x4209C, symBinAddr: 0x100041C9C, symSize: 0x34 }
  - { offset: 0x183DF5, size: 0x8, addend: 0x0, symName: __ZNSt3__16vectorINS_10unique_ptrI18OgaTokenizerStreamNS_14default_deleteIS2_EEEENS_9allocatorIS5_EEED1B8ne200100Ev, symObjAddr: 0x4216C, symBinAddr: 0x100041D6C, symSize: 0x70 }
  - { offset: 0x183FE9, size: 0x8, addend: 0x0, symName: __ZNSt3__110unique_ptrI12OgaGeneratorNS_14default_deleteIS1_EEED1B8ne200100Ev, symObjAddr: 0x421DC, symBinAddr: 0x100041DDC, symSize: 0x34 }
  - { offset: 0x18408E, size: 0x8, addend: 0x0, symName: __ZNSt3__110unique_ptrI18OgaGeneratorParamsNS_14default_deleteIS1_EEED1B8ne200100Ev, symObjAddr: 0x42210, symBinAddr: 0x100041E10, symSize: 0x34 }
  - { offset: 0x184133, size: 0x8, addend: 0x0, symName: __ZNSt3__110unique_ptrI12OgaSequencesNS_14default_deleteIS1_EEED1B8ne200100Ev, symObjAddr: 0x42244, symBinAddr: 0x100041E44, symSize: 0x34 }
  - { offset: 0x1841D8, size: 0x8, addend: 0x0, symName: __ZNSt12length_errorC1B8ne200100EPKc, symObjAddr: 0x7C5C, symBinAddr: 0x1000085CC, symSize: 0x24 }
  - { offset: 0x18429B, size: 0x8, addend: 0x0, symName: __ZNSt3__112basic_stringIcNS_11char_traitsIcEENS_9allocatorIcEEE17__assign_externalEPKcm, symObjAddr: 0x7CBC, symBinAddr: 0x10000862C, symSize: 0x174 }
  - { offset: 0x184733, size: 0x8, addend: 0x0, symName: __ZNSt3__112basic_stringIcNS_11char_traitsIcEENS_9allocatorIcEEE17__assign_externalEPKc, symObjAddr: 0x7E30, symBinAddr: 0x1000087A0, symSize: 0x34 }
  - { offset: 0x184B56, size: 0x8, addend: 0x0, symName: __ZNSt3__115basic_stringbufIcNS_11char_traitsIcEENS_9allocatorIcEEE15__init_buf_ptrsB8ne200100Ev, symObjAddr: 0x8A7C, symBinAddr: 0x1000093EC, symSize: 0x144 }
  - { offset: 0x1850C4, size: 0x8, addend: 0x0, symName: __ZNSt3__118basic_stringstreamIcNS_11char_traitsIcEENS_9allocatorIcEEED0Ev, symObjAddr: 0x8780, symBinAddr: 0x1000090F0, symSize: 0x94 }
  - { offset: 0x185273, size: 0x8, addend: 0x0, symName: __ZThn16_NSt3__118basic_stringstreamIcNS_11char_traitsIcEENS_9allocatorIcEEED1Ev, symObjAddr: 0x8814, symBinAddr: 0x100009184, symSize: 0x98 }
  - { offset: 0x185437, size: 0x8, addend: 0x0, symName: __ZThn16_NSt3__118basic_stringstreamIcNS_11char_traitsIcEENS_9allocatorIcEEED0Ev, symObjAddr: 0x88AC, symBinAddr: 0x10000921C, symSize: 0xA0 }
  - { offset: 0x1855FD, size: 0x8, addend: 0x0, symName: __ZTv0_n24_NSt3__118basic_stringstreamIcNS_11char_traitsIcEENS_9allocatorIcEEED1Ev, symObjAddr: 0x894C, symBinAddr: 0x1000092BC, symSize: 0x94 }
  - { offset: 0x1857A3, size: 0x8, addend: 0x0, symName: __ZTv0_n24_NSt3__118basic_stringstreamIcNS_11char_traitsIcEENS_9allocatorIcEEED0Ev, symObjAddr: 0x89E0, symBinAddr: 0x100009350, symSize: 0x9C }
  - { offset: 0x185A6D, size: 0x8, addend: 0x0, symName: __ZNSt3__115basic_stringbufIcNS_11char_traitsIcEENS_9allocatorIcEEED1Ev, symObjAddr: 0x8BC0, symBinAddr: 0x100009530, symSize: 0x58 }
  - { offset: 0x185BD3, size: 0x8, addend: 0x0, symName: __ZNSt3__115basic_stringbufIcNS_11char_traitsIcEENS_9allocatorIcEEED0Ev, symObjAddr: 0x8C18, symBinAddr: 0x100009588, symSize: 0x58 }
  - { offset: 0x185DFE, size: 0x8, addend: 0x0, symName: __ZNSt3__115basic_stringbufIcNS_11char_traitsIcEENS_9allocatorIcEEE7seekoffExNS_8ios_base7seekdirEj, symObjAddr: 0x8C70, symBinAddr: 0x1000095E0, symSize: 0x120 }
  - { offset: 0x186028, size: 0x8, addend: 0x0, symName: __ZNSt3__115basic_stringbufIcNS_11char_traitsIcEENS_9allocatorIcEEE7seekposENS_4fposI11__mbstate_tEEj, symObjAddr: 0x8D90, symBinAddr: 0x100009700, symSize: 0x18 }
  - { offset: 0x1860B1, size: 0x8, addend: 0x0, symName: __ZNSt3__115basic_stringbufIcNS_11char_traitsIcEENS_9allocatorIcEEE9underflowEv, symObjAddr: 0x8DA8, symBinAddr: 0x100009718, symSize: 0x50 }
  - { offset: 0x186153, size: 0x8, addend: 0x0, symName: __ZNSt3__115basic_stringbufIcNS_11char_traitsIcEENS_9allocatorIcEEE9pbackfailEi, symObjAddr: 0x8DF8, symBinAddr: 0x100009768, symSize: 0x6C }
  - { offset: 0x1862A3, size: 0x8, addend: 0x0, symName: __ZNSt3__115basic_stringbufIcNS_11char_traitsIcEENS_9allocatorIcEEE8overflowEi, symObjAddr: 0x8E64, symBinAddr: 0x1000097D4, symSize: 0x208 }
  - { offset: 0x186A9F, size: 0x8, addend: 0x0, symName: __ZN3Ort9ExceptionD1Ev, symObjAddr: 0x93C8, symBinAddr: 0x100009D38, symSize: 0x44 }
  - { offset: 0x186AC3, size: 0x8, addend: 0x0, symName: __ZN3Ort9ExceptionD1Ev, symObjAddr: 0x93C8, symBinAddr: 0x100009D38, symSize: 0x44 }
  - { offset: 0x186BF9, size: 0x8, addend: 0x0, symName: __ZN3Ort9ExceptionD0Ev, symObjAddr: 0x940C, symBinAddr: 0x100009D7C, symSize: 0x54 }
  - { offset: 0x186D48, size: 0x8, addend: 0x0, symName: __ZNK3Ort9Exception4whatEv, symObjAddr: 0x9460, symBinAddr: 0x100009DD0, symSize: 0x1C }
  - { offset: 0x186DF6, size: 0x8, addend: 0x0, symName: __ZNSt3__114__split_bufferINS_12basic_stringIcNS_11char_traitsIcEENS_9allocatorIcEEEERNS4_IS6_EEED1Ev, symObjAddr: 0x9490, symBinAddr: 0x100009DEC, symSize: 0x64 }
  - { offset: 0x186E61, size: 0x8, addend: 0x0, symName: __ZNSt3__114__split_bufferINS_12basic_stringIcNS_11char_traitsIcEENS_9allocatorIcEEEERNS4_IS6_EEED1Ev, symObjAddr: 0x9490, symBinAddr: 0x100009DEC, symSize: 0x64 }
  - { offset: 0x1880C2, size: 0x8, addend: 0x0, symName: __ZNSt3__118unordered_multimapINS_12basic_stringIcNS_11char_traitsIcEENS_9allocatorIcEEEES6_N7httplib6detail11case_ignore4hashENS9_8equal_toENS4_INS_4pairIKS6_S6_EEEEED1B8ne200100Ev, symObjAddr: 0x9BB8, symBinAddr: 0x10000A4EC, symSize: 0x84 }
  - { offset: 0x188596, size: 0x8, addend: 0x0, symName: __ZNSt3__16vectorINS_4pairINS_10unique_ptrIN7httplib6detail11MatcherBaseENS_14default_deleteIS5_EEEENS_8functionIFvRKNS3_7RequestERNS3_8ResponseEEEEEENS_9allocatorISH_EEED1B8ne200100Ev, symObjAddr: 0x9C3C, symBinAddr: 0x10000A570, symSize: 0xA0 }
  - { offset: 0x188A20, size: 0x8, addend: 0x0, symName: __ZNSt3__16__treeINS_12__value_typeINS_12basic_stringIcNS_11char_traitsIcEENS_9allocatorIcEEEES7_EENS_19__map_value_compareIS7_S8_NS_4lessIS7_EELb1EEENS5_IS8_EEE7destroyEPNS_11__tree_nodeIS8_PvEE, symObjAddr: 0xB320, symBinAddr: 0x10000BB1C, symSize: 0x78 }
  - { offset: 0x188D4F, size: 0x8, addend: 0x0, symName: __ZNSt3__16vectorIN7httplib6Server15MountPointEntryENS_9allocatorIS3_EEED1B8ne200100Ev, symObjAddr: 0x9D7C, symBinAddr: 0x10000A610, symSize: 0x60 }
  - { offset: 0x188FC0, size: 0x8, addend: 0x0, symName: __ZNSt3__112basic_stringIcNS_11char_traitsIcEENS_9allocatorIcEEE17__assign_no_aliasILb1EEERS5_PKcm, symObjAddr: 0xAF8C, symBinAddr: 0x10000B80C, symSize: 0xBC }
  - { offset: 0x189299, size: 0x8, addend: 0x0, symName: __ZNSt3__112basic_stringIcNS_11char_traitsIcEENS_9allocatorIcEEE17__assign_no_aliasILb0EEERS5_PKcm, symObjAddr: 0xB048, symBinAddr: 0x10000B8C8, symSize: 0x114 }
  - { offset: 0x189984, size: 0x8, addend: 0x0, symName: __ZN7httplib6ServerD0Ev, symObjAddr: 0x9DDC, symBinAddr: 0x10000A670, symSize: 0x14 }
  - { offset: 0x1899E1, size: 0x8, addend: 0x0, symName: __ZNK7httplib6Server8is_validEv, symObjAddr: 0x9DF0, symBinAddr: 0x10000A684, symSize: 0x8 }
  - { offset: 0x189AFA, size: 0x8, addend: 0x0, symName: __ZN7httplib6Server24process_and_close_socketEi, symObjAddr: 0x9DF8, symBinAddr: 0x10000A68C, symSize: 0x294 }
  - { offset: 0x18A458, size: 0x8, addend: 0x0, symName: __ZNSt3__110__function6__funcIZN7httplib6ServerC1EvEUlvE_NS_9allocatorIS4_EEFPNS2_9TaskQueueEvEED1Ev, symObjAddr: 0xA08C, symBinAddr: 0x10000A920, symSize: 0x4 }
  - { offset: 0x18A484, size: 0x8, addend: 0x0, symName: __ZNSt3__110__function6__funcIZN7httplib6ServerC1EvEUlvE_NS_9allocatorIS4_EEFPNS2_9TaskQueueEvEED0Ev, symObjAddr: 0xA090, symBinAddr: 0x10000A924, symSize: 0x4 }
  - { offset: 0x18A53B, size: 0x8, addend: 0x0, symName: __ZNKSt3__110__function6__funcIZN7httplib6ServerC1EvEUlvE_NS_9allocatorIS4_EEFPNS2_9TaskQueueEvEE7__cloneEv, symObjAddr: 0xA094, symBinAddr: 0x10000A928, symSize: 0x24 }
  - { offset: 0x18A68B, size: 0x8, addend: 0x0, symName: __ZNKSt3__110__function6__funcIZN7httplib6ServerC1EvEUlvE_NS_9allocatorIS4_EEFPNS2_9TaskQueueEvEE7__cloneEPNS0_6__baseIS9_EE, symObjAddr: 0xA0B8, symBinAddr: 0x10000A94C, symSize: 0x10 }
  - { offset: 0x18A6C1, size: 0x8, addend: 0x0, symName: __ZNKSt3__110__function6__funcIZN7httplib6ServerC1EvEUlvE_NS_9allocatorIS4_EEFPNS2_9TaskQueueEvEE7__cloneEPNS0_6__baseIS9_EE, symObjAddr: 0xA0B8, symBinAddr: 0x10000A94C, symSize: 0x10 }
  - { offset: 0x18A6EF, size: 0x8, addend: 0x0, symName: __ZNKSt3__110__function6__funcIZN7httplib6ServerC1EvEUlvE_NS_9allocatorIS4_EEFPNS2_9TaskQueueEvEE7__cloneEPNS0_6__baseIS9_EE, symObjAddr: 0xA0B8, symBinAddr: 0x10000A94C, symSize: 0x10 }
  - { offset: 0x18A71D, size: 0x8, addend: 0x0, symName: __ZNSt3__110__function6__funcIZN7httplib6ServerC1EvEUlvE_NS_9allocatorIS4_EEFPNS2_9TaskQueueEvEE7destroyEv, symObjAddr: 0xA0C8, symBinAddr: 0x10000A95C, symSize: 0x4 }
  - { offset: 0x18A774, size: 0x8, addend: 0x0, symName: __ZNSt3__110__function6__funcIZN7httplib6ServerC1EvEUlvE_NS_9allocatorIS4_EEFPNS2_9TaskQueueEvEE18destroy_deallocateEv, symObjAddr: 0xA0CC, symBinAddr: 0x10000A960, symSize: 0x4 }
  - { offset: 0x18A7A7, size: 0x8, addend: 0x0, symName: __ZNSt3__110__function6__funcIZN7httplib6ServerC1EvEUlvE_NS_9allocatorIS4_EEFPNS2_9TaskQueueEvEE18destroy_deallocateEv, symObjAddr: 0xA0CC, symBinAddr: 0x10000A960, symSize: 0x4 }
  - { offset: 0x18A7CA, size: 0x8, addend: 0x0, symName: __ZNSt3__110__function6__funcIZN7httplib6ServerC1EvEUlvE_NS_9allocatorIS4_EEFPNS2_9TaskQueueEvEE18destroy_deallocateEv, symObjAddr: 0xA0CC, symBinAddr: 0x10000A960, symSize: 0x4 }
  - { offset: 0x18A7FD, size: 0x8, addend: 0x0, symName: __ZNSt3__110__function6__funcIZN7httplib6ServerC1EvEUlvE_NS_9allocatorIS4_EEFPNS2_9TaskQueueEvEE18destroy_deallocateEv, symObjAddr: 0xA0CC, symBinAddr: 0x10000A960, symSize: 0x4 }
  - { offset: 0x18A8BF, size: 0x8, addend: 0x0, symName: __ZNSt3__110__function6__funcIZN7httplib6ServerC1EvEUlvE_NS_9allocatorIS4_EEFPNS2_9TaskQueueEvEEclEv, symObjAddr: 0xA0D0, symBinAddr: 0x10000A964, symSize: 0x68 }
  - { offset: 0x18A9A0, size: 0x8, addend: 0x0, symName: __ZN7httplib10ThreadPoolC2Emm, symObjAddr: 0xA1A8, symBinAddr: 0x10000AA3C, symSize: 0x160 }
  - { offset: 0x18AEF6, size: 0x8, addend: 0x0, symName: __ZNKSt3__110__function6__funcIZN7httplib6ServerC1EvEUlvE_NS_9allocatorIS4_EEFPNS2_9TaskQueueEvEE6targetERKSt9type_info, symObjAddr: 0xA138, symBinAddr: 0x10000A9CC, symSize: 0x64 }
  - { offset: 0x18AFC0, size: 0x8, addend: 0x0, symName: __ZNKSt3__110__function6__funcIZN7httplib6ServerC1EvEUlvE_NS_9allocatorIS4_EEFPNS2_9TaskQueueEvEE11target_typeEv, symObjAddr: 0xA19C, symBinAddr: 0x10000AA30, symSize: 0xC }
  - { offset: 0x18B398, size: 0x8, addend: 0x0, symName: __ZNSt3__16threadC2IN7httplib10ThreadPool6workerEJELi0EEEOT_DpOT0_, symObjAddr: 0xA780, symBinAddr: 0x10000B000, symSize: 0xCC }
  - { offset: 0x18B63C, size: 0x8, addend: 0x0, symName: __ZNSt3__16vectorINS_6threadENS_9allocatorIS1_EEE24__emplace_back_slow_pathIJN7httplib10ThreadPool6workerEEEEPS1_DpOT_, symObjAddr: 0xA5C8, symBinAddr: 0x10000AE48, symSize: 0x1B8 }
  - { offset: 0x18BB58, size: 0x8, addend: 0x0, symName: __ZNSt3__114__split_bufferINS_6threadERNS_9allocatorIS1_EEED1Ev, symObjAddr: 0xA578, symBinAddr: 0x10000ADF8, symSize: 0x50 }
  - { offset: 0x18BB63, size: 0x8, addend: 0x0, symName: __ZNSt3__14listINS_8functionIFvvEEENS_9allocatorIS3_EEED1Ev, symObjAddr: 0xA308, symBinAddr: 0x10000AB9C, symSize: 0x94 }
  - { offset: 0x18BDB6, size: 0x8, addend: 0x0, symName: __ZNSt3__16vectorINS_6threadENS_9allocatorIS1_EEED1B8ne200100Ev, symObjAddr: 0xA39C, symBinAddr: 0x10000AC30, symSize: 0x58 }
  - { offset: 0x18C240, size: 0x8, addend: 0x0, symName: __ZN7httplib10ThreadPoolD1Ev, symObjAddr: 0xA3F4, symBinAddr: 0x10000AC88, symSize: 0x4 }
  - { offset: 0x18C263, size: 0x8, addend: 0x0, symName: __ZN7httplib10ThreadPoolD1Ev, symObjAddr: 0xA3F4, symBinAddr: 0x10000AC88, symSize: 0x4 }
  - { offset: 0x18C276, size: 0x8, addend: 0x0, symName: __ZN7httplib10ThreadPoolD2Ev, symObjAddr: 0xADC0, symBinAddr: 0x10000B640, symSize: 0xE0 }
  - { offset: 0x18C672, size: 0x8, addend: 0x0, symName: __ZN7httplib10ThreadPoolD0Ev, symObjAddr: 0xA3F8, symBinAddr: 0x10000AC8C, symSize: 0x14 }
  - { offset: 0x18CA7F, size: 0x8, addend: 0x0, symName: __ZN7httplib10ThreadPool7enqueueENSt3__18functionIFvvEEE, symObjAddr: 0xA40C, symBinAddr: 0x10000ACA0, symSize: 0xF8 }
  - { offset: 0x18CE76, size: 0x8, addend: 0x0, symName: __ZN7httplib10ThreadPool8shutdownEv, symObjAddr: 0xA504, symBinAddr: 0x10000AD98, symSize: 0x5C }
  - { offset: 0x18CF9C, size: 0x8, addend: 0x0, symName: __ZN7httplib9TaskQueue7on_idleEv, symObjAddr: 0xA560, symBinAddr: 0x10000ADF4, symSize: 0x4 }
  - { offset: 0x18D03B, size: 0x8, addend: 0x0, symName: __ZNSt3__114__split_bufferINS_6threadERNS_9allocatorIS1_EEED1Ev, symObjAddr: 0xA578, symBinAddr: 0x10000ADF8, symSize: 0x50 }
  - { offset: 0x18D62B, size: 0x8, addend: 0x0, symName: __ZNSt3__110unique_ptrINS_15__thread_structENS_14default_deleteIS1_EEED1B8ne200100Ev, symObjAddr: 0xA90C, symBinAddr: 0x10000B18C, symSize: 0x3C }
  - { offset: 0x18D702, size: 0x8, addend: 0x0, symName: __ZNSt3__110unique_ptrINS_5tupleIJNS0_INS_15__thread_structENS_14default_deleteIS2_EEEEN7httplib10ThreadPool6workerEEEENS3_IS9_EEED1B8ne200100Ev, symObjAddr: 0xA8C4, symBinAddr: 0x10000B144, symSize: 0x48 }
  - { offset: 0x18DB2E, size: 0x8, addend: 0x0, symName: __ZN7httplib10ThreadPool6workerclEv, symObjAddr: 0xA948, symBinAddr: 0x10000B1C8, symSize: 0x294 }
  - { offset: 0x18E507, size: 0x8, addend: 0x0, symName: __ZNSt3__110__function12__value_funcIFvvEE4swapB8ne200100ERS3_, symObjAddr: 0xABDC, symBinAddr: 0x10000B45C, symSize: 0x198 }
  - { offset: 0x18E6AC, size: 0x8, addend: 0x0, symName: __ZNSt3__117bad_function_callD1Ev, symObjAddr: 0xADA8, symBinAddr: 0x10000B628, symSize: 0x4 }
  - { offset: 0x18E6CE, size: 0x8, addend: 0x0, symName: __ZNSt3__117bad_function_callD1Ev, symObjAddr: 0xADA8, symBinAddr: 0x10000B628, symSize: 0x4 }
  - { offset: 0x18E702, size: 0x8, addend: 0x0, symName: __ZNSt3__117bad_function_callD0Ev, symObjAddr: 0xADAC, symBinAddr: 0x10000B62C, symSize: 0x14 }
  - { offset: 0x18E79A, size: 0x8, addend: 0x0, symName: __ZNSt3__110__function6__funcIPFviENS_9allocatorIS3_EES2_ED1Ev, symObjAddr: 0xAEA0, symBinAddr: 0x10000B720, symSize: 0x4 }
  - { offset: 0x18E7C6, size: 0x8, addend: 0x0, symName: __ZNSt3__110__function6__funcIPFviENS_9allocatorIS3_EES2_ED0Ev, symObjAddr: 0xAEA4, symBinAddr: 0x10000B724, symSize: 0x4 }
  - { offset: 0x18E8DD, size: 0x8, addend: 0x0, symName: __ZNKSt3__110__function6__funcIPFviENS_9allocatorIS3_EES2_E7__cloneEv, symObjAddr: 0xAEA8, symBinAddr: 0x10000B728, symSize: 0x38 }
  - { offset: 0x18EADC, size: 0x8, addend: 0x0, symName: __ZNKSt3__110__function6__funcIPFviENS_9allocatorIS3_EES2_E7__cloneEPNS0_6__baseIS2_EE, symObjAddr: 0xAEE0, symBinAddr: 0x10000B760, symSize: 0x18 }
  - { offset: 0x18EB12, size: 0x8, addend: 0x0, symName: __ZNKSt3__110__function6__funcIPFviENS_9allocatorIS3_EES2_E7__cloneEPNS0_6__baseIS2_EE, symObjAddr: 0xAEE0, symBinAddr: 0x10000B760, symSize: 0x18 }
  - { offset: 0x18EB40, size: 0x8, addend: 0x0, symName: __ZNKSt3__110__function6__funcIPFviENS_9allocatorIS3_EES2_E7__cloneEPNS0_6__baseIS2_EE, symObjAddr: 0xAEE0, symBinAddr: 0x10000B760, symSize: 0x18 }
  - { offset: 0x18EB98, size: 0x8, addend: 0x0, symName: __ZNSt3__110__function6__funcIPFviENS_9allocatorIS3_EES2_E7destroyEv, symObjAddr: 0xAEF8, symBinAddr: 0x10000B778, symSize: 0x4 }
  - { offset: 0x18EBEF, size: 0x8, addend: 0x0, symName: __ZNSt3__110__function6__funcIPFviENS_9allocatorIS3_EES2_E18destroy_deallocateEv, symObjAddr: 0xAEFC, symBinAddr: 0x10000B77C, symSize: 0x4 }
  - { offset: 0x18EC22, size: 0x8, addend: 0x0, symName: __ZNSt3__110__function6__funcIPFviENS_9allocatorIS3_EES2_E18destroy_deallocateEv, symObjAddr: 0xAEFC, symBinAddr: 0x10000B77C, symSize: 0x4 }
  - { offset: 0x18EC45, size: 0x8, addend: 0x0, symName: __ZNSt3__110__function6__funcIPFviENS_9allocatorIS3_EES2_E18destroy_deallocateEv, symObjAddr: 0xAEFC, symBinAddr: 0x10000B77C, symSize: 0x4 }
  - { offset: 0x18EC78, size: 0x8, addend: 0x0, symName: __ZNSt3__110__function6__funcIPFviENS_9allocatorIS3_EES2_E18destroy_deallocateEv, symObjAddr: 0xAEFC, symBinAddr: 0x10000B77C, symSize: 0x4 }
  - { offset: 0x18ECF8, size: 0x8, addend: 0x0, symName: __ZNSt3__110__function6__funcIPFviENS_9allocatorIS3_EES2_EclEOi, symObjAddr: 0xAF00, symBinAddr: 0x10000B780, symSize: 0xC }
  - { offset: 0x18ED30, size: 0x8, addend: 0x0, symName: __ZNSt3__110__function6__funcIPFviENS_9allocatorIS3_EES2_EclEOi, symObjAddr: 0xAF00, symBinAddr: 0x10000B780, symSize: 0xC }
  - { offset: 0x18ED55, size: 0x8, addend: 0x0, symName: __ZNSt3__110__function6__funcIPFviENS_9allocatorIS3_EES2_EclEOi, symObjAddr: 0xAF00, symBinAddr: 0x10000B780, symSize: 0xC }
  - { offset: 0x18ED79, size: 0x8, addend: 0x0, symName: __ZNSt3__110__function6__funcIPFviENS_9allocatorIS3_EES2_EclEOi, symObjAddr: 0xAF00, symBinAddr: 0x10000B780, symSize: 0xC }
  - { offset: 0x18ED9E, size: 0x8, addend: 0x0, symName: __ZNSt3__110__function6__funcIPFviENS_9allocatorIS3_EES2_EclEOi, symObjAddr: 0xAF00, symBinAddr: 0x10000B780, symSize: 0xC }
  - { offset: 0x18EDD0, size: 0x8, addend: 0x0, symName: __ZNKSt3__110__function6__funcIPFviENS_9allocatorIS3_EES2_E6targetERKSt9type_info, symObjAddr: 0xAF0C, symBinAddr: 0x10000B78C, symSize: 0x74 }
  - { offset: 0x18EE7D, size: 0x8, addend: 0x0, symName: __ZNKSt3__110__function6__funcIPFviENS_9allocatorIS3_EES2_E11target_typeEv, symObjAddr: 0xAF80, symBinAddr: 0x10000B800, symSize: 0xC }
  - { offset: 0x18EEA4, size: 0x8, addend: 0x0, symName: __ZNSt3__112basic_stringIcNS_11char_traitsIcEENS_9allocatorIcEEE17__assign_no_aliasILb0EEERS5_PKcm, symObjAddr: 0xB048, symBinAddr: 0x10000B8C8, symSize: 0x114 }
  - { offset: 0x18F279, size: 0x8, addend: 0x0, symName: __ZNSt3__110__function6__funcIPFlRN7httplib6StreamERKNS_18unordered_multimapINS_12basic_stringIcNS_11char_traitsIcEENS_9allocatorIcEEEESB_NS2_6detail11case_ignore4hashENSD_8equal_toENS9_INS_4pairIKSB_SB_EEEEEEENS9_ISO_EEFlS4_RSK_EED1Ev, symObjAddr: 0xB15C, symBinAddr: 0x10000B9DC, symSize: 0x4 }
  - { offset: 0x18F28E, size: 0x8, addend: 0x0, symName: __ZNSt3__110__function6__funcIPFlRN7httplib6StreamERKNS_18unordered_multimapINS_12basic_stringIcNS_11char_traitsIcEENS_9allocatorIcEEEESB_NS2_6detail11case_ignore4hashENSD_8equal_toENS9_INS_4pairIKSB_SB_EEEEEEENS9_ISO_EEFlS4_RSK_EED1Ev, symObjAddr: 0xB15C, symBinAddr: 0x10000B9DC, symSize: 0x4 }
  - { offset: 0x18F2BA, size: 0x8, addend: 0x0, symName: __ZNSt3__110__function6__funcIPFlRN7httplib6StreamERKNS_18unordered_multimapINS_12basic_stringIcNS_11char_traitsIcEENS_9allocatorIcEEEESB_NS2_6detail11case_ignore4hashENSD_8equal_toENS9_INS_4pairIKSB_SB_EEEEEEENS9_ISO_EEFlS4_RSK_EED0Ev, symObjAddr: 0xB160, symBinAddr: 0x10000B9E0, symSize: 0x4 }
  - { offset: 0x18F3D1, size: 0x8, addend: 0x0, symName: __ZNKSt3__110__function6__funcIPFlRN7httplib6StreamERKNS_18unordered_multimapINS_12basic_stringIcNS_11char_traitsIcEENS_9allocatorIcEEEESB_NS2_6detail11case_ignore4hashENSD_8equal_toENS9_INS_4pairIKSB_SB_EEEEEEENS9_ISO_EEFlS4_RSK_EE7__cloneEv, symObjAddr: 0xB164, symBinAddr: 0x10000B9E4, symSize: 0x34 }
  - { offset: 0x18F5D0, size: 0x8, addend: 0x0, symName: __ZNKSt3__110__function6__funcIPFlRN7httplib6StreamERKNS_18unordered_multimapINS_12basic_stringIcNS_11char_traitsIcEENS_9allocatorIcEEEESB_NS2_6detail11case_ignore4hashENSD_8equal_toENS9_INS_4pairIKSB_SB_EEEEEEENS9_ISO_EEFlS4_RSK_EE7__cloneEPNS0_6__baseISR_EE, symObjAddr: 0xB198, symBinAddr: 0x10000BA18, symSize: 0x14 }
  - { offset: 0x18F606, size: 0x8, addend: 0x0, symName: __ZNKSt3__110__function6__funcIPFlRN7httplib6StreamERKNS_18unordered_multimapINS_12basic_stringIcNS_11char_traitsIcEENS_9allocatorIcEEEESB_NS2_6detail11case_ignore4hashENSD_8equal_toENS9_INS_4pairIKSB_SB_EEEEEEENS9_ISO_EEFlS4_RSK_EE7__cloneEPNS0_6__baseISR_EE, symObjAddr: 0xB198, symBinAddr: 0x10000BA18, symSize: 0x14 }
  - { offset: 0x18F634, size: 0x8, addend: 0x0, symName: __ZNKSt3__110__function6__funcIPFlRN7httplib6StreamERKNS_18unordered_multimapINS_12basic_stringIcNS_11char_traitsIcEENS_9allocatorIcEEEESB_NS2_6detail11case_ignore4hashENSD_8equal_toENS9_INS_4pairIKSB_SB_EEEEEEENS9_ISO_EEFlS4_RSK_EE7__cloneEPNS0_6__baseISR_EE, symObjAddr: 0xB198, symBinAddr: 0x10000BA18, symSize: 0x14 }
  - { offset: 0x18F662, size: 0x8, addend: 0x0, symName: __ZNKSt3__110__function6__funcIPFlRN7httplib6StreamERKNS_18unordered_multimapINS_12basic_stringIcNS_11char_traitsIcEENS_9allocatorIcEEEESB_NS2_6detail11case_ignore4hashENSD_8equal_toENS9_INS_4pairIKSB_SB_EEEEEEENS9_ISO_EEFlS4_RSK_EE7__cloneEPNS0_6__baseISR_EE, symObjAddr: 0xB198, symBinAddr: 0x10000BA18, symSize: 0x14 }
  - { offset: 0x18F677, size: 0x8, addend: 0x0, symName: __ZNKSt3__110__function6__funcIPFlRN7httplib6StreamERKNS_18unordered_multimapINS_12basic_stringIcNS_11char_traitsIcEENS_9allocatorIcEEEESB_NS2_6detail11case_ignore4hashENSD_8equal_toENS9_INS_4pairIKSB_SB_EEEEEEENS9_ISO_EEFlS4_RSK_EE7__cloneEPNS0_6__baseISR_EE, symObjAddr: 0xB198, symBinAddr: 0x10000BA18, symSize: 0x14 }
  - { offset: 0x18F68C, size: 0x8, addend: 0x0, symName: __ZNSt3__110__function6__funcIPFlRN7httplib6StreamERKNS_18unordered_multimapINS_12basic_stringIcNS_11char_traitsIcEENS_9allocatorIcEEEESB_NS2_6detail11case_ignore4hashENSD_8equal_toENS9_INS_4pairIKSB_SB_EEEEEEENS9_ISO_EEFlS4_RSK_EE7destroyEv, symObjAddr: 0xB1AC, symBinAddr: 0x10000BA2C, symSize: 0x4 }
  - { offset: 0x18F6E3, size: 0x8, addend: 0x0, symName: __ZNSt3__110__function6__funcIPFlRN7httplib6StreamERKNS_18unordered_multimapINS_12basic_stringIcNS_11char_traitsIcEENS_9allocatorIcEEEESB_NS2_6detail11case_ignore4hashENSD_8equal_toENS9_INS_4pairIKSB_SB_EEEEEEENS9_ISO_EEFlS4_RSK_EE18destroy_deallocateEv, symObjAddr: 0xB1B0, symBinAddr: 0x10000BA30, symSize: 0x4 }
  - { offset: 0x18F716, size: 0x8, addend: 0x0, symName: __ZNSt3__110__function6__funcIPFlRN7httplib6StreamERKNS_18unordered_multimapINS_12basic_stringIcNS_11char_traitsIcEENS_9allocatorIcEEEESB_NS2_6detail11case_ignore4hashENSD_8equal_toENS9_INS_4pairIKSB_SB_EEEEEEENS9_ISO_EEFlS4_RSK_EE18destroy_deallocateEv, symObjAddr: 0xB1B0, symBinAddr: 0x10000BA30, symSize: 0x4 }
  - { offset: 0x18F739, size: 0x8, addend: 0x0, symName: __ZNSt3__110__function6__funcIPFlRN7httplib6StreamERKNS_18unordered_multimapINS_12basic_stringIcNS_11char_traitsIcEENS_9allocatorIcEEEESB_NS2_6detail11case_ignore4hashENSD_8equal_toENS9_INS_4pairIKSB_SB_EEEEEEENS9_ISO_EEFlS4_RSK_EE18destroy_deallocateEv, symObjAddr: 0xB1B0, symBinAddr: 0x10000BA30, symSize: 0x4 }
  - { offset: 0x18F76C, size: 0x8, addend: 0x0, symName: __ZNSt3__110__function6__funcIPFlRN7httplib6StreamERKNS_18unordered_multimapINS_12basic_stringIcNS_11char_traitsIcEENS_9allocatorIcEEEESB_NS2_6detail11case_ignore4hashENSD_8equal_toENS9_INS_4pairIKSB_SB_EEEEEEENS9_ISO_EEFlS4_RSK_EE18destroy_deallocateEv, symObjAddr: 0xB1B0, symBinAddr: 0x10000BA30, symSize: 0x4 }
  - { offset: 0x18F808, size: 0x8, addend: 0x0, symName: __ZNSt3__110__function6__funcIPFlRN7httplib6StreamERKNS_18unordered_multimapINS_12basic_stringIcNS_11char_traitsIcEENS_9allocatorIcEEEESB_NS2_6detail11case_ignore4hashENSD_8equal_toENS9_INS_4pairIKSB_SB_EEEEEEENS9_ISO_EEFlS4_RSK_EEclES4_SQ_, symObjAddr: 0xB1B4, symBinAddr: 0x10000BA34, symSize: 0x10 }
  - { offset: 0x18F851, size: 0x8, addend: 0x0, symName: __ZNSt3__110__function6__funcIPFlRN7httplib6StreamERKNS_18unordered_multimapINS_12basic_stringIcNS_11char_traitsIcEENS_9allocatorIcEEEESB_NS2_6detail11case_ignore4hashENSD_8equal_toENS9_INS_4pairIKSB_SB_EEEEEEENS9_ISO_EEFlS4_RSK_EEclES4_SQ_, symObjAddr: 0xB1B4, symBinAddr: 0x10000BA34, symSize: 0x10 }
  - { offset: 0x18F87F, size: 0x8, addend: 0x0, symName: __ZNSt3__110__function6__funcIPFlRN7httplib6StreamERKNS_18unordered_multimapINS_12basic_stringIcNS_11char_traitsIcEENS_9allocatorIcEEEESB_NS2_6detail11case_ignore4hashENSD_8equal_toENS9_INS_4pairIKSB_SB_EEEEEEENS9_ISO_EEFlS4_RSK_EEclES4_SQ_, symObjAddr: 0xB1B4, symBinAddr: 0x10000BA34, symSize: 0x10 }
  - { offset: 0x18F8AC, size: 0x8, addend: 0x0, symName: __ZNSt3__110__function6__funcIPFlRN7httplib6StreamERKNS_18unordered_multimapINS_12basic_stringIcNS_11char_traitsIcEENS_9allocatorIcEEEESB_NS2_6detail11case_ignore4hashENSD_8equal_toENS9_INS_4pairIKSB_SB_EEEEEEENS9_ISO_EEFlS4_RSK_EEclES4_SQ_, symObjAddr: 0xB1B4, symBinAddr: 0x10000BA34, symSize: 0x10 }
  - { offset: 0x18F8DA, size: 0x8, addend: 0x0, symName: __ZNSt3__110__function6__funcIPFlRN7httplib6StreamERKNS_18unordered_multimapINS_12basic_stringIcNS_11char_traitsIcEENS_9allocatorIcEEEESB_NS2_6detail11case_ignore4hashENSD_8equal_toENS9_INS_4pairIKSB_SB_EEEEEEENS9_ISO_EEFlS4_RSK_EEclES4_SQ_, symObjAddr: 0xB1B4, symBinAddr: 0x10000BA34, symSize: 0x10 }
  - { offset: 0x18F924, size: 0x8, addend: 0x0, symName: __ZNKSt3__110__function6__funcIPFlRN7httplib6StreamERKNS_18unordered_multimapINS_12basic_stringIcNS_11char_traitsIcEENS_9allocatorIcEEEESB_NS2_6detail11case_ignore4hashENSD_8equal_toENS9_INS_4pairIKSB_SB_EEEEEEENS9_ISO_EEFlS4_RSK_EE6targetERKSt9type_info, symObjAddr: 0xB1C4, symBinAddr: 0x10000BA44, symSize: 0x64 }
  - { offset: 0x18F9D7, size: 0x8, addend: 0x0, symName: __ZNKSt3__110__function6__funcIPFlRN7httplib6StreamERKNS_18unordered_multimapINS_12basic_stringIcNS_11char_traitsIcEENS_9allocatorIcEEEESB_NS2_6detail11case_ignore4hashENSD_8equal_toENS9_INS_4pairIKSB_SB_EEEEEEENS9_ISO_EEFlS4_RSK_EE11target_typeEv, symObjAddr: 0xB228, symBinAddr: 0x10000BAA8, symSize: 0xC }
  - { offset: 0x18FCDF, size: 0x8, addend: 0x0, symName: __ZNSt3__112__hash_tableINS_17__hash_value_typeINS_12basic_stringIcNS_11char_traitsIcEENS_9allocatorIcEEEES7_EENS_22__unordered_map_hasherIS7_S8_N7httplib6detail11case_ignore4hashENSC_8equal_toELb1EEENS_21__unordered_map_equalIS7_S8_SE_SD_Lb1EEENS5_IS8_EEE17__deallocate_nodeEPNS_16__hash_node_baseIPNS_11__hash_nodeIS8_PvEEEE, symObjAddr: 0xB2B8, symBinAddr: 0x10000BAB4, symSize: 0x68 }
  - { offset: 0x190186, size: 0x8, addend: 0x0, symName: __ZZN7httplib6detail21process_server_socketIZNS_6Server24process_and_close_socketEiEUlRNS_6StreamEbRbE_EEbRKNSt3__16atomicIiEEimlllllT_ENKUlbS5_E_clEbS5_, symObjAddr: 0xB54C, symBinAddr: 0x10000BD48, symSize: 0x190 }
  - { offset: 0x1908D8, size: 0x8, addend: 0x0, symName: __ZN7httplib6detail26process_server_socket_coreIZNS0_21process_server_socketIZNS_6Server24process_and_close_socketEiEUlRNS_6StreamEbRbE_EEbRKNSt3__16atomicIiEEimlllllT_EUlbS6_E_EEbSC_imlSD_.cold.1, symObjAddr: 0x45A54, symBinAddr: 0x1000B2EEC, symSize: 0x28 }
  - { offset: 0x190EDB, size: 0x8, addend: 0x0, symName: __ZN7httplib6detail12SocketStreamD1Ev, symObjAddr: 0xB7E4, symBinAddr: 0x10000BFE0, symSize: 0x34 }
  - { offset: 0x190EFF, size: 0x8, addend: 0x0, symName: __ZN7httplib6detail12SocketStreamD1Ev, symObjAddr: 0xB7E4, symBinAddr: 0x10000BFE0, symSize: 0x34 }
  - { offset: 0x190F1D, size: 0x8, addend: 0x0, symName: __ZN7httplib6detail12SocketStreamD1Ev, symObjAddr: 0xB7E4, symBinAddr: 0x10000BFE0, symSize: 0x34 }
  - { offset: 0x190F3B, size: 0x8, addend: 0x0, symName: __ZN7httplib6detail12SocketStreamD1Ev, symObjAddr: 0xB7E4, symBinAddr: 0x10000BFE0, symSize: 0x34 }
  - { offset: 0x190F59, size: 0x8, addend: 0x0, symName: __ZN7httplib6detail12SocketStreamD1Ev, symObjAddr: 0xB7E4, symBinAddr: 0x10000BFE0, symSize: 0x34 }
  - { offset: 0x191048, size: 0x8, addend: 0x0, symName: __ZN7httplib6detail12SocketStreamD0Ev, symObjAddr: 0xB818, symBinAddr: 0x10000C014, symSize: 0x34 }
  - { offset: 0x191077, size: 0x8, addend: 0x0, symName: __ZN7httplib6detail12SocketStreamD0Ev, symObjAddr: 0xB818, symBinAddr: 0x10000C014, symSize: 0x34 }
  - { offset: 0x191095, size: 0x8, addend: 0x0, symName: __ZN7httplib6detail12SocketStreamD0Ev, symObjAddr: 0xB818, symBinAddr: 0x10000C014, symSize: 0x34 }
  - { offset: 0x1910B3, size: 0x8, addend: 0x0, symName: __ZN7httplib6detail12SocketStreamD0Ev, symObjAddr: 0xB818, symBinAddr: 0x10000C014, symSize: 0x34 }
  - { offset: 0x1910D1, size: 0x8, addend: 0x0, symName: __ZN7httplib6detail12SocketStreamD0Ev, symObjAddr: 0xB818, symBinAddr: 0x10000C014, symSize: 0x34 }
  - { offset: 0x1910EF, size: 0x8, addend: 0x0, symName: __ZN7httplib6detail12SocketStreamD0Ev, symObjAddr: 0xB818, symBinAddr: 0x10000C014, symSize: 0x34 }
  - { offset: 0x1911DF, size: 0x8, addend: 0x0, symName: __ZNK7httplib6detail12SocketStream11is_readableEv, symObjAddr: 0xB84C, symBinAddr: 0x10000C048, symSize: 0x10 }
  - { offset: 0x191269, size: 0x8, addend: 0x0, symName: __ZNK7httplib6detail12SocketStream13wait_readableEv, symObjAddr: 0xB85C, symBinAddr: 0x10000C058, symSize: 0xCC }
  - { offset: 0x19139C, size: 0x8, addend: 0x0, symName: __ZNK7httplib6detail12SocketStream13wait_writableEv, symObjAddr: 0xB928, symBinAddr: 0x10000C124, symSize: 0x44 }
  - { offset: 0x191475, size: 0x8, addend: 0x0, symName: __ZN7httplib6detail12SocketStream4readEPcm, symObjAddr: 0xB96C, symBinAddr: 0x10000C168, symSize: 0x274 }
  - { offset: 0x1918FE, size: 0x8, addend: 0x0, symName: __ZN7httplib6detail12SocketStream5writeEPKcm, symObjAddr: 0xBBE0, symBinAddr: 0x10000C3DC, symSize: 0xD4 }
  - { offset: 0x191ADE, size: 0x8, addend: 0x0, symName: __ZNK7httplib6detail12SocketStream22get_remote_ip_and_portERNSt3__112basic_stringIcNS2_11char_traitsIcEENS2_9allocatorIcEEEERi, symObjAddr: 0xBCB4, symBinAddr: 0x10000C4B0, symSize: 0xE0 }
  - { offset: 0x191C5C, size: 0x8, addend: 0x0, symName: __ZNK7httplib6detail12SocketStream21get_local_ip_and_portERNSt3__112basic_stringIcNS2_11char_traitsIcEENS2_9allocatorIcEEEERi, symObjAddr: 0xBD94, symBinAddr: 0x10000C590, symSize: 0xDC }
  - { offset: 0x191DD2, size: 0x8, addend: 0x0, symName: __ZNK7httplib6detail12SocketStream6socketEv, symObjAddr: 0xBE70, symBinAddr: 0x10000C66C, symSize: 0x8 }
  - { offset: 0x191DFB, size: 0x8, addend: 0x0, symName: __ZNK7httplib6detail12SocketStream8durationEv, symObjAddr: 0xBE78, symBinAddr: 0x10000C674, symSize: 0x44 }
  - { offset: 0x191EA1, size: 0x8, addend: 0x0, symName: __ZN7httplib6detail15is_socket_aliveEi, symObjAddr: 0xBED0, symBinAddr: 0x10000C6B8, symSize: 0xF0 }
  - { offset: 0x193209, size: 0x8, addend: 0x0, symName: __ZN7httplib6detail18stream_line_reader7getlineEv, symObjAddr: 0xD420, symBinAddr: 0x10000DC08, symSize: 0x18C }
  - { offset: 0x1934BE, size: 0x8, addend: 0x0, symName: __ZN7httplib6detail12read_headersERNS_6StreamERNSt3__118unordered_multimapINS3_12basic_stringIcNS3_11char_traitsIcEENS3_9allocatorIcEEEESA_NS0_11case_ignore4hashENSB_8equal_toENS8_INS3_4pairIKSA_SA_EEEEEE, symObjAddr: 0xD5AC, symBinAddr: 0x10000DD94, symSize: 0x1FC }
  - { offset: 0x1934C9, size: 0x8, addend: 0x0, symName: __ZNSt3__112__hash_tableINS_17__hash_value_typeINS_12basic_stringIcNS_11char_traitsIcEENS_9allocatorIcEEEES7_EENS_22__unordered_map_hasherIS7_S8_N7httplib6detail11case_ignore4hashENSC_8equal_toELb1EEENS_21__unordered_map_equalIS7_S8_SE_SD_Lb1EEENS5_IS8_EEE14__assign_multiINS_21__hash_const_iteratorIPNS_11__hash_nodeIS8_PvEEEEEEvT_SR_, symObjAddr: 0x1100C, symBinAddr: 0x100011798, symSize: 0x14C }
  - { offset: 0x193AF1, size: 0x8, addend: 0x0, symName: __ZN7httplib6Server19write_response_coreERNS_6StreamEbRKNS_7RequestERNS_8ResponseEb, symObjAddr: 0x12B48, symBinAddr: 0x1000132D4, symSize: 0x9C8 }
  - { offset: 0x19702C, size: 0x8, addend: 0x0, symName: __ZN7httplib8ResponseD2Ev, symObjAddr: 0x39610, symBinAddr: 0x1000394E8, symSize: 0x210 }
  - { offset: 0x198133, size: 0x8, addend: 0x0, symName: __ZN7httplib7RequestD2Ev, symObjAddr: 0x39820, symBinAddr: 0x1000396F8, symSize: 0x3A0 }
  - { offset: 0x19A0EE, size: 0x8, addend: 0x0, symName: __ZNK7httplib7Request16get_header_valueERKNSt3__112basic_stringIcNS1_11char_traitsIcEENS1_9allocatorIcEEEEPKcm, symObjAddr: 0xDFD8, symBinAddr: 0x10000E7C0, symSize: 0xA8 }
  - { offset: 0x19A385, size: 0x8, addend: 0x0, symName: __ZNK7httplib7Request10has_headerERKNSt3__112basic_stringIcNS1_11char_traitsIcEENS1_9allocatorIcEEEE, symObjAddr: 0xE080, symBinAddr: 0x10000E868, symSize: 0xBC }
  - { offset: 0x19A390, size: 0x8, addend: 0x0, symName: __ZNK7httplib7Request10has_headerERKNSt3__112basic_stringIcNS1_11char_traitsIcEENS1_9allocatorIcEEEE, symObjAddr: 0xE080, symBinAddr: 0x10000E868, symSize: 0xBC }
  - { offset: 0x19A4D2, size: 0x8, addend: 0x0, symName: __ZNKSt3__112__hash_tableINS_17__hash_value_typeINS_12basic_stringIcNS_11char_traitsIcEENS_9allocatorIcEEEES7_EENS_22__unordered_map_hasherIS7_S8_N7httplib6detail11case_ignore4hashENSC_8equal_toELb1EEENS_21__unordered_map_equalIS7_S8_SE_SD_Lb1EEENS5_IS8_EEE4findIS7_EENS_21__hash_const_iteratorIPNS_11__hash_nodeIS8_PvEEEERKT_, symObjAddr: 0x1588C, symBinAddr: 0x100016004, symSize: 0x214 }
  - { offset: 0x19A52D, size: 0x8, addend: 0x0, symName: __ZNKSt3__112__hash_tableINS_17__hash_value_typeINS_12basic_stringIcNS_11char_traitsIcEENS_9allocatorIcEEEES7_EENS_22__unordered_map_hasherIS7_S8_N7httplib6detail11case_ignore4hashENSC_8equal_toELb1EEENS_21__unordered_map_equalIS7_S8_SE_SD_Lb1EEENS5_IS8_EEE4findIS7_EENS_21__hash_const_iteratorIPNS_11__hash_nodeIS8_PvEEEERKT_, symObjAddr: 0x1588C, symBinAddr: 0x100016004, symSize: 0x214 }
  - { offset: 0x19A550, size: 0x8, addend: 0x0, symName: __ZNKSt3__112__hash_tableINS_17__hash_value_typeINS_12basic_stringIcNS_11char_traitsIcEENS_9allocatorIcEEEES7_EENS_22__unordered_map_hasherIS7_S8_N7httplib6detail11case_ignore4hashENSC_8equal_toELb1EEENS_21__unordered_map_equalIS7_S8_SE_SD_Lb1EEENS5_IS8_EEE4findIS7_EENS_21__hash_const_iteratorIPNS_11__hash_nodeIS8_PvEEEERKT_, symObjAddr: 0x1588C, symBinAddr: 0x100016004, symSize: 0x214 }
  - { offset: 0x19A59B, size: 0x8, addend: 0x0, symName: __ZNKSt3__112__hash_tableINS_17__hash_value_typeINS_12basic_stringIcNS_11char_traitsIcEENS_9allocatorIcEEEES7_EENS_22__unordered_map_hasherIS7_S8_N7httplib6detail11case_ignore4hashENSC_8equal_toELb1EEENS_21__unordered_map_equalIS7_S8_SE_SD_Lb1EEENS5_IS8_EEE4findIS7_EENS_21__hash_const_iteratorIPNS_11__hash_nodeIS8_PvEEEERKT_, symObjAddr: 0x1588C, symBinAddr: 0x100016004, symSize: 0x214 }
  - { offset: 0x19A7FB, size: 0x8, addend: 0x0, symName: __ZNK7httplib6Server16output_error_logERKNS_5ErrorEPKNS_7RequestE, symObjAddr: 0xD7A8, symBinAddr: 0x10000DF90, symSize: 0x88 }
  - { offset: 0x19A971, size: 0x8, addend: 0x0, symName: __ZNSt3__18functionIFbvEEaSIZN7httplib6Server15process_requestERNS4_6StreamERKNS_12basic_stringIcNS_11char_traitsIcEENS_9allocatorIcEEEEiSF_ibRbRKNS0_IFvRNS4_7RequestEEEEEUlvE_vEERS2_OT_, symObjAddr: 0xECCC, symBinAddr: 0x10000F4B4, symSize: 0xA4 }
  - { offset: 0x19AB95, size: 0x8, addend: 0x0, symName: __ZN7httplib8Response20set_content_providerEmRKNSt3__112basic_stringIcNS1_11char_traitsIcEENS1_9allocatorIcEEEENS1_8functionIFbmmRNS_8DataSinkEEEENSA_IFvbEEE, symObjAddr: 0x10744, symBinAddr: 0x100010F2C, symSize: 0x1A4 }
  - { offset: 0x19B055, size: 0x8, addend: 0x0, symName: __ZZN7httplib6Server15process_requestERNS_6StreamERKNSt3__112basic_stringIcNS3_11char_traitsIcEENS3_9allocatorIcEEEEiSB_ibRbRKNS3_8functionIFvRNS_7RequestEEEEENUlmmRNS_8DataSinkEE_D1Ev, symObjAddr: 0x108E8, symBinAddr: 0x1000110D0, symSize: 0x5C }
  - { offset: 0x19B17D, size: 0x8, addend: 0x0, symName: __ZN7httplib6Server15process_requestERNS_6StreamERKNSt3__112basic_stringIcNS3_11char_traitsIcEENS3_9allocatorIcEEEEiSB_ibRbRKNS3_8functionIFvRNS_7RequestEEEE.cold.1, symObjAddr: 0x45A7C, symBinAddr: 0x1000B2F14, symSize: 0x44 }
  - { offset: 0x19B1EE, size: 0x8, addend: 0x0, symName: __ZN7httplib8Response10set_headerERKNSt3__112basic_stringIcNS1_11char_traitsIcEENS1_9allocatorIcEEEES9_, symObjAddr: 0xFDE4, symBinAddr: 0x1000105CC, symSize: 0x1D8 }
  - { offset: 0x19B5F4, size: 0x8, addend: 0x0, symName: __ZN7httplib6detail18stream_line_reader7getlineEv.cold.1, symObjAddr: 0x45AC0, symBinAddr: 0x1000B2F58, symSize: 0x28 }
  - { offset: 0x19BD29, size: 0x8, addend: 0x0, symName: __ZNKSt3__16__treeINS_12basic_stringIcNS_11char_traitsIcEENS_9allocatorIcEEEENS_4lessIS6_EENS4_IS6_EEE4findIS6_EENS_21__tree_const_iteratorIS6_PNS_11__tree_nodeIS6_PvEElEERKT_, symObjAddr: 0x1A064, symBinAddr: 0x10001A7DC, symSize: 0x118 }
  - { offset: 0x19C02D, size: 0x8, addend: 0x0, symName: __ZNSt3__13setINS_12basic_stringIcNS_11char_traitsIcEENS_9allocatorIcEEEENS_4lessIS6_EENS4_IS6_EEEC1B8ne200100ESt16initializer_listIS6_ERKS8_, symObjAddr: 0x19184, symBinAddr: 0x1000198FC, symSize: 0x80 }
  - { offset: 0x19C1EF, size: 0x8, addend: 0x0, symName: __ZNSt3__112basic_stringIcNS_11char_traitsIcEENS_9allocatorIcEEE20__throw_out_of_rangeB8ne200100Ev, symObjAddr: 0x14EDC, symBinAddr: 0x100015668, symSize: 0x14 }
  - { offset: 0x19C206, size: 0x8, addend: 0x0, symName: __ZNSt3__120__throw_out_of_rangeB8ne200100EPKc, symObjAddr: 0x14EF0, symBinAddr: 0x10001567C, symSize: 0x50 }
  - { offset: 0x19CAF8, size: 0x8, addend: 0x0, symName: __ZNSt3__16vectorIZN7httplib6detail19parse_accept_headerERKNS_12basic_stringIcNS_11char_traitsIcEENS_9allocatorIcEEEERNS0_IS8_NS6_IS8_EEEEE11AcceptEntryNS6_ISE_EEED1B8ne200100Ev, symObjAddr: 0x1B328, symBinAddr: 0x10001B988, symSize: 0x70 }
  - { offset: 0x19D34B, size: 0x8, addend: 0x0, symName: __ZNSt3__110__function12__value_funcIFbvEE4swapB8ne200100ERS3_, symObjAddr: 0x170A8, symBinAddr: 0x100017820, symSize: 0x198 }
  - { offset: 0x19E021, size: 0x8, addend: 0x0, symName: __ZN7httplib13ContentReaderD1Ev, symObjAddr: 0x1FD00, symBinAddr: 0x100020338, symSize: 0x74 }
  - { offset: 0x19E250, size: 0x8, addend: 0x0, symName: __ZNSt3__112__hash_tableINS_17__hash_value_typeINS_12basic_stringIcNS_11char_traitsIcEENS_9allocatorIcEEEES7_EENS_22__unordered_map_hasherIS7_S8_N7httplib6detail11case_ignore4hashENSC_8equal_toELb1EEENS_21__unordered_map_equalIS7_S8_SE_SD_Lb1EEENS5_IS8_EEE16__construct_nodeIJRKS7_SM_EEENS_10unique_ptrINS_11__hash_nodeIS8_PvEENS_22__hash_node_destructorINS5_ISQ_EEEEEEDpOT_, symObjAddr: 0x12878, symBinAddr: 0x100013004, symSize: 0x150 }
  - { offset: 0x19E80D, size: 0x8, addend: 0x0, symName: __ZNSt3__112__hash_tableINS_17__hash_value_typeINS_12basic_stringIcNS_11char_traitsIcEENS_9allocatorIcEEEES7_EENS_22__unordered_map_hasherIS7_S8_N7httplib6detail11case_ignore4hashENSC_8equal_toELb1EEENS_21__unordered_map_equalIS7_S8_SE_SD_Lb1EEENS5_IS8_EEE19__node_insert_multiEPNS_11__hash_nodeIS8_PvEE, symObjAddr: 0x11158, symBinAddr: 0x1000118E4, symSize: 0x16C }
  - { offset: 0x19EAE1, size: 0x8, addend: 0x0, symName: __ZNSt3__110unique_ptrINS_11__hash_nodeINS_17__hash_value_typeINS_12basic_stringIcNS_11char_traitsIcEENS_9allocatorIcEEEES8_EEPvEENS_22__hash_node_destructorINS6_ISB_EEEEED1B8ne200100Ev, symObjAddr: 0x11B2C, symBinAddr: 0x1000122B8, symSize: 0x6C }
  - { offset: 0x19F19B, size: 0x8, addend: 0x0, symName: __ZN7httplib6detail4mmap4openEPKc, symObjAddr: 0x3791C, symBinAddr: 0x10003790C, symSize: 0x164 }
  - { offset: 0x19FAA7, size: 0x8, addend: 0x0, symName: __ZN7httplib14status_messageEi, symObjAddr: 0x1EA14, symBinAddr: 0x10001F04C, symSize: 0x314 }
  - { offset: 0x19FAB2, size: 0x8, addend: 0x0, symName: __ZNSt3__110__function6__funcIN7httplib7Request20is_connection_closedMUlvE_ENS_9allocatorIS4_EEFbvEED1Ev, symObjAddr: 0x10C14, symBinAddr: 0x1000113A0, symSize: 0x4 }
  - { offset: 0x19FADE, size: 0x8, addend: 0x0, symName: __ZNSt3__110__function6__funcIN7httplib7Request20is_connection_closedMUlvE_ENS_9allocatorIS4_EEFbvEED0Ev, symObjAddr: 0x10C18, symBinAddr: 0x1000113A4, symSize: 0x4 }
  - { offset: 0x19FB95, size: 0x8, addend: 0x0, symName: __ZNKSt3__110__function6__funcIN7httplib7Request20is_connection_closedMUlvE_ENS_9allocatorIS4_EEFbvEE7__cloneEv, symObjAddr: 0x10C1C, symBinAddr: 0x1000113A8, symSize: 0x24 }
  - { offset: 0x19FCE5, size: 0x8, addend: 0x0, symName: __ZNKSt3__110__function6__funcIN7httplib7Request20is_connection_closedMUlvE_ENS_9allocatorIS4_EEFbvEE7__cloneEPNS0_6__baseIS7_EE, symObjAddr: 0x10C40, symBinAddr: 0x1000113CC, symSize: 0x10 }
  - { offset: 0x19FD1B, size: 0x8, addend: 0x0, symName: __ZNKSt3__110__function6__funcIN7httplib7Request20is_connection_closedMUlvE_ENS_9allocatorIS4_EEFbvEE7__cloneEPNS0_6__baseIS7_EE, symObjAddr: 0x10C40, symBinAddr: 0x1000113CC, symSize: 0x10 }
  - { offset: 0x19FD49, size: 0x8, addend: 0x0, symName: __ZNKSt3__110__function6__funcIN7httplib7Request20is_connection_closedMUlvE_ENS_9allocatorIS4_EEFbvEE7__cloneEPNS0_6__baseIS7_EE, symObjAddr: 0x10C40, symBinAddr: 0x1000113CC, symSize: 0x10 }
  - { offset: 0x19FD77, size: 0x8, addend: 0x0, symName: __ZNSt3__110__function6__funcIN7httplib7Request20is_connection_closedMUlvE_ENS_9allocatorIS4_EEFbvEE7destroyEv, symObjAddr: 0x10C50, symBinAddr: 0x1000113DC, symSize: 0x4 }
  - { offset: 0x19FDCE, size: 0x8, addend: 0x0, symName: __ZNSt3__110__function6__funcIN7httplib7Request20is_connection_closedMUlvE_ENS_9allocatorIS4_EEFbvEE18destroy_deallocateEv, symObjAddr: 0x10C54, symBinAddr: 0x1000113E0, symSize: 0x4 }
  - { offset: 0x19FE01, size: 0x8, addend: 0x0, symName: __ZNSt3__110__function6__funcIN7httplib7Request20is_connection_closedMUlvE_ENS_9allocatorIS4_EEFbvEE18destroy_deallocateEv, symObjAddr: 0x10C54, symBinAddr: 0x1000113E0, symSize: 0x4 }
  - { offset: 0x19FE24, size: 0x8, addend: 0x0, symName: __ZNSt3__110__function6__funcIN7httplib7Request20is_connection_closedMUlvE_ENS_9allocatorIS4_EEFbvEE18destroy_deallocateEv, symObjAddr: 0x10C54, symBinAddr: 0x1000113E0, symSize: 0x4 }
  - { offset: 0x19FE57, size: 0x8, addend: 0x0, symName: __ZNSt3__110__function6__funcIN7httplib7Request20is_connection_closedMUlvE_ENS_9allocatorIS4_EEFbvEE18destroy_deallocateEv, symObjAddr: 0x10C54, symBinAddr: 0x1000113E0, symSize: 0x4 }
  - { offset: 0x19FE7F, size: 0x8, addend: 0x0, symName: __ZNSt3__110__function6__funcIN7httplib7Request20is_connection_closedMUlvE_ENS_9allocatorIS4_EEFbvEEclEv, symObjAddr: 0x10C58, symBinAddr: 0x1000113E4, symSize: 0x8 }
  - { offset: 0x19FEA6, size: 0x8, addend: 0x0, symName: __ZNKSt3__110__function6__funcIN7httplib7Request20is_connection_closedMUlvE_ENS_9allocatorIS4_EEFbvEE6targetERKSt9type_info, symObjAddr: 0x10C60, symBinAddr: 0x1000113EC, symSize: 0x64 }
  - { offset: 0x19FF59, size: 0x8, addend: 0x0, symName: __ZNKSt3__110__function6__funcIN7httplib7Request20is_connection_closedMUlvE_ENS_9allocatorIS4_EEFbvEE11target_typeEv, symObjAddr: 0x10CC4, symBinAddr: 0x100011450, symSize: 0xC }
  - { offset: 0x1A006D, size: 0x8, addend: 0x0, symName: __ZNSt3__16__treeINS_12__value_typeINS_12basic_stringIcNS_11char_traitsIcEENS_9allocatorIcEEEEN7httplib8FormDataEEENS_19__map_value_compareIS7_SA_NS_4lessIS7_EELb1EEENS5_ISA_EEE7destroyEPNS_11__tree_nodeISA_PvEE, symObjAddr: 0x10CD0, symBinAddr: 0x10001145C, symSize: 0x68 }
  - { offset: 0x1A02D6, size: 0x8, addend: 0x0, symName: __ZN7httplib8FormDataD2Ev, symObjAddr: 0x10D38, symBinAddr: 0x1000114C4, symSize: 0xF0 }
  - { offset: 0x1A0C52, size: 0x8, addend: 0x0, symName: __ZNSt3__16__treeINS_12__value_typeINS_12basic_stringIcNS_11char_traitsIcEENS_9allocatorIcEEEEN7httplib9FormFieldEEENS_19__map_value_compareIS7_SA_NS_4lessIS7_EELb1EEENS5_ISA_EEE7destroyEPNS_11__tree_nodeISA_PvEE, symObjAddr: 0x10E28, symBinAddr: 0x1000115B4, symSize: 0x4C }
  - { offset: 0x1A0DBB, size: 0x8, addend: 0x0, symName: __ZNSt3__14pairIKNS_12basic_stringIcNS_11char_traitsIcEENS_9allocatorIcEEEEN7httplib9FormFieldEED2Ev, symObjAddr: 0x10E74, symBinAddr: 0x100011600, symSize: 0xD8 }
  - { offset: 0x1A1607, size: 0x8, addend: 0x0, symName: __ZN7httplib9FormFieldD1Ev, symObjAddr: 0x10F4C, symBinAddr: 0x1000116D8, symSize: 0xC0 }
  - { offset: 0x1A1E4B, size: 0x8, addend: 0x0, symName: __ZNSt3__14pairIRNS_12basic_stringIcNS_11char_traitsIcEENS_9allocatorIcEEEES7_EaSB8ne200100IKS6_S6_Li0EEERS8_RKNS0_IT_T0_EE, symObjAddr: 0x112C4, symBinAddr: 0x100011A50, symSize: 0x108 }
  - { offset: 0x1A2054, size: 0x8, addend: 0x0, symName: __ZNSt3__112__hash_tableINS_17__hash_value_typeINS_12basic_stringIcNS_11char_traitsIcEENS_9allocatorIcEEEES7_EENS_22__unordered_map_hasherIS7_S8_N7httplib6detail11case_ignore4hashENSC_8equal_toELb1EEENS_21__unordered_map_equalIS7_S8_SE_SD_Lb1EEENS5_IS8_EEE16__construct_nodeIJRKNS_4pairIKS7_S7_EEEEENS_10unique_ptrINS_11__hash_nodeIS8_PvEENS_22__hash_node_destructorINS5_IST_EEEEEEDpOT_, symObjAddr: 0x119EC, symBinAddr: 0x100012178, symSize: 0x140 }
  - { offset: 0x1A2701, size: 0x8, addend: 0x0, symName: __ZNSt3__112__hash_tableINS_17__hash_value_typeINS_12basic_stringIcNS_11char_traitsIcEENS_9allocatorIcEEEES7_EENS_22__unordered_map_hasherIS7_S8_N7httplib6detail11case_ignore4hashENSC_8equal_toELb1EEENS_21__unordered_map_equalIS7_S8_SE_SD_Lb1EEENS5_IS8_EEE27__node_insert_multi_prepareEmRS8_, symObjAddr: 0x113CC, symBinAddr: 0x100011B58, symSize: 0x36C }
  - { offset: 0x1A2BA5, size: 0x8, addend: 0x0, symName: __ZNSt3__112__hash_tableINS_17__hash_value_typeINS_12basic_stringIcNS_11char_traitsIcEENS_9allocatorIcEEEES7_EENS_22__unordered_map_hasherIS7_S8_N7httplib6detail11case_ignore4hashENSC_8equal_toELb1EEENS_21__unordered_map_equalIS7_S8_SE_SD_Lb1EEENS5_IS8_EEE11__do_rehashILb0EEEvm, symObjAddr: 0x11738, symBinAddr: 0x100011EC4, symSize: 0x2B4 }
  - { offset: 0x1A30AD, size: 0x8, addend: 0x0, symName: __ZNSt3__112__hash_tableINS_17__hash_value_typeINS_12basic_stringIcNS_11char_traitsIcEENS_9allocatorIcEEEES7_EENS_22__unordered_map_hasherIS7_S8_N7httplib6detail11case_ignore4hashENSC_8equal_toELb1EEENS_21__unordered_map_equalIS7_S8_SE_SD_Lb1EEENS5_IS8_EEE16__construct_nodeIJRKNS_4pairIKS7_S7_EEEEENS_10unique_ptrINS_11__hash_nodeIS8_PvEENS_22__hash_node_destructorINS5_IST_EEEEEEDpOT_, symObjAddr: 0x119EC, symBinAddr: 0x100012178, symSize: 0x140 }
  - { offset: 0x1A34F2, size: 0x8, addend: 0x0, symName: __ZNSt3__112basic_stringIcNS_11char_traitsIcEENS_9allocatorIcEEE18__shrink_or_extendB8ne200100Em, symObjAddr: 0x129C8, symBinAddr: 0x100013154, symSize: 0x180 }
  - { offset: 0x1A3D86, size: 0x8, addend: 0x0, symName: __ZN7httplib6Server27write_content_with_providerERNS_6StreamERKNS_7RequestERNS_8ResponseERKNSt3__112basic_stringIcNS8_11char_traitsIcEENS8_9allocatorIcEEEESG_, symObjAddr: 0x13F3C, symBinAddr: 0x1000146C8, symSize: 0x298 }
  - { offset: 0x1A45FE, size: 0x8, addend: 0x0, symName: __ZN7httplib6Server19write_response_coreERNS_6StreamEbRKNS_7RequestERNS_8ResponseEb.cold.1, symObjAddr: 0x45AE8, symBinAddr: 0x1000B2F80, symSize: 0x28 }
  - { offset: 0x1A47E4, size: 0x8, addend: 0x0, symName: __ZNSt3__112__hash_tableINS_17__hash_value_typeINS_12basic_stringIcNS_11char_traitsIcEENS_9allocatorIcEEEES7_EENS_22__unordered_map_hasherIS7_S8_N7httplib6detail11case_ignore4hashENSC_8equal_toELb1EEENS_21__unordered_map_equalIS7_S8_SE_SD_Lb1EEENS5_IS8_EEE4findIS7_EENS_15__hash_iteratorIPNS_11__hash_nodeIS8_PvEEEERKT_, symObjAddr: 0x14B90, symBinAddr: 0x10001531C, symSize: 0x214 }
  - { offset: 0x1A483F, size: 0x8, addend: 0x0, symName: __ZNSt3__112__hash_tableINS_17__hash_value_typeINS_12basic_stringIcNS_11char_traitsIcEENS_9allocatorIcEEEES7_EENS_22__unordered_map_hasherIS7_S8_N7httplib6detail11case_ignore4hashENSC_8equal_toELb1EEENS_21__unordered_map_equalIS7_S8_SE_SD_Lb1EEENS5_IS8_EEE4findIS7_EENS_15__hash_iteratorIPNS_11__hash_nodeIS8_PvEEEERKT_, symObjAddr: 0x14B90, symBinAddr: 0x10001531C, symSize: 0x214 }
  - { offset: 0x1A4862, size: 0x8, addend: 0x0, symName: __ZNSt3__112__hash_tableINS_17__hash_value_typeINS_12basic_stringIcNS_11char_traitsIcEENS_9allocatorIcEEEES7_EENS_22__unordered_map_hasherIS7_S8_N7httplib6detail11case_ignore4hashENSC_8equal_toELb1EEENS_21__unordered_map_equalIS7_S8_SE_SD_Lb1EEENS5_IS8_EEE4findIS7_EENS_15__hash_iteratorIPNS_11__hash_nodeIS8_PvEEEERKT_, symObjAddr: 0x14B90, symBinAddr: 0x10001531C, symSize: 0x214 }
  - { offset: 0x1A48AD, size: 0x8, addend: 0x0, symName: __ZNSt3__112__hash_tableINS_17__hash_value_typeINS_12basic_stringIcNS_11char_traitsIcEENS_9allocatorIcEEEES7_EENS_22__unordered_map_hasherIS7_S8_N7httplib6detail11case_ignore4hashENSC_8equal_toELb1EEENS_21__unordered_map_equalIS7_S8_SE_SD_Lb1EEENS5_IS8_EEE4findIS7_EENS_15__hash_iteratorIPNS_11__hash_nodeIS8_PvEEEERKT_, symObjAddr: 0x14B90, symBinAddr: 0x10001531C, symSize: 0x214 }
  - { offset: 0x1A4B0D, size: 0x8, addend: 0x0, symName: __ZNSt3__112__hash_tableINS_17__hash_value_typeINS_12basic_stringIcNS_11char_traitsIcEENS_9allocatorIcEEEES7_EENS_22__unordered_map_hasherIS7_S8_N7httplib6detail11case_ignore4hashENSC_8equal_toELb1EEENS_21__unordered_map_equalIS7_S8_SE_SD_Lb1EEENS5_IS8_EEE6removeENS_21__hash_const_iteratorIPNS_11__hash_nodeIS8_PvEEEE, symObjAddr: 0x14DA4, symBinAddr: 0x100015530, symSize: 0x138 }
  - { offset: 0x1A4B84, size: 0x8, addend: 0x0, symName: __ZNSt3__112__hash_tableINS_17__hash_value_typeINS_12basic_stringIcNS_11char_traitsIcEENS_9allocatorIcEEEES7_EENS_22__unordered_map_hasherIS7_S8_N7httplib6detail11case_ignore4hashENSC_8equal_toELb1EEENS_21__unordered_map_equalIS7_S8_SE_SD_Lb1EEENS5_IS8_EEE6removeENS_21__hash_const_iteratorIPNS_11__hash_nodeIS8_PvEEEE, symObjAddr: 0x14DA4, symBinAddr: 0x100015530, symSize: 0x138 }
  - { offset: 0x1A4BA0, size: 0x8, addend: 0x0, symName: __ZNSt3__112__hash_tableINS_17__hash_value_typeINS_12basic_stringIcNS_11char_traitsIcEENS_9allocatorIcEEEES7_EENS_22__unordered_map_hasherIS7_S8_N7httplib6detail11case_ignore4hashENSC_8equal_toELb1EEENS_21__unordered_map_equalIS7_S8_SE_SD_Lb1EEENS5_IS8_EEE6removeENS_21__hash_const_iteratorIPNS_11__hash_nodeIS8_PvEEEE, symObjAddr: 0x14DA4, symBinAddr: 0x100015530, symSize: 0x138 }
  - { offset: 0x1A4D93, size: 0x8, addend: 0x0, symName: __ZNK7httplib6Server12apply_rangesERKNS_7RequestERNS_8ResponseERNSt3__112basic_stringIcNS6_11char_traitsIcEENS6_9allocatorIcEEEESD_.cold.3, symObjAddr: 0x45B58, symBinAddr: 0x1000B2FF0, symSize: 0x24 }
  - { offset: 0x1A4DC2, size: 0x8, addend: 0x0, symName: __ZNK7httplib6Server12apply_rangesERKNS_7RequestERNS_8ResponseERNSt3__112basic_stringIcNS6_11char_traitsIcEENS6_9allocatorIcEEEESD_.cold.2, symObjAddr: 0x45B34, symBinAddr: 0x1000B2FCC, symSize: 0x24 }
  - { offset: 0x1A4DF1, size: 0x8, addend: 0x0, symName: __ZNK7httplib6Server12apply_rangesERKNS_7RequestERNS_8ResponseERNSt3__112basic_stringIcNS6_11char_traitsIcEENS6_9allocatorIcEEEESD_.cold.1, symObjAddr: 0x45B10, symBinAddr: 0x1000B2FA8, symSize: 0x24 }
  - { offset: 0x1A4E5F, size: 0x8, addend: 0x0, symName: __ZN7httplib6detail12BufferStreamD1Ev, symObjAddr: 0x13F04, symBinAddr: 0x100014690, symSize: 0x38 }
  - { offset: 0x1A4EC5, size: 0x8, addend: 0x0, symName: __ZN7httplib6detail12BufferStreamD1Ev, symObjAddr: 0x13F04, symBinAddr: 0x100014690, symSize: 0x38 }
  - { offset: 0x1A523D, size: 0x8, addend: 0x0, symName: __ZZN7httplib6detail13random_stringEmENKUlvE_clEv, symObjAddr: 0x14F64, symBinAddr: 0x1000156F0, symSize: 0x358 }
  - { offset: 0x1A5EEB, size: 0x8, addend: 0x0, symName: __ZNSt12out_of_rangeC1B8ne200100EPKc, symObjAddr: 0x14F40, symBinAddr: 0x1000156CC, symSize: 0x24 }
  - { offset: 0x1A65E2, size: 0x8, addend: 0x0, symName: __ZNSt3__18seed_seq8generateB8ne200100IPjEEvT_S3_, symObjAddr: 0x152D0, symBinAddr: 0x100015A48, symSize: 0x2B4 }
  - { offset: 0x1A68FE, size: 0x8, addend: 0x0, symName: __ZNSt3__18seed_seq8generateB8ne200100IPjEEvT_S3_, symObjAddr: 0x152D0, symBinAddr: 0x100015A48, symSize: 0x2B4 }
  - { offset: 0x1A6B9B, size: 0x8, addend: 0x0, symName: __ZZN7httplib6detail26make_multipart_ranges_dataERKNS_7RequestERNS_8ResponseERKNSt3__112basic_stringIcNS6_11char_traitsIcEENS6_9allocatorIcEEEESE_mRSC_ENKUlmmE_clEmm, symObjAddr: 0x160AC, symBinAddr: 0x100016824, symSize: 0x158 }
  - { offset: 0x1A7209, size: 0x8, addend: 0x0, symName: __ZZN7httplib6detail26make_multipart_ranges_dataERKNS_7RequestERNS_8ResponseERKNSt3__112basic_stringIcNS6_11char_traitsIcEENS6_9allocatorIcEEEESE_mRSC_ENKUlmmE_clEmm.cold.1, symObjAddr: 0x45D2C, symBinAddr: 0x1000B3014, symSize: 0x28 }
  - { offset: 0x1A7221, size: 0x8, addend: 0x0, symName: __ZN7httplib6detail12BufferStreamD0Ev, symObjAddr: 0x16204, symBinAddr: 0x10001697C, symSize: 0x38 }
  - { offset: 0x1A72A6, size: 0x8, addend: 0x0, symName: __ZN7httplib6detail12BufferStreamD0Ev, symObjAddr: 0x16204, symBinAddr: 0x10001697C, symSize: 0x38 }
  - { offset: 0x1A7379, size: 0x8, addend: 0x0, symName: __ZNK7httplib6detail12BufferStream11is_readableEv, symObjAddr: 0x1623C, symBinAddr: 0x1000169B4, symSize: 0x8 }
  - { offset: 0x1A73A2, size: 0x8, addend: 0x0, symName: __ZNK7httplib6detail12BufferStream13wait_readableEv, symObjAddr: 0x16244, symBinAddr: 0x1000169BC, symSize: 0x8 }
  - { offset: 0x1A73CB, size: 0x8, addend: 0x0, symName: __ZNK7httplib6detail12BufferStream13wait_writableEv, symObjAddr: 0x1624C, symBinAddr: 0x1000169C4, symSize: 0x8 }
  - { offset: 0x1A7446, size: 0x8, addend: 0x0, symName: __ZN7httplib6detail12BufferStream4readEPcm, symObjAddr: 0x16254, symBinAddr: 0x1000169CC, symSize: 0x88 }
  - { offset: 0x1A75D6, size: 0x8, addend: 0x0, symName: __ZN7httplib6detail12BufferStream5writeEPKcm, symObjAddr: 0x162DC, symBinAddr: 0x100016A54, symSize: 0x28 }
  - { offset: 0x1A75E1, size: 0x8, addend: 0x0, symName: __ZN7httplib6detail12BufferStream5writeEPKcm, symObjAddr: 0x162DC, symBinAddr: 0x100016A54, symSize: 0x28 }
  - { offset: 0x1A762A, size: 0x8, addend: 0x0, symName: __ZNK7httplib6detail12BufferStream22get_remote_ip_and_portERNSt3__112basic_stringIcNS2_11char_traitsIcEENS2_9allocatorIcEEEERi, symObjAddr: 0x16304, symBinAddr: 0x100016A7C, symSize: 0x4 }
  - { offset: 0x1A7667, size: 0x8, addend: 0x0, symName: __ZNK7httplib6detail12BufferStream21get_local_ip_and_portERNSt3__112basic_stringIcNS2_11char_traitsIcEENS2_9allocatorIcEEEERi, symObjAddr: 0x16308, symBinAddr: 0x100016A80, symSize: 0x4 }
  - { offset: 0x1A76A4, size: 0x8, addend: 0x0, symName: __ZNK7httplib6detail12BufferStream6socketEv, symObjAddr: 0x1630C, symBinAddr: 0x100016A84, symSize: 0x8 }
  - { offset: 0x1A76CD, size: 0x8, addend: 0x0, symName: __ZNK7httplib6detail12BufferStream8durationEv, symObjAddr: 0x16314, symBinAddr: 0x100016A8C, symSize: 0x8 }
  - { offset: 0x1A7FA0, size: 0x8, addend: 0x0, symName: __ZN7httplib8DataSinkC2Ev, symObjAddr: 0x16A38, symBinAddr: 0x1000171B0, symSize: 0x16C }
  - { offset: 0x1A84A1, size: 0x8, addend: 0x0, symName: __ZNSt3__110__function12__value_funcIFbPKcmEE4swapB8ne200100ERS5_, symObjAddr: 0x16E38, symBinAddr: 0x1000175B0, symSize: 0x198 }
  - { offset: 0x1A85D5, size: 0x8, addend: 0x0, symName: __ZN7httplib8DataSinkD1Ev, symObjAddr: 0x1694C, symBinAddr: 0x1000170C4, symSize: 0xEC }
  - { offset: 0x1A8EC4, size: 0x8, addend: 0x0, symName: __ZN7httplib8DataSink19data_sink_streambufD1Ev, symObjAddr: 0x16BA4, symBinAddr: 0x10001731C, symSize: 0x34 }
  - { offset: 0x1A8F20, size: 0x8, addend: 0x0, symName: __ZN7httplib8DataSink19data_sink_streambufD0Ev, symObjAddr: 0x16BD8, symBinAddr: 0x100017350, symSize: 0x34 }
  - { offset: 0x1A900D, size: 0x8, addend: 0x0, symName: __ZN7httplib8DataSink19data_sink_streambuf6xsputnEPKcl, symObjAddr: 0x16C0C, symBinAddr: 0x100017384, symSize: 0x50 }
  - { offset: 0x1A90C1, size: 0x8, addend: 0x0, symName: __ZNSt3__110__function6__funcIZN7httplib6detail27write_content_with_progressIZNS2_6Server27write_content_with_providerERNS2_6StreamERKNS2_7RequestERNS2_8ResponseERKNS_12basic_stringIcNS_11char_traitsIcEENS_9allocatorIcEEEESK_EUlvE_EEbS7_RKNS_8functionIFbmmRNS2_8DataSinkEEEEmmT_RKNSM_IFbmmEEERNS2_5ErrorEEUlPKcmE_NSG_IS12_EEFbS11_mEED1Ev, symObjAddr: 0x16C5C, symBinAddr: 0x1000173D4, symSize: 0x4 }
  - { offset: 0x1A90CC, size: 0x8, addend: 0x0, symName: __ZNSt3__110__function6__funcIZN7httplib6detail27write_content_with_progressIZNS2_6Server27write_content_with_providerERNS2_6StreamERKNS2_7RequestERNS2_8ResponseERKNS_12basic_stringIcNS_11char_traitsIcEENS_9allocatorIcEEEESK_EUlvE_EEbS7_RKNS_8functionIFbmmRNS2_8DataSinkEEEEmmT_RKNSM_IFbmmEEERNS2_5ErrorEEUlPKcmE_NSG_IS12_EEFbS11_mEED1Ev, symObjAddr: 0x16C5C, symBinAddr: 0x1000173D4, symSize: 0x4 }
  - { offset: 0x1A90F8, size: 0x8, addend: 0x0, symName: __ZNSt3__110__function6__funcIZN7httplib6detail27write_content_with_progressIZNS2_6Server27write_content_with_providerERNS2_6StreamERKNS2_7RequestERNS2_8ResponseERKNS_12basic_stringIcNS_11char_traitsIcEENS_9allocatorIcEEEESK_EUlvE_EEbS7_RKNS_8functionIFbmmRNS2_8DataSinkEEEEmmT_RKNSM_IFbmmEEERNS2_5ErrorEEUlPKcmE_NSG_IS12_EEFbS11_mEED0Ev, symObjAddr: 0x16C60, symBinAddr: 0x1000173D8, symSize: 0x4 }
  - { offset: 0x1A91E8, size: 0x8, addend: 0x0, symName: __ZNKSt3__110__function6__funcIZN7httplib6detail27write_content_with_progressIZNS2_6Server27write_content_with_providerERNS2_6StreamERKNS2_7RequestERNS2_8ResponseERKNS_12basic_stringIcNS_11char_traitsIcEENS_9allocatorIcEEEESK_EUlvE_EEbS7_RKNS_8functionIFbmmRNS2_8DataSinkEEEEmmT_RKNSM_IFbmmEEERNS2_5ErrorEEUlPKcmE_NSG_IS12_EEFbS11_mEE7__cloneEv, symObjAddr: 0x16C64, symBinAddr: 0x1000173DC, symSize: 0x48 }
  - { offset: 0x1A93F9, size: 0x8, addend: 0x0, symName: __ZNKSt3__110__function6__funcIZN7httplib6detail27write_content_with_progressIZNS2_6Server27write_content_with_providerERNS2_6StreamERKNS2_7RequestERNS2_8ResponseERKNS_12basic_stringIcNS_11char_traitsIcEENS_9allocatorIcEEEESK_EUlvE_EEbS7_RKNS_8functionIFbmmRNS2_8DataSinkEEEEmmT_RKNSM_IFbmmEEERNS2_5ErrorEEUlPKcmE_NSG_IS12_EEFbS11_mEE7__cloneEPNS0_6__baseIS14_EE, symObjAddr: 0x16CAC, symBinAddr: 0x100017424, symSize: 0x28 }
  - { offset: 0x1A942F, size: 0x8, addend: 0x0, symName: __ZNKSt3__110__function6__funcIZN7httplib6detail27write_content_with_progressIZNS2_6Server27write_content_with_providerERNS2_6StreamERKNS2_7RequestERNS2_8ResponseERKNS_12basic_stringIcNS_11char_traitsIcEENS_9allocatorIcEEEESK_EUlvE_EEbS7_RKNS_8functionIFbmmRNS2_8DataSinkEEEEmmT_RKNSM_IFbmmEEERNS2_5ErrorEEUlPKcmE_NSG_IS12_EEFbS11_mEE7__cloneEPNS0_6__baseIS14_EE, symObjAddr: 0x16CAC, symBinAddr: 0x100017424, symSize: 0x28 }
  - { offset: 0x1A945D, size: 0x8, addend: 0x0, symName: __ZNKSt3__110__function6__funcIZN7httplib6detail27write_content_with_progressIZNS2_6Server27write_content_with_providerERNS2_6StreamERKNS2_7RequestERNS2_8ResponseERKNS_12basic_stringIcNS_11char_traitsIcEENS_9allocatorIcEEEESK_EUlvE_EEbS7_RKNS_8functionIFbmmRNS2_8DataSinkEEEEmmT_RKNSM_IFbmmEEERNS2_5ErrorEEUlPKcmE_NSG_IS12_EEFbS11_mEE7__cloneEPNS0_6__baseIS14_EE, symObjAddr: 0x16CAC, symBinAddr: 0x100017424, symSize: 0x28 }
  - { offset: 0x1A94EC, size: 0x8, addend: 0x0, symName: __ZNSt3__110__function6__funcIZN7httplib6detail27write_content_with_progressIZNS2_6Server27write_content_with_providerERNS2_6StreamERKNS2_7RequestERNS2_8ResponseERKNS_12basic_stringIcNS_11char_traitsIcEENS_9allocatorIcEEEESK_EUlvE_EEbS7_RKNS_8functionIFbmmRNS2_8DataSinkEEEEmmT_RKNSM_IFbmmEEERNS2_5ErrorEEUlPKcmE_NSG_IS12_EEFbS11_mEE7destroyEv, symObjAddr: 0x16CD4, symBinAddr: 0x10001744C, symSize: 0x4 }
  - { offset: 0x1A9543, size: 0x8, addend: 0x0, symName: __ZNSt3__110__function6__funcIZN7httplib6detail27write_content_with_progressIZNS2_6Server27write_content_with_providerERNS2_6StreamERKNS2_7RequestERNS2_8ResponseERKNS_12basic_stringIcNS_11char_traitsIcEENS_9allocatorIcEEEESK_EUlvE_EEbS7_RKNS_8functionIFbmmRNS2_8DataSinkEEEEmmT_RKNSM_IFbmmEEERNS2_5ErrorEEUlPKcmE_NSG_IS12_EEFbS11_mEE18destroy_deallocateEv, symObjAddr: 0x16CD8, symBinAddr: 0x100017450, symSize: 0x4 }
  - { offset: 0x1A9576, size: 0x8, addend: 0x0, symName: __ZNSt3__110__function6__funcIZN7httplib6detail27write_content_with_progressIZNS2_6Server27write_content_with_providerERNS2_6StreamERKNS2_7RequestERNS2_8ResponseERKNS_12basic_stringIcNS_11char_traitsIcEENS_9allocatorIcEEEESK_EUlvE_EEbS7_RKNS_8functionIFbmmRNS2_8DataSinkEEEEmmT_RKNSM_IFbmmEEERNS2_5ErrorEEUlPKcmE_NSG_IS12_EEFbS11_mEE18destroy_deallocateEv, symObjAddr: 0x16CD8, symBinAddr: 0x100017450, symSize: 0x4 }
  - { offset: 0x1A9599, size: 0x8, addend: 0x0, symName: __ZNSt3__110__function6__funcIZN7httplib6detail27write_content_with_progressIZNS2_6Server27write_content_with_providerERNS2_6StreamERKNS2_7RequestERNS2_8ResponseERKNS_12basic_stringIcNS_11char_traitsIcEENS_9allocatorIcEEEESK_EUlvE_EEbS7_RKNS_8functionIFbmmRNS2_8DataSinkEEEEmmT_RKNSM_IFbmmEEERNS2_5ErrorEEUlPKcmE_NSG_IS12_EEFbS11_mEE18destroy_deallocateEv, symObjAddr: 0x16CD8, symBinAddr: 0x100017450, symSize: 0x4 }
  - { offset: 0x1A95CD, size: 0x8, addend: 0x0, symName: __ZNSt3__110__function6__funcIZN7httplib6detail27write_content_with_progressIZNS2_6Server27write_content_with_providerERNS2_6StreamERKNS2_7RequestERNS2_8ResponseERKNS_12basic_stringIcNS_11char_traitsIcEENS_9allocatorIcEEEESK_EUlvE_EEbS7_RKNS_8functionIFbmmRNS2_8DataSinkEEEEmmT_RKNSM_IFbmmEEERNS2_5ErrorEEUlPKcmE_NSG_IS12_EEFbS11_mEE18destroy_deallocateEv, symObjAddr: 0x16CD8, symBinAddr: 0x100017450, symSize: 0x4 }
  - { offset: 0x1A9743, size: 0x8, addend: 0x0, symName: __ZNSt3__110__function6__funcIZN7httplib6detail27write_content_with_progressIZNS2_6Server27write_content_with_providerERNS2_6StreamERKNS2_7RequestERNS2_8ResponseERKNS_12basic_stringIcNS_11char_traitsIcEENS_9allocatorIcEEEESK_EUlvE_EEbS7_RKNS_8functionIFbmmRNS2_8DataSinkEEEEmmT_RKNSM_IFbmmEEERNS2_5ErrorEEUlPKcmE_NSG_IS12_EEFbS11_mEEclEOS11_Om, symObjAddr: 0x16CDC, symBinAddr: 0x100017454, symSize: 0xEC }
  - { offset: 0x1A9961, size: 0x8, addend: 0x0, symName: __ZNKSt3__110__function6__funcIZN7httplib6detail27write_content_with_progressIZNS2_6Server27write_content_with_providerERNS2_6StreamERKNS2_7RequestERNS2_8ResponseERKNS_12basic_stringIcNS_11char_traitsIcEENS_9allocatorIcEEEESK_EUlvE_EEbS7_RKNS_8functionIFbmmRNS2_8DataSinkEEEEmmT_RKNSM_IFbmmEEERNS2_5ErrorEEUlPKcmE_NSG_IS12_EEFbS11_mEE6targetERKSt9type_info, symObjAddr: 0x16DC8, symBinAddr: 0x100017540, symSize: 0x64 }
  - { offset: 0x1A9A14, size: 0x8, addend: 0x0, symName: __ZNKSt3__110__function6__funcIZN7httplib6detail27write_content_with_progressIZNS2_6Server27write_content_with_providerERNS2_6StreamERKNS2_7RequestERNS2_8ResponseERKNS_12basic_stringIcNS_11char_traitsIcEENS_9allocatorIcEEEESK_EUlvE_EEbS7_RKNS_8functionIFbmmRNS2_8DataSinkEEEEmmT_RKNSM_IFbmmEEERNS2_5ErrorEEUlPKcmE_NSG_IS12_EEFbS11_mEE11target_typeEv, symObjAddr: 0x16E2C, symBinAddr: 0x1000175A4, symSize: 0xC }
  - { offset: 0x1A9A41, size: 0x8, addend: 0x0, symName: __ZNSt3__110__function6__funcIZN7httplib6detail27write_content_with_progressIZNS2_6Server27write_content_with_providerERNS2_6StreamERKNS2_7RequestERNS2_8ResponseERKNS_12basic_stringIcNS_11char_traitsIcEENS_9allocatorIcEEEESK_EUlvE_EEbS7_RKNS_8functionIFbmmRNS2_8DataSinkEEEEmmT_RKNSM_IFbmmEEERNS2_5ErrorEEUlvE_NSG_IS10_EEFbvEED1Ev, symObjAddr: 0x16FD0, symBinAddr: 0x100017748, symSize: 0x4 }
  - { offset: 0x1A9A6D, size: 0x8, addend: 0x0, symName: __ZNSt3__110__function6__funcIZN7httplib6detail27write_content_with_progressIZNS2_6Server27write_content_with_providerERNS2_6StreamERKNS2_7RequestERNS2_8ResponseERKNS_12basic_stringIcNS_11char_traitsIcEENS_9allocatorIcEEEESK_EUlvE_EEbS7_RKNS_8functionIFbmmRNS2_8DataSinkEEEEmmT_RKNSM_IFbmmEEERNS2_5ErrorEEUlvE_NSG_IS10_EEFbvEED0Ev, symObjAddr: 0x16FD4, symBinAddr: 0x10001774C, symSize: 0x4 }
  - { offset: 0x1A9B84, size: 0x8, addend: 0x0, symName: __ZNKSt3__110__function6__funcIZN7httplib6detail27write_content_with_progressIZNS2_6Server27write_content_with_providerERNS2_6StreamERKNS2_7RequestERNS2_8ResponseERKNS_12basic_stringIcNS_11char_traitsIcEENS_9allocatorIcEEEESK_EUlvE_EEbS7_RKNS_8functionIFbmmRNS2_8DataSinkEEEEmmT_RKNSM_IFbmmEEERNS2_5ErrorEEUlvE_NSG_IS10_EEFbvEE7__cloneEv, symObjAddr: 0x16FD8, symBinAddr: 0x100017750, symSize: 0x34 }
  - { offset: 0x1A9D83, size: 0x8, addend: 0x0, symName: __ZNKSt3__110__function6__funcIZN7httplib6detail27write_content_with_progressIZNS2_6Server27write_content_with_providerERNS2_6StreamERKNS2_7RequestERNS2_8ResponseERKNS_12basic_stringIcNS_11char_traitsIcEENS_9allocatorIcEEEESK_EUlvE_EEbS7_RKNS_8functionIFbmmRNS2_8DataSinkEEEEmmT_RKNSM_IFbmmEEERNS2_5ErrorEEUlvE_NSG_IS10_EEFbvEE7__cloneEPNS0_6__baseIS12_EE, symObjAddr: 0x1700C, symBinAddr: 0x100017784, symSize: 0x14 }
  - { offset: 0x1A9DB9, size: 0x8, addend: 0x0, symName: __ZNKSt3__110__function6__funcIZN7httplib6detail27write_content_with_progressIZNS2_6Server27write_content_with_providerERNS2_6StreamERKNS2_7RequestERNS2_8ResponseERKNS_12basic_stringIcNS_11char_traitsIcEENS_9allocatorIcEEEESK_EUlvE_EEbS7_RKNS_8functionIFbmmRNS2_8DataSinkEEEEmmT_RKNSM_IFbmmEEERNS2_5ErrorEEUlvE_NSG_IS10_EEFbvEE7__cloneEPNS0_6__baseIS12_EE, symObjAddr: 0x1700C, symBinAddr: 0x100017784, symSize: 0x14 }
  - { offset: 0x1A9DE7, size: 0x8, addend: 0x0, symName: __ZNKSt3__110__function6__funcIZN7httplib6detail27write_content_with_progressIZNS2_6Server27write_content_with_providerERNS2_6StreamERKNS2_7RequestERNS2_8ResponseERKNS_12basic_stringIcNS_11char_traitsIcEENS_9allocatorIcEEEESK_EUlvE_EEbS7_RKNS_8functionIFbmmRNS2_8DataSinkEEEEmmT_RKNSM_IFbmmEEERNS2_5ErrorEEUlvE_NSG_IS10_EEFbvEE7__cloneEPNS0_6__baseIS12_EE, symObjAddr: 0x1700C, symBinAddr: 0x100017784, symSize: 0x14 }
  - { offset: 0x1A9E15, size: 0x8, addend: 0x0, symName: __ZNKSt3__110__function6__funcIZN7httplib6detail27write_content_with_progressIZNS2_6Server27write_content_with_providerERNS2_6StreamERKNS2_7RequestERNS2_8ResponseERKNS_12basic_stringIcNS_11char_traitsIcEENS_9allocatorIcEEEESK_EUlvE_EEbS7_RKNS_8functionIFbmmRNS2_8DataSinkEEEEmmT_RKNSM_IFbmmEEERNS2_5ErrorEEUlvE_NSG_IS10_EEFbvEE7__cloneEPNS0_6__baseIS12_EE, symObjAddr: 0x1700C, symBinAddr: 0x100017784, symSize: 0x14 }
  - { offset: 0x1A9E2A, size: 0x8, addend: 0x0, symName: __ZNKSt3__110__function6__funcIZN7httplib6detail27write_content_with_progressIZNS2_6Server27write_content_with_providerERNS2_6StreamERKNS2_7RequestERNS2_8ResponseERKNS_12basic_stringIcNS_11char_traitsIcEENS_9allocatorIcEEEESK_EUlvE_EEbS7_RKNS_8functionIFbmmRNS2_8DataSinkEEEEmmT_RKNSM_IFbmmEEERNS2_5ErrorEEUlvE_NSG_IS10_EEFbvEE7__cloneEPNS0_6__baseIS12_EE, symObjAddr: 0x1700C, symBinAddr: 0x100017784, symSize: 0x14 }
  - { offset: 0x1A9E3F, size: 0x8, addend: 0x0, symName: __ZNSt3__110__function6__funcIZN7httplib6detail27write_content_with_progressIZNS2_6Server27write_content_with_providerERNS2_6StreamERKNS2_7RequestERNS2_8ResponseERKNS_12basic_stringIcNS_11char_traitsIcEENS_9allocatorIcEEEESK_EUlvE_EEbS7_RKNS_8functionIFbmmRNS2_8DataSinkEEEEmmT_RKNSM_IFbmmEEERNS2_5ErrorEEUlvE_NSG_IS10_EEFbvEE7destroyEv, symObjAddr: 0x17020, symBinAddr: 0x100017798, symSize: 0x4 }
  - { offset: 0x1A9E96, size: 0x8, addend: 0x0, symName: __ZNSt3__110__function6__funcIZN7httplib6detail27write_content_with_progressIZNS2_6Server27write_content_with_providerERNS2_6StreamERKNS2_7RequestERNS2_8ResponseERKNS_12basic_stringIcNS_11char_traitsIcEENS_9allocatorIcEEEESK_EUlvE_EEbS7_RKNS_8functionIFbmmRNS2_8DataSinkEEEEmmT_RKNSM_IFbmmEEERNS2_5ErrorEEUlvE_NSG_IS10_EEFbvEE18destroy_deallocateEv, symObjAddr: 0x17024, symBinAddr: 0x10001779C, symSize: 0x4 }
  - { offset: 0x1A9EC9, size: 0x8, addend: 0x0, symName: __ZNSt3__110__function6__funcIZN7httplib6detail27write_content_with_progressIZNS2_6Server27write_content_with_providerERNS2_6StreamERKNS2_7RequestERNS2_8ResponseERKNS_12basic_stringIcNS_11char_traitsIcEENS_9allocatorIcEEEESK_EUlvE_EEbS7_RKNS_8functionIFbmmRNS2_8DataSinkEEEEmmT_RKNSM_IFbmmEEERNS2_5ErrorEEUlvE_NSG_IS10_EEFbvEE18destroy_deallocateEv, symObjAddr: 0x17024, symBinAddr: 0x10001779C, symSize: 0x4 }
  - { offset: 0x1A9EEC, size: 0x8, addend: 0x0, symName: __ZNSt3__110__function6__funcIZN7httplib6detail27write_content_with_progressIZNS2_6Server27write_content_with_providerERNS2_6StreamERKNS2_7RequestERNS2_8ResponseERKNS_12basic_stringIcNS_11char_traitsIcEENS_9allocatorIcEEEESK_EUlvE_EEbS7_RKNS_8functionIFbmmRNS2_8DataSinkEEEEmmT_RKNSM_IFbmmEEERNS2_5ErrorEEUlvE_NSG_IS10_EEFbvEE18destroy_deallocateEv, symObjAddr: 0x17024, symBinAddr: 0x10001779C, symSize: 0x4 }
  - { offset: 0x1A9F1F, size: 0x8, addend: 0x0, symName: __ZNSt3__110__function6__funcIZN7httplib6detail27write_content_with_progressIZNS2_6Server27write_content_with_providerERNS2_6StreamERKNS2_7RequestERNS2_8ResponseERKNS_12basic_stringIcNS_11char_traitsIcEENS_9allocatorIcEEEESK_EUlvE_EEbS7_RKNS_8functionIFbmmRNS2_8DataSinkEEEEmmT_RKNSM_IFbmmEEERNS2_5ErrorEEUlvE_NSG_IS10_EEFbvEE18destroy_deallocateEv, symObjAddr: 0x17024, symBinAddr: 0x10001779C, symSize: 0x4 }
  - { offset: 0x1A9FA3, size: 0x8, addend: 0x0, symName: __ZNSt3__110__function6__funcIZN7httplib6detail27write_content_with_progressIZNS2_6Server27write_content_with_providerERNS2_6StreamERKNS2_7RequestERNS2_8ResponseERKNS_12basic_stringIcNS_11char_traitsIcEENS_9allocatorIcEEEESK_EUlvE_EEbS7_RKNS_8functionIFbmmRNS2_8DataSinkEEEEmmT_RKNSM_IFbmmEEERNS2_5ErrorEEUlvE_NSG_IS10_EEFbvEEclEv, symObjAddr: 0x17028, symBinAddr: 0x1000177A0, symSize: 0x10 }
  - { offset: 0x1A9FCC, size: 0x8, addend: 0x0, symName: __ZNSt3__110__function6__funcIZN7httplib6detail27write_content_with_progressIZNS2_6Server27write_content_with_providerERNS2_6StreamERKNS2_7RequestERNS2_8ResponseERKNS_12basic_stringIcNS_11char_traitsIcEENS_9allocatorIcEEEESK_EUlvE_EEbS7_RKNS_8functionIFbmmRNS2_8DataSinkEEEEmmT_RKNSM_IFbmmEEERNS2_5ErrorEEUlvE_NSG_IS10_EEFbvEEclEv, symObjAddr: 0x17028, symBinAddr: 0x1000177A0, symSize: 0x10 }
  - { offset: 0x1A9FEA, size: 0x8, addend: 0x0, symName: __ZNSt3__110__function6__funcIZN7httplib6detail27write_content_with_progressIZNS2_6Server27write_content_with_providerERNS2_6StreamERKNS2_7RequestERNS2_8ResponseERKNS_12basic_stringIcNS_11char_traitsIcEENS_9allocatorIcEEEESK_EUlvE_EEbS7_RKNS_8functionIFbmmRNS2_8DataSinkEEEEmmT_RKNSM_IFbmmEEERNS2_5ErrorEEUlvE_NSG_IS10_EEFbvEEclEv, symObjAddr: 0x17028, symBinAddr: 0x1000177A0, symSize: 0x10 }
  - { offset: 0x1AA007, size: 0x8, addend: 0x0, symName: __ZNSt3__110__function6__funcIZN7httplib6detail27write_content_with_progressIZNS2_6Server27write_content_with_providerERNS2_6StreamERKNS2_7RequestERNS2_8ResponseERKNS_12basic_stringIcNS_11char_traitsIcEENS_9allocatorIcEEEESK_EUlvE_EEbS7_RKNS_8functionIFbmmRNS2_8DataSinkEEEEmmT_RKNSM_IFbmmEEERNS2_5ErrorEEUlvE_NSG_IS10_EEFbvEEclEv, symObjAddr: 0x17028, symBinAddr: 0x1000177A0, symSize: 0x10 }
  - { offset: 0x1AA025, size: 0x8, addend: 0x0, symName: __ZNSt3__110__function6__funcIZN7httplib6detail27write_content_with_progressIZNS2_6Server27write_content_with_providerERNS2_6StreamERKNS2_7RequestERNS2_8ResponseERKNS_12basic_stringIcNS_11char_traitsIcEENS_9allocatorIcEEEESK_EUlvE_EEbS7_RKNS_8functionIFbmmRNS2_8DataSinkEEEEmmT_RKNSM_IFbmmEEERNS2_5ErrorEEUlvE_NSG_IS10_EEFbvEEclEv, symObjAddr: 0x17028, symBinAddr: 0x1000177A0, symSize: 0x10 }
  - { offset: 0x1AA042, size: 0x8, addend: 0x0, symName: __ZNSt3__110__function6__funcIZN7httplib6detail27write_content_with_progressIZNS2_6Server27write_content_with_providerERNS2_6StreamERKNS2_7RequestERNS2_8ResponseERKNS_12basic_stringIcNS_11char_traitsIcEENS_9allocatorIcEEEESK_EUlvE_EEbS7_RKNS_8functionIFbmmRNS2_8DataSinkEEEEmmT_RKNSM_IFbmmEEERNS2_5ErrorEEUlvE_NSG_IS10_EEFbvEEclEv, symObjAddr: 0x17028, symBinAddr: 0x1000177A0, symSize: 0x10 }
  - { offset: 0x1AA06E, size: 0x8, addend: 0x0, symName: __ZNKSt3__110__function6__funcIZN7httplib6detail27write_content_with_progressIZNS2_6Server27write_content_with_providerERNS2_6StreamERKNS2_7RequestERNS2_8ResponseERKNS_12basic_stringIcNS_11char_traitsIcEENS_9allocatorIcEEEESK_EUlvE_EEbS7_RKNS_8functionIFbmmRNS2_8DataSinkEEEEmmT_RKNSM_IFbmmEEERNS2_5ErrorEEUlvE_NSG_IS10_EEFbvEE6targetERKSt9type_info, symObjAddr: 0x17038, symBinAddr: 0x1000177B0, symSize: 0x64 }
  - { offset: 0x1AA121, size: 0x8, addend: 0x0, symName: __ZNKSt3__110__function6__funcIZN7httplib6detail27write_content_with_progressIZNS2_6Server27write_content_with_providerERNS2_6StreamERKNS2_7RequestERNS2_8ResponseERKNS_12basic_stringIcNS_11char_traitsIcEENS_9allocatorIcEEEESK_EUlvE_EEbS7_RKNS_8functionIFbmmRNS2_8DataSinkEEEEmmT_RKNSM_IFbmmEEERNS2_5ErrorEEUlvE_NSG_IS10_EEFbvEE11target_typeEv, symObjAddr: 0x1709C, symBinAddr: 0x100017814, symSize: 0xC }
  - { offset: 0x1AA262, size: 0x8, addend: 0x0, symName: __ZN7httplib6detail12nocompressorD1Ev, symObjAddr: 0x1780C, symBinAddr: 0x100017F84, symSize: 0x4 }
  - { offset: 0x1AA28B, size: 0x8, addend: 0x0, symName: __ZN7httplib6detail12nocompressorD0Ev, symObjAddr: 0x17810, symBinAddr: 0x100017F88, symSize: 0x4 }
  - { offset: 0x1AA2B4, size: 0x8, addend: 0x0, symName: __ZN7httplib6detail12nocompressor8compressEPKcmbNSt3__18functionIFbS3_mEEE, symObjAddr: 0x17814, symBinAddr: 0x100017F8C, symSize: 0x50 }
  - { offset: 0x1AA386, size: 0x8, addend: 0x0, symName: __ZN7httplib6detail21write_content_chunkedIZNS_6Server27write_content_with_providerERNS_6StreamERKNS_7RequestERNS_8ResponseERKNSt3__112basic_stringIcNSA_11char_traitsIcEENSA_9allocatorIcEEEESI_EUlvE_NS0_10compressorEEEbS4_RKNSA_8functionIFbmmRNS_8DataSinkEEEERKT_RT0_RNS_5ErrorE, symObjAddr: 0x17864, symBinAddr: 0x100017FDC, symSize: 0x3A4 }
  - { offset: 0x1AABFC, size: 0x8, addend: 0x0, symName: __ZNSt3__110__function12__value_funcIFvRKNS_18unordered_multimapINS_12basic_stringIcNS_11char_traitsIcEENS_9allocatorIcEEEES8_N7httplib6detail11case_ignore4hashENSB_8equal_toENS6_INS_4pairIKS8_S8_EEEEEEEE4swapB8ne200100ERSM_, symObjAddr: 0x18C98, symBinAddr: 0x100019410, symSize: 0x198 }
  - { offset: 0x1AAD30, size: 0x8, addend: 0x0, symName: __ZNSt3__110__function6__funcIZN7httplib6detail21write_content_chunkedIZNS2_6Server27write_content_with_providerERNS2_6StreamERKNS2_7RequestERNS2_8ResponseERKNS_12basic_stringIcNS_11char_traitsIcEENS_9allocatorIcEEEESK_EUlvE_NS3_10compressorEEEbS7_RKNS_8functionIFbmmRNS2_8DataSinkEEEERKT_RT0_RNS2_5ErrorEEUlPKcmE_NSG_IS13_EEFbS12_mEED1Ev, symObjAddr: 0x17C08, symBinAddr: 0x100018380, symSize: 0x4 }
  - { offset: 0x1AAD5C, size: 0x8, addend: 0x0, symName: __ZNSt3__110__function6__funcIZN7httplib6detail21write_content_chunkedIZNS2_6Server27write_content_with_providerERNS2_6StreamERKNS2_7RequestERNS2_8ResponseERKNS_12basic_stringIcNS_11char_traitsIcEENS_9allocatorIcEEEESK_EUlvE_NS3_10compressorEEEbS7_RKNS_8functionIFbmmRNS2_8DataSinkEEEERKT_RT0_RNS2_5ErrorEEUlPKcmE_NSG_IS13_EEFbS12_mEED0Ev, symObjAddr: 0x17C0C, symBinAddr: 0x100018384, symSize: 0x4 }
  - { offset: 0x1AAE4C, size: 0x8, addend: 0x0, symName: __ZNKSt3__110__function6__funcIZN7httplib6detail21write_content_chunkedIZNS2_6Server27write_content_with_providerERNS2_6StreamERKNS2_7RequestERNS2_8ResponseERKNS_12basic_stringIcNS_11char_traitsIcEENS_9allocatorIcEEEESK_EUlvE_NS3_10compressorEEEbS7_RKNS_8functionIFbmmRNS2_8DataSinkEEEERKT_RT0_RNS2_5ErrorEEUlPKcmE_NSG_IS13_EEFbS12_mEE7__cloneEv, symObjAddr: 0x17C10, symBinAddr: 0x100018388, symSize: 0x48 }
  - { offset: 0x1AB05D, size: 0x8, addend: 0x0, symName: __ZNKSt3__110__function6__funcIZN7httplib6detail21write_content_chunkedIZNS2_6Server27write_content_with_providerERNS2_6StreamERKNS2_7RequestERNS2_8ResponseERKNS_12basic_stringIcNS_11char_traitsIcEENS_9allocatorIcEEEESK_EUlvE_NS3_10compressorEEEbS7_RKNS_8functionIFbmmRNS2_8DataSinkEEEERKT_RT0_RNS2_5ErrorEEUlPKcmE_NSG_IS13_EEFbS12_mEE7__cloneEPNS0_6__baseIS15_EE, symObjAddr: 0x17C58, symBinAddr: 0x1000183D0, symSize: 0x28 }
  - { offset: 0x1AB093, size: 0x8, addend: 0x0, symName: __ZNKSt3__110__function6__funcIZN7httplib6detail21write_content_chunkedIZNS2_6Server27write_content_with_providerERNS2_6StreamERKNS2_7RequestERNS2_8ResponseERKNS_12basic_stringIcNS_11char_traitsIcEENS_9allocatorIcEEEESK_EUlvE_NS3_10compressorEEEbS7_RKNS_8functionIFbmmRNS2_8DataSinkEEEERKT_RT0_RNS2_5ErrorEEUlPKcmE_NSG_IS13_EEFbS12_mEE7__cloneEPNS0_6__baseIS15_EE, symObjAddr: 0x17C58, symBinAddr: 0x1000183D0, symSize: 0x28 }
  - { offset: 0x1AB0C1, size: 0x8, addend: 0x0, symName: __ZNKSt3__110__function6__funcIZN7httplib6detail21write_content_chunkedIZNS2_6Server27write_content_with_providerERNS2_6StreamERKNS2_7RequestERNS2_8ResponseERKNS_12basic_stringIcNS_11char_traitsIcEENS_9allocatorIcEEEESK_EUlvE_NS3_10compressorEEEbS7_RKNS_8functionIFbmmRNS2_8DataSinkEEEERKT_RT0_RNS2_5ErrorEEUlPKcmE_NSG_IS13_EEFbS12_mEE7__cloneEPNS0_6__baseIS15_EE, symObjAddr: 0x17C58, symBinAddr: 0x1000183D0, symSize: 0x28 }
  - { offset: 0x1AB150, size: 0x8, addend: 0x0, symName: __ZNSt3__110__function6__funcIZN7httplib6detail21write_content_chunkedIZNS2_6Server27write_content_with_providerERNS2_6StreamERKNS2_7RequestERNS2_8ResponseERKNS_12basic_stringIcNS_11char_traitsIcEENS_9allocatorIcEEEESK_EUlvE_NS3_10compressorEEEbS7_RKNS_8functionIFbmmRNS2_8DataSinkEEEERKT_RT0_RNS2_5ErrorEEUlPKcmE_NSG_IS13_EEFbS12_mEE7destroyEv, symObjAddr: 0x17C80, symBinAddr: 0x1000183F8, symSize: 0x4 }
  - { offset: 0x1AB1A7, size: 0x8, addend: 0x0, symName: __ZNSt3__110__function6__funcIZN7httplib6detail21write_content_chunkedIZNS2_6Server27write_content_with_providerERNS2_6StreamERKNS2_7RequestERNS2_8ResponseERKNS_12basic_stringIcNS_11char_traitsIcEENS_9allocatorIcEEEESK_EUlvE_NS3_10compressorEEEbS7_RKNS_8functionIFbmmRNS2_8DataSinkEEEERKT_RT0_RNS2_5ErrorEEUlPKcmE_NSG_IS13_EEFbS12_mEE18destroy_deallocateEv, symObjAddr: 0x17C84, symBinAddr: 0x1000183FC, symSize: 0x4 }
  - { offset: 0x1AB1DA, size: 0x8, addend: 0x0, symName: __ZNSt3__110__function6__funcIZN7httplib6detail21write_content_chunkedIZNS2_6Server27write_content_with_providerERNS2_6StreamERKNS2_7RequestERNS2_8ResponseERKNS_12basic_stringIcNS_11char_traitsIcEENS_9allocatorIcEEEESK_EUlvE_NS3_10compressorEEEbS7_RKNS_8functionIFbmmRNS2_8DataSinkEEEERKT_RT0_RNS2_5ErrorEEUlPKcmE_NSG_IS13_EEFbS12_mEE18destroy_deallocateEv, symObjAddr: 0x17C84, symBinAddr: 0x1000183FC, symSize: 0x4 }
  - { offset: 0x1AB1FD, size: 0x8, addend: 0x0, symName: __ZNSt3__110__function6__funcIZN7httplib6detail21write_content_chunkedIZNS2_6Server27write_content_with_providerERNS2_6StreamERKNS2_7RequestERNS2_8ResponseERKNS_12basic_stringIcNS_11char_traitsIcEENS_9allocatorIcEEEESK_EUlvE_NS3_10compressorEEEbS7_RKNS_8functionIFbmmRNS2_8DataSinkEEEERKT_RT0_RNS2_5ErrorEEUlPKcmE_NSG_IS13_EEFbS12_mEE18destroy_deallocateEv, symObjAddr: 0x17C84, symBinAddr: 0x1000183FC, symSize: 0x4 }
  - { offset: 0x1AB231, size: 0x8, addend: 0x0, symName: __ZNSt3__110__function6__funcIZN7httplib6detail21write_content_chunkedIZNS2_6Server27write_content_with_providerERNS2_6StreamERKNS2_7RequestERNS2_8ResponseERKNS_12basic_stringIcNS_11char_traitsIcEENS_9allocatorIcEEEESK_EUlvE_NS3_10compressorEEEbS7_RKNS_8functionIFbmmRNS2_8DataSinkEEEERKT_RT0_RNS2_5ErrorEEUlPKcmE_NSG_IS13_EEFbS12_mEE18destroy_deallocateEv, symObjAddr: 0x17C84, symBinAddr: 0x1000183FC, symSize: 0x4 }
  - { offset: 0x1AB2CD, size: 0x8, addend: 0x0, symName: __ZNSt3__110__function6__funcIZN7httplib6detail21write_content_chunkedIZNS2_6Server27write_content_with_providerERNS2_6StreamERKNS2_7RequestERNS2_8ResponseERKNS_12basic_stringIcNS_11char_traitsIcEENS_9allocatorIcEEEESK_EUlvE_NS3_10compressorEEEbS7_RKNS_8functionIFbmmRNS2_8DataSinkEEEERKT_RT0_RNS2_5ErrorEEUlPKcmE_NSG_IS13_EEFbS12_mEEclEOS12_Om, symObjAddr: 0x17C88, symBinAddr: 0x100018400, symSize: 0x10 }
  - { offset: 0x1AB3A0, size: 0x8, addend: 0x0, symName: __ZNKSt3__110__function6__funcIZN7httplib6detail21write_content_chunkedIZNS2_6Server27write_content_with_providerERNS2_6StreamERKNS2_7RequestERNS2_8ResponseERKNS_12basic_stringIcNS_11char_traitsIcEENS_9allocatorIcEEEESK_EUlvE_NS3_10compressorEEEbS7_RKNS_8functionIFbmmRNS2_8DataSinkEEEERKT_RT0_RNS2_5ErrorEEUlPKcmE_NSG_IS13_EEFbS12_mEE6targetERKSt9type_info, symObjAddr: 0x17C98, symBinAddr: 0x100018410, symSize: 0x64 }
  - { offset: 0x1AB453, size: 0x8, addend: 0x0, symName: __ZNKSt3__110__function6__funcIZN7httplib6detail21write_content_chunkedIZNS2_6Server27write_content_with_providerERNS2_6StreamERKNS2_7RequestERNS2_8ResponseERKNS_12basic_stringIcNS_11char_traitsIcEENS_9allocatorIcEEEESK_EUlvE_NS3_10compressorEEEbS7_RKNS_8functionIFbmmRNS2_8DataSinkEEEERKT_RT0_RNS2_5ErrorEEUlPKcmE_NSG_IS13_EEFbS12_mEE11target_typeEv, symObjAddr: 0x17CFC, symBinAddr: 0x100018474, symSize: 0xC }
  - { offset: 0x1AB62A, size: 0x8, addend: 0x0, symName: __ZNSt3__110__function6__funcIZZN7httplib6detail21write_content_chunkedIZNS2_6Server27write_content_with_providerERNS2_6StreamERKNS2_7RequestERNS2_8ResponseERKNS_12basic_stringIcNS_11char_traitsIcEENS_9allocatorIcEEEESK_EUlvE_NS3_10compressorEEEbS7_RKNS_8functionIFbmmRNS2_8DataSinkEEEERKT_RT0_RNS2_5ErrorEENKUlPKcmE_clES12_mEUlS12_mE_NSG_IS14_EEFbS12_mEED1Ev, symObjAddr: 0x18154, symBinAddr: 0x1000188CC, symSize: 0x4 }
  - { offset: 0x1AB656, size: 0x8, addend: 0x0, symName: __ZNSt3__110__function6__funcIZZN7httplib6detail21write_content_chunkedIZNS2_6Server27write_content_with_providerERNS2_6StreamERKNS2_7RequestERNS2_8ResponseERKNS_12basic_stringIcNS_11char_traitsIcEENS_9allocatorIcEEEESK_EUlvE_NS3_10compressorEEEbS7_RKNS_8functionIFbmmRNS2_8DataSinkEEEERKT_RT0_RNS2_5ErrorEENKUlPKcmE_clES12_mEUlS12_mE_NSG_IS14_EEFbS12_mEED0Ev, symObjAddr: 0x18158, symBinAddr: 0x1000188D0, symSize: 0x4 }
  - { offset: 0x1AB76D, size: 0x8, addend: 0x0, symName: __ZNKSt3__110__function6__funcIZZN7httplib6detail21write_content_chunkedIZNS2_6Server27write_content_with_providerERNS2_6StreamERKNS2_7RequestERNS2_8ResponseERKNS_12basic_stringIcNS_11char_traitsIcEENS_9allocatorIcEEEESK_EUlvE_NS3_10compressorEEEbS7_RKNS_8functionIFbmmRNS2_8DataSinkEEEERKT_RT0_RNS2_5ErrorEENKUlPKcmE_clES12_mEUlS12_mE_NSG_IS14_EEFbS12_mEE7__cloneEv, symObjAddr: 0x1815C, symBinAddr: 0x1000188D4, symSize: 0x34 }
  - { offset: 0x1AB96C, size: 0x8, addend: 0x0, symName: __ZNKSt3__110__function6__funcIZZN7httplib6detail21write_content_chunkedIZNS2_6Server27write_content_with_providerERNS2_6StreamERKNS2_7RequestERNS2_8ResponseERKNS_12basic_stringIcNS_11char_traitsIcEENS_9allocatorIcEEEESK_EUlvE_NS3_10compressorEEEbS7_RKNS_8functionIFbmmRNS2_8DataSinkEEEERKT_RT0_RNS2_5ErrorEENKUlPKcmE_clES12_mEUlS12_mE_NSG_IS14_EEFbS12_mEE7__cloneEPNS0_6__baseIS16_EE, symObjAddr: 0x18190, symBinAddr: 0x100018908, symSize: 0x14 }
  - { offset: 0x1AB9A2, size: 0x8, addend: 0x0, symName: __ZNKSt3__110__function6__funcIZZN7httplib6detail21write_content_chunkedIZNS2_6Server27write_content_with_providerERNS2_6StreamERKNS2_7RequestERNS2_8ResponseERKNS_12basic_stringIcNS_11char_traitsIcEENS_9allocatorIcEEEESK_EUlvE_NS3_10compressorEEEbS7_RKNS_8functionIFbmmRNS2_8DataSinkEEEERKT_RT0_RNS2_5ErrorEENKUlPKcmE_clES12_mEUlS12_mE_NSG_IS14_EEFbS12_mEE7__cloneEPNS0_6__baseIS16_EE, symObjAddr: 0x18190, symBinAddr: 0x100018908, symSize: 0x14 }
  - { offset: 0x1AB9D0, size: 0x8, addend: 0x0, symName: __ZNKSt3__110__function6__funcIZZN7httplib6detail21write_content_chunkedIZNS2_6Server27write_content_with_providerERNS2_6StreamERKNS2_7RequestERNS2_8ResponseERKNS_12basic_stringIcNS_11char_traitsIcEENS_9allocatorIcEEEESK_EUlvE_NS3_10compressorEEEbS7_RKNS_8functionIFbmmRNS2_8DataSinkEEEERKT_RT0_RNS2_5ErrorEENKUlPKcmE_clES12_mEUlS12_mE_NSG_IS14_EEFbS12_mEE7__cloneEPNS0_6__baseIS16_EE, symObjAddr: 0x18190, symBinAddr: 0x100018908, symSize: 0x14 }
  - { offset: 0x1AB9FE, size: 0x8, addend: 0x0, symName: __ZNKSt3__110__function6__funcIZZN7httplib6detail21write_content_chunkedIZNS2_6Server27write_content_with_providerERNS2_6StreamERKNS2_7RequestERNS2_8ResponseERKNS_12basic_stringIcNS_11char_traitsIcEENS_9allocatorIcEEEESK_EUlvE_NS3_10compressorEEEbS7_RKNS_8functionIFbmmRNS2_8DataSinkEEEERKT_RT0_RNS2_5ErrorEENKUlPKcmE_clES12_mEUlS12_mE_NSG_IS14_EEFbS12_mEE7__cloneEPNS0_6__baseIS16_EE, symObjAddr: 0x18190, symBinAddr: 0x100018908, symSize: 0x14 }
  - { offset: 0x1ABA13, size: 0x8, addend: 0x0, symName: __ZNKSt3__110__function6__funcIZZN7httplib6detail21write_content_chunkedIZNS2_6Server27write_content_with_providerERNS2_6StreamERKNS2_7RequestERNS2_8ResponseERKNS_12basic_stringIcNS_11char_traitsIcEENS_9allocatorIcEEEESK_EUlvE_NS3_10compressorEEEbS7_RKNS_8functionIFbmmRNS2_8DataSinkEEEERKT_RT0_RNS2_5ErrorEENKUlPKcmE_clES12_mEUlS12_mE_NSG_IS14_EEFbS12_mEE7__cloneEPNS0_6__baseIS16_EE, symObjAddr: 0x18190, symBinAddr: 0x100018908, symSize: 0x14 }
  - { offset: 0x1ABA28, size: 0x8, addend: 0x0, symName: __ZNSt3__110__function6__funcIZZN7httplib6detail21write_content_chunkedIZNS2_6Server27write_content_with_providerERNS2_6StreamERKNS2_7RequestERNS2_8ResponseERKNS_12basic_stringIcNS_11char_traitsIcEENS_9allocatorIcEEEESK_EUlvE_NS3_10compressorEEEbS7_RKNS_8functionIFbmmRNS2_8DataSinkEEEERKT_RT0_RNS2_5ErrorEENKUlPKcmE_clES12_mEUlS12_mE_NSG_IS14_EEFbS12_mEE7destroyEv, symObjAddr: 0x181A4, symBinAddr: 0x10001891C, symSize: 0x4 }
  - { offset: 0x1ABA7F, size: 0x8, addend: 0x0, symName: __ZNSt3__110__function6__funcIZZN7httplib6detail21write_content_chunkedIZNS2_6Server27write_content_with_providerERNS2_6StreamERKNS2_7RequestERNS2_8ResponseERKNS_12basic_stringIcNS_11char_traitsIcEENS_9allocatorIcEEEESK_EUlvE_NS3_10compressorEEEbS7_RKNS_8functionIFbmmRNS2_8DataSinkEEEERKT_RT0_RNS2_5ErrorEENKUlPKcmE_clES12_mEUlS12_mE_NSG_IS14_EEFbS12_mEE18destroy_deallocateEv, symObjAddr: 0x181A8, symBinAddr: 0x100018920, symSize: 0x4 }
  - { offset: 0x1ABAB2, size: 0x8, addend: 0x0, symName: __ZNSt3__110__function6__funcIZZN7httplib6detail21write_content_chunkedIZNS2_6Server27write_content_with_providerERNS2_6StreamERKNS2_7RequestERNS2_8ResponseERKNS_12basic_stringIcNS_11char_traitsIcEENS_9allocatorIcEEEESK_EUlvE_NS3_10compressorEEEbS7_RKNS_8functionIFbmmRNS2_8DataSinkEEEERKT_RT0_RNS2_5ErrorEENKUlPKcmE_clES12_mEUlS12_mE_NSG_IS14_EEFbS12_mEE18destroy_deallocateEv, symObjAddr: 0x181A8, symBinAddr: 0x100018920, symSize: 0x4 }
  - { offset: 0x1ABAD5, size: 0x8, addend: 0x0, symName: __ZNSt3__110__function6__funcIZZN7httplib6detail21write_content_chunkedIZNS2_6Server27write_content_with_providerERNS2_6StreamERKNS2_7RequestERNS2_8ResponseERKNS_12basic_stringIcNS_11char_traitsIcEENS_9allocatorIcEEEESK_EUlvE_NS3_10compressorEEEbS7_RKNS_8functionIFbmmRNS2_8DataSinkEEEERKT_RT0_RNS2_5ErrorEENKUlPKcmE_clES12_mEUlS12_mE_NSG_IS14_EEFbS12_mEE18destroy_deallocateEv, symObjAddr: 0x181A8, symBinAddr: 0x100018920, symSize: 0x4 }
  - { offset: 0x1ABB08, size: 0x8, addend: 0x0, symName: __ZNSt3__110__function6__funcIZZN7httplib6detail21write_content_chunkedIZNS2_6Server27write_content_with_providerERNS2_6StreamERKNS2_7RequestERNS2_8ResponseERKNS_12basic_stringIcNS_11char_traitsIcEENS_9allocatorIcEEEESK_EUlvE_NS3_10compressorEEEbS7_RKNS_8functionIFbmmRNS2_8DataSinkEEEERKT_RT0_RNS2_5ErrorEENKUlPKcmE_clES12_mEUlS12_mE_NSG_IS14_EEFbS12_mEE18destroy_deallocateEv, symObjAddr: 0x181A8, symBinAddr: 0x100018920, symSize: 0x4 }
  - { offset: 0x1ABBE2, size: 0x8, addend: 0x0, symName: __ZNSt3__110__function6__funcIZZN7httplib6detail21write_content_chunkedIZNS2_6Server27write_content_with_providerERNS2_6StreamERKNS2_7RequestERNS2_8ResponseERKNS_12basic_stringIcNS_11char_traitsIcEENS_9allocatorIcEEEESK_EUlvE_NS3_10compressorEEEbS7_RKNS_8functionIFbmmRNS2_8DataSinkEEEERKT_RT0_RNS2_5ErrorEENKUlPKcmE_clES12_mEUlS12_mE_NSG_IS14_EEFbS12_mEEclEOS12_Om, symObjAddr: 0x181AC, symBinAddr: 0x100018924, symSize: 0x24 }
  - { offset: 0x1ABD17, size: 0x8, addend: 0x0, symName: __ZNKSt3__110__function6__funcIZZN7httplib6detail21write_content_chunkedIZNS2_6Server27write_content_with_providerERNS2_6StreamERKNS2_7RequestERNS2_8ResponseERKNS_12basic_stringIcNS_11char_traitsIcEENS_9allocatorIcEEEESK_EUlvE_NS3_10compressorEEEbS7_RKNS_8functionIFbmmRNS2_8DataSinkEEEERKT_RT0_RNS2_5ErrorEENKUlPKcmE_clES12_mEUlS12_mE_NSG_IS14_EEFbS12_mEE6targetERKSt9type_info, symObjAddr: 0x181D0, symBinAddr: 0x100018948, symSize: 0x64 }
  - { offset: 0x1ABDCA, size: 0x8, addend: 0x0, symName: __ZNKSt3__110__function6__funcIZZN7httplib6detail21write_content_chunkedIZNS2_6Server27write_content_with_providerERNS2_6StreamERKNS2_7RequestERNS2_8ResponseERKNS_12basic_stringIcNS_11char_traitsIcEENS_9allocatorIcEEEESK_EUlvE_NS3_10compressorEEEbS7_RKNS_8functionIFbmmRNS2_8DataSinkEEEERKT_RT0_RNS2_5ErrorEENKUlPKcmE_clES12_mEUlS12_mE_NSG_IS14_EEFbS12_mEE11target_typeEv, symObjAddr: 0x18234, symBinAddr: 0x1000189AC, symSize: 0xC }
  - { offset: 0x1ABDF1, size: 0x8, addend: 0x0, symName: __ZNSt3__110__function6__funcIZN7httplib6detail21write_content_chunkedIZNS2_6Server27write_content_with_providerERNS2_6StreamERKNS2_7RequestERNS2_8ResponseERKNS_12basic_stringIcNS_11char_traitsIcEENS_9allocatorIcEEEESK_EUlvE_NS3_10compressorEEEbS7_RKNS_8functionIFbmmRNS2_8DataSinkEEEERKT_RT0_RNS2_5ErrorEEUlvE_NSG_IS11_EEFbvEED1Ev, symObjAddr: 0x18240, symBinAddr: 0x1000189B8, symSize: 0x4 }
  - { offset: 0x1ABE1D, size: 0x8, addend: 0x0, symName: __ZNSt3__110__function6__funcIZN7httplib6detail21write_content_chunkedIZNS2_6Server27write_content_with_providerERNS2_6StreamERKNS2_7RequestERNS2_8ResponseERKNS_12basic_stringIcNS_11char_traitsIcEENS_9allocatorIcEEEESK_EUlvE_NS3_10compressorEEEbS7_RKNS_8functionIFbmmRNS2_8DataSinkEEEERKT_RT0_RNS2_5ErrorEEUlvE_NSG_IS11_EEFbvEED0Ev, symObjAddr: 0x18244, symBinAddr: 0x1000189BC, symSize: 0x4 }
  - { offset: 0x1ABF34, size: 0x8, addend: 0x0, symName: __ZNKSt3__110__function6__funcIZN7httplib6detail21write_content_chunkedIZNS2_6Server27write_content_with_providerERNS2_6StreamERKNS2_7RequestERNS2_8ResponseERKNS_12basic_stringIcNS_11char_traitsIcEENS_9allocatorIcEEEESK_EUlvE_NS3_10compressorEEEbS7_RKNS_8functionIFbmmRNS2_8DataSinkEEEERKT_RT0_RNS2_5ErrorEEUlvE_NSG_IS11_EEFbvEE7__cloneEv, symObjAddr: 0x18248, symBinAddr: 0x1000189C0, symSize: 0x34 }
  - { offset: 0x1AC133, size: 0x8, addend: 0x0, symName: __ZNKSt3__110__function6__funcIZN7httplib6detail21write_content_chunkedIZNS2_6Server27write_content_with_providerERNS2_6StreamERKNS2_7RequestERNS2_8ResponseERKNS_12basic_stringIcNS_11char_traitsIcEENS_9allocatorIcEEEESK_EUlvE_NS3_10compressorEEEbS7_RKNS_8functionIFbmmRNS2_8DataSinkEEEERKT_RT0_RNS2_5ErrorEEUlvE_NSG_IS11_EEFbvEE7__cloneEPNS0_6__baseIS13_EE, symObjAddr: 0x1827C, symBinAddr: 0x1000189F4, symSize: 0x14 }
  - { offset: 0x1AC169, size: 0x8, addend: 0x0, symName: __ZNKSt3__110__function6__funcIZN7httplib6detail21write_content_chunkedIZNS2_6Server27write_content_with_providerERNS2_6StreamERKNS2_7RequestERNS2_8ResponseERKNS_12basic_stringIcNS_11char_traitsIcEENS_9allocatorIcEEEESK_EUlvE_NS3_10compressorEEEbS7_RKNS_8functionIFbmmRNS2_8DataSinkEEEERKT_RT0_RNS2_5ErrorEEUlvE_NSG_IS11_EEFbvEE7__cloneEPNS0_6__baseIS13_EE, symObjAddr: 0x1827C, symBinAddr: 0x1000189F4, symSize: 0x14 }
  - { offset: 0x1AC197, size: 0x8, addend: 0x0, symName: __ZNKSt3__110__function6__funcIZN7httplib6detail21write_content_chunkedIZNS2_6Server27write_content_with_providerERNS2_6StreamERKNS2_7RequestERNS2_8ResponseERKNS_12basic_stringIcNS_11char_traitsIcEENS_9allocatorIcEEEESK_EUlvE_NS3_10compressorEEEbS7_RKNS_8functionIFbmmRNS2_8DataSinkEEEERKT_RT0_RNS2_5ErrorEEUlvE_NSG_IS11_EEFbvEE7__cloneEPNS0_6__baseIS13_EE, symObjAddr: 0x1827C, symBinAddr: 0x1000189F4, symSize: 0x14 }
  - { offset: 0x1AC1C5, size: 0x8, addend: 0x0, symName: __ZNKSt3__110__function6__funcIZN7httplib6detail21write_content_chunkedIZNS2_6Server27write_content_with_providerERNS2_6StreamERKNS2_7RequestERNS2_8ResponseERKNS_12basic_stringIcNS_11char_traitsIcEENS_9allocatorIcEEEESK_EUlvE_NS3_10compressorEEEbS7_RKNS_8functionIFbmmRNS2_8DataSinkEEEERKT_RT0_RNS2_5ErrorEEUlvE_NSG_IS11_EEFbvEE7__cloneEPNS0_6__baseIS13_EE, symObjAddr: 0x1827C, symBinAddr: 0x1000189F4, symSize: 0x14 }
  - { offset: 0x1AC1DA, size: 0x8, addend: 0x0, symName: __ZNKSt3__110__function6__funcIZN7httplib6detail21write_content_chunkedIZNS2_6Server27write_content_with_providerERNS2_6StreamERKNS2_7RequestERNS2_8ResponseERKNS_12basic_stringIcNS_11char_traitsIcEENS_9allocatorIcEEEESK_EUlvE_NS3_10compressorEEEbS7_RKNS_8functionIFbmmRNS2_8DataSinkEEEERKT_RT0_RNS2_5ErrorEEUlvE_NSG_IS11_EEFbvEE7__cloneEPNS0_6__baseIS13_EE, symObjAddr: 0x1827C, symBinAddr: 0x1000189F4, symSize: 0x14 }
  - { offset: 0x1AC1EF, size: 0x8, addend: 0x0, symName: __ZNSt3__110__function6__funcIZN7httplib6detail21write_content_chunkedIZNS2_6Server27write_content_with_providerERNS2_6StreamERKNS2_7RequestERNS2_8ResponseERKNS_12basic_stringIcNS_11char_traitsIcEENS_9allocatorIcEEEESK_EUlvE_NS3_10compressorEEEbS7_RKNS_8functionIFbmmRNS2_8DataSinkEEEERKT_RT0_RNS2_5ErrorEEUlvE_NSG_IS11_EEFbvEE7destroyEv, symObjAddr: 0x18290, symBinAddr: 0x100018A08, symSize: 0x4 }
  - { offset: 0x1AC246, size: 0x8, addend: 0x0, symName: __ZNSt3__110__function6__funcIZN7httplib6detail21write_content_chunkedIZNS2_6Server27write_content_with_providerERNS2_6StreamERKNS2_7RequestERNS2_8ResponseERKNS_12basic_stringIcNS_11char_traitsIcEENS_9allocatorIcEEEESK_EUlvE_NS3_10compressorEEEbS7_RKNS_8functionIFbmmRNS2_8DataSinkEEEERKT_RT0_RNS2_5ErrorEEUlvE_NSG_IS11_EEFbvEE18destroy_deallocateEv, symObjAddr: 0x18294, symBinAddr: 0x100018A0C, symSize: 0x4 }
  - { offset: 0x1AC279, size: 0x8, addend: 0x0, symName: __ZNSt3__110__function6__funcIZN7httplib6detail21write_content_chunkedIZNS2_6Server27write_content_with_providerERNS2_6StreamERKNS2_7RequestERNS2_8ResponseERKNS_12basic_stringIcNS_11char_traitsIcEENS_9allocatorIcEEEESK_EUlvE_NS3_10compressorEEEbS7_RKNS_8functionIFbmmRNS2_8DataSinkEEEERKT_RT0_RNS2_5ErrorEEUlvE_NSG_IS11_EEFbvEE18destroy_deallocateEv, symObjAddr: 0x18294, symBinAddr: 0x100018A0C, symSize: 0x4 }
  - { offset: 0x1AC29C, size: 0x8, addend: 0x0, symName: __ZNSt3__110__function6__funcIZN7httplib6detail21write_content_chunkedIZNS2_6Server27write_content_with_providerERNS2_6StreamERKNS2_7RequestERNS2_8ResponseERKNS_12basic_stringIcNS_11char_traitsIcEENS_9allocatorIcEEEESK_EUlvE_NS3_10compressorEEEbS7_RKNS_8functionIFbmmRNS2_8DataSinkEEEERKT_RT0_RNS2_5ErrorEEUlvE_NSG_IS11_EEFbvEE18destroy_deallocateEv, symObjAddr: 0x18294, symBinAddr: 0x100018A0C, symSize: 0x4 }
  - { offset: 0x1AC2CF, size: 0x8, addend: 0x0, symName: __ZNSt3__110__function6__funcIZN7httplib6detail21write_content_chunkedIZNS2_6Server27write_content_with_providerERNS2_6StreamERKNS2_7RequestERNS2_8ResponseERKNS_12basic_stringIcNS_11char_traitsIcEENS_9allocatorIcEEEESK_EUlvE_NS3_10compressorEEEbS7_RKNS_8functionIFbmmRNS2_8DataSinkEEEERKT_RT0_RNS2_5ErrorEEUlvE_NSG_IS11_EEFbvEE18destroy_deallocateEv, symObjAddr: 0x18294, symBinAddr: 0x100018A0C, symSize: 0x4 }
  - { offset: 0x1AC353, size: 0x8, addend: 0x0, symName: __ZNSt3__110__function6__funcIZN7httplib6detail21write_content_chunkedIZNS2_6Server27write_content_with_providerERNS2_6StreamERKNS2_7RequestERNS2_8ResponseERKNS_12basic_stringIcNS_11char_traitsIcEENS_9allocatorIcEEEESK_EUlvE_NS3_10compressorEEEbS7_RKNS_8functionIFbmmRNS2_8DataSinkEEEERKT_RT0_RNS2_5ErrorEEUlvE_NSG_IS11_EEFbvEEclEv, symObjAddr: 0x18298, symBinAddr: 0x100018A10, symSize: 0x10 }
  - { offset: 0x1AC37C, size: 0x8, addend: 0x0, symName: __ZNSt3__110__function6__funcIZN7httplib6detail21write_content_chunkedIZNS2_6Server27write_content_with_providerERNS2_6StreamERKNS2_7RequestERNS2_8ResponseERKNS_12basic_stringIcNS_11char_traitsIcEENS_9allocatorIcEEEESK_EUlvE_NS3_10compressorEEEbS7_RKNS_8functionIFbmmRNS2_8DataSinkEEEERKT_RT0_RNS2_5ErrorEEUlvE_NSG_IS11_EEFbvEEclEv, symObjAddr: 0x18298, symBinAddr: 0x100018A10, symSize: 0x10 }
  - { offset: 0x1AC39A, size: 0x8, addend: 0x0, symName: __ZNSt3__110__function6__funcIZN7httplib6detail21write_content_chunkedIZNS2_6Server27write_content_with_providerERNS2_6StreamERKNS2_7RequestERNS2_8ResponseERKNS_12basic_stringIcNS_11char_traitsIcEENS_9allocatorIcEEEESK_EUlvE_NS3_10compressorEEEbS7_RKNS_8functionIFbmmRNS2_8DataSinkEEEERKT_RT0_RNS2_5ErrorEEUlvE_NSG_IS11_EEFbvEEclEv, symObjAddr: 0x18298, symBinAddr: 0x100018A10, symSize: 0x10 }
  - { offset: 0x1AC3B7, size: 0x8, addend: 0x0, symName: __ZNSt3__110__function6__funcIZN7httplib6detail21write_content_chunkedIZNS2_6Server27write_content_with_providerERNS2_6StreamERKNS2_7RequestERNS2_8ResponseERKNS_12basic_stringIcNS_11char_traitsIcEENS_9allocatorIcEEEESK_EUlvE_NS3_10compressorEEEbS7_RKNS_8functionIFbmmRNS2_8DataSinkEEEERKT_RT0_RNS2_5ErrorEEUlvE_NSG_IS11_EEFbvEEclEv, symObjAddr: 0x18298, symBinAddr: 0x100018A10, symSize: 0x10 }
  - { offset: 0x1AC3D5, size: 0x8, addend: 0x0, symName: __ZNSt3__110__function6__funcIZN7httplib6detail21write_content_chunkedIZNS2_6Server27write_content_with_providerERNS2_6StreamERKNS2_7RequestERNS2_8ResponseERKNS_12basic_stringIcNS_11char_traitsIcEENS_9allocatorIcEEEESK_EUlvE_NS3_10compressorEEEbS7_RKNS_8functionIFbmmRNS2_8DataSinkEEEERKT_RT0_RNS2_5ErrorEEUlvE_NSG_IS11_EEFbvEEclEv, symObjAddr: 0x18298, symBinAddr: 0x100018A10, symSize: 0x10 }
  - { offset: 0x1AC3F2, size: 0x8, addend: 0x0, symName: __ZNSt3__110__function6__funcIZN7httplib6detail21write_content_chunkedIZNS2_6Server27write_content_with_providerERNS2_6StreamERKNS2_7RequestERNS2_8ResponseERKNS_12basic_stringIcNS_11char_traitsIcEENS_9allocatorIcEEEESK_EUlvE_NS3_10compressorEEEbS7_RKNS_8functionIFbmmRNS2_8DataSinkEEEERKT_RT0_RNS2_5ErrorEEUlvE_NSG_IS11_EEFbvEEclEv, symObjAddr: 0x18298, symBinAddr: 0x100018A10, symSize: 0x10 }
  - { offset: 0x1AC41E, size: 0x8, addend: 0x0, symName: __ZNKSt3__110__function6__funcIZN7httplib6detail21write_content_chunkedIZNS2_6Server27write_content_with_providerERNS2_6StreamERKNS2_7RequestERNS2_8ResponseERKNS_12basic_stringIcNS_11char_traitsIcEENS_9allocatorIcEEEESK_EUlvE_NS3_10compressorEEEbS7_RKNS_8functionIFbmmRNS2_8DataSinkEEEERKT_RT0_RNS2_5ErrorEEUlvE_NSG_IS11_EEFbvEE6targetERKSt9type_info, symObjAddr: 0x182A8, symBinAddr: 0x100018A20, symSize: 0x64 }
  - { offset: 0x1AC4D1, size: 0x8, addend: 0x0, symName: __ZNKSt3__110__function6__funcIZN7httplib6detail21write_content_chunkedIZNS2_6Server27write_content_with_providerERNS2_6StreamERKNS2_7RequestERNS2_8ResponseERKNS_12basic_stringIcNS_11char_traitsIcEENS_9allocatorIcEEEESK_EUlvE_NS3_10compressorEEEbS7_RKNS_8functionIFbmmRNS2_8DataSinkEEEERKT_RT0_RNS2_5ErrorEEUlvE_NSG_IS11_EEFbvEE11target_typeEv, symObjAddr: 0x1830C, symBinAddr: 0x100018A84, symSize: 0xC }
  - { offset: 0x1AC4F8, size: 0x8, addend: 0x0, symName: __ZNSt3__110__function6__funcIZN7httplib6detail21write_content_chunkedIZNS2_6Server27write_content_with_providerERNS2_6StreamERKNS2_7RequestERNS2_8ResponseERKNS_12basic_stringIcNS_11char_traitsIcEENS_9allocatorIcEEEESK_EUlvE_NS3_10compressorEEEbS7_RKNS_8functionIFbmmRNS2_8DataSinkEEEERKT_RT0_RNS2_5ErrorEEUlvE0_NSG_IS11_EEFvvEED1Ev, symObjAddr: 0x18318, symBinAddr: 0x100018A90, symSize: 0x4 }
  - { offset: 0x1AC524, size: 0x8, addend: 0x0, symName: __ZNSt3__110__function6__funcIZN7httplib6detail21write_content_chunkedIZNS2_6Server27write_content_with_providerERNS2_6StreamERKNS2_7RequestERNS2_8ResponseERKNS_12basic_stringIcNS_11char_traitsIcEENS_9allocatorIcEEEESK_EUlvE_NS3_10compressorEEEbS7_RKNS_8functionIFbmmRNS2_8DataSinkEEEERKT_RT0_RNS2_5ErrorEEUlvE0_NSG_IS11_EEFvvEED0Ev, symObjAddr: 0x1831C, symBinAddr: 0x100018A94, symSize: 0x4 }
  - { offset: 0x1AC63B, size: 0x8, addend: 0x0, symName: __ZNKSt3__110__function6__funcIZN7httplib6detail21write_content_chunkedIZNS2_6Server27write_content_with_providerERNS2_6StreamERKNS2_7RequestERNS2_8ResponseERKNS_12basic_stringIcNS_11char_traitsIcEENS_9allocatorIcEEEESK_EUlvE_NS3_10compressorEEEbS7_RKNS_8functionIFbmmRNS2_8DataSinkEEEERKT_RT0_RNS2_5ErrorEEUlvE0_NSG_IS11_EEFvvEE7__cloneEv, symObjAddr: 0x18320, symBinAddr: 0x100018A98, symSize: 0x34 }
  - { offset: 0x1AC83A, size: 0x8, addend: 0x0, symName: __ZNKSt3__110__function6__funcIZN7httplib6detail21write_content_chunkedIZNS2_6Server27write_content_with_providerERNS2_6StreamERKNS2_7RequestERNS2_8ResponseERKNS_12basic_stringIcNS_11char_traitsIcEENS_9allocatorIcEEEESK_EUlvE_NS3_10compressorEEEbS7_RKNS_8functionIFbmmRNS2_8DataSinkEEEERKT_RT0_RNS2_5ErrorEEUlvE0_NSG_IS11_EEFvvEE7__cloneEPNS0_6__baseIS13_EE, symObjAddr: 0x18354, symBinAddr: 0x100018ACC, symSize: 0x14 }
  - { offset: 0x1AC870, size: 0x8, addend: 0x0, symName: __ZNKSt3__110__function6__funcIZN7httplib6detail21write_content_chunkedIZNS2_6Server27write_content_with_providerERNS2_6StreamERKNS2_7RequestERNS2_8ResponseERKNS_12basic_stringIcNS_11char_traitsIcEENS_9allocatorIcEEEESK_EUlvE_NS3_10compressorEEEbS7_RKNS_8functionIFbmmRNS2_8DataSinkEEEERKT_RT0_RNS2_5ErrorEEUlvE0_NSG_IS11_EEFvvEE7__cloneEPNS0_6__baseIS13_EE, symObjAddr: 0x18354, symBinAddr: 0x100018ACC, symSize: 0x14 }
  - { offset: 0x1AC89E, size: 0x8, addend: 0x0, symName: __ZNKSt3__110__function6__funcIZN7httplib6detail21write_content_chunkedIZNS2_6Server27write_content_with_providerERNS2_6StreamERKNS2_7RequestERNS2_8ResponseERKNS_12basic_stringIcNS_11char_traitsIcEENS_9allocatorIcEEEESK_EUlvE_NS3_10compressorEEEbS7_RKNS_8functionIFbmmRNS2_8DataSinkEEEERKT_RT0_RNS2_5ErrorEEUlvE0_NSG_IS11_EEFvvEE7__cloneEPNS0_6__baseIS13_EE, symObjAddr: 0x18354, symBinAddr: 0x100018ACC, symSize: 0x14 }
  - { offset: 0x1AC8CC, size: 0x8, addend: 0x0, symName: __ZNKSt3__110__function6__funcIZN7httplib6detail21write_content_chunkedIZNS2_6Server27write_content_with_providerERNS2_6StreamERKNS2_7RequestERNS2_8ResponseERKNS_12basic_stringIcNS_11char_traitsIcEENS_9allocatorIcEEEESK_EUlvE_NS3_10compressorEEEbS7_RKNS_8functionIFbmmRNS2_8DataSinkEEEERKT_RT0_RNS2_5ErrorEEUlvE0_NSG_IS11_EEFvvEE7__cloneEPNS0_6__baseIS13_EE, symObjAddr: 0x18354, symBinAddr: 0x100018ACC, symSize: 0x14 }
  - { offset: 0x1AC8E1, size: 0x8, addend: 0x0, symName: __ZNKSt3__110__function6__funcIZN7httplib6detail21write_content_chunkedIZNS2_6Server27write_content_with_providerERNS2_6StreamERKNS2_7RequestERNS2_8ResponseERKNS_12basic_stringIcNS_11char_traitsIcEENS_9allocatorIcEEEESK_EUlvE_NS3_10compressorEEEbS7_RKNS_8functionIFbmmRNS2_8DataSinkEEEERKT_RT0_RNS2_5ErrorEEUlvE0_NSG_IS11_EEFvvEE7__cloneEPNS0_6__baseIS13_EE, symObjAddr: 0x18354, symBinAddr: 0x100018ACC, symSize: 0x14 }
  - { offset: 0x1AC8F6, size: 0x8, addend: 0x0, symName: __ZNSt3__110__function6__funcIZN7httplib6detail21write_content_chunkedIZNS2_6Server27write_content_with_providerERNS2_6StreamERKNS2_7RequestERNS2_8ResponseERKNS_12basic_stringIcNS_11char_traitsIcEENS_9allocatorIcEEEESK_EUlvE_NS3_10compressorEEEbS7_RKNS_8functionIFbmmRNS2_8DataSinkEEEERKT_RT0_RNS2_5ErrorEEUlvE0_NSG_IS11_EEFvvEE7destroyEv, symObjAddr: 0x18368, symBinAddr: 0x100018AE0, symSize: 0x4 }
  - { offset: 0x1AC94D, size: 0x8, addend: 0x0, symName: __ZNSt3__110__function6__funcIZN7httplib6detail21write_content_chunkedIZNS2_6Server27write_content_with_providerERNS2_6StreamERKNS2_7RequestERNS2_8ResponseERKNS_12basic_stringIcNS_11char_traitsIcEENS_9allocatorIcEEEESK_EUlvE_NS3_10compressorEEEbS7_RKNS_8functionIFbmmRNS2_8DataSinkEEEERKT_RT0_RNS2_5ErrorEEUlvE0_NSG_IS11_EEFvvEE18destroy_deallocateEv, symObjAddr: 0x1836C, symBinAddr: 0x100018AE4, symSize: 0x4 }
  - { offset: 0x1AC980, size: 0x8, addend: 0x0, symName: __ZNSt3__110__function6__funcIZN7httplib6detail21write_content_chunkedIZNS2_6Server27write_content_with_providerERNS2_6StreamERKNS2_7RequestERNS2_8ResponseERKNS_12basic_stringIcNS_11char_traitsIcEENS_9allocatorIcEEEESK_EUlvE_NS3_10compressorEEEbS7_RKNS_8functionIFbmmRNS2_8DataSinkEEEERKT_RT0_RNS2_5ErrorEEUlvE0_NSG_IS11_EEFvvEE18destroy_deallocateEv, symObjAddr: 0x1836C, symBinAddr: 0x100018AE4, symSize: 0x4 }
  - { offset: 0x1AC9A3, size: 0x8, addend: 0x0, symName: __ZNSt3__110__function6__funcIZN7httplib6detail21write_content_chunkedIZNS2_6Server27write_content_with_providerERNS2_6StreamERKNS2_7RequestERNS2_8ResponseERKNS_12basic_stringIcNS_11char_traitsIcEENS_9allocatorIcEEEESK_EUlvE_NS3_10compressorEEEbS7_RKNS_8functionIFbmmRNS2_8DataSinkEEEERKT_RT0_RNS2_5ErrorEEUlvE0_NSG_IS11_EEFvvEE18destroy_deallocateEv, symObjAddr: 0x1836C, symBinAddr: 0x100018AE4, symSize: 0x4 }
  - { offset: 0x1AC9D6, size: 0x8, addend: 0x0, symName: __ZNSt3__110__function6__funcIZN7httplib6detail21write_content_chunkedIZNS2_6Server27write_content_with_providerERNS2_6StreamERKNS2_7RequestERNS2_8ResponseERKNS_12basic_stringIcNS_11char_traitsIcEENS_9allocatorIcEEEESK_EUlvE_NS3_10compressorEEEbS7_RKNS_8functionIFbmmRNS2_8DataSinkEEEERKT_RT0_RNS2_5ErrorEEUlvE0_NSG_IS11_EEFvvEE18destroy_deallocateEv, symObjAddr: 0x1836C, symBinAddr: 0x100018AE4, symSize: 0x4 }
  - { offset: 0x1ACA60, size: 0x8, addend: 0x0, symName: __ZNSt3__110__function6__funcIZN7httplib6detail21write_content_chunkedIZNS2_6Server27write_content_with_providerERNS2_6StreamERKNS2_7RequestERNS2_8ResponseERKNS_12basic_stringIcNS_11char_traitsIcEENS_9allocatorIcEEEESK_EUlvE_NS3_10compressorEEEbS7_RKNS_8functionIFbmmRNS2_8DataSinkEEEERKT_RT0_RNS2_5ErrorEEUlvE0_NSG_IS11_EEFvvEEclEv, symObjAddr: 0x18370, symBinAddr: 0x100018AE8, symSize: 0xC }
  - { offset: 0x1ACA89, size: 0x8, addend: 0x0, symName: __ZNSt3__110__function6__funcIZN7httplib6detail21write_content_chunkedIZNS2_6Server27write_content_with_providerERNS2_6StreamERKNS2_7RequestERNS2_8ResponseERKNS_12basic_stringIcNS_11char_traitsIcEENS_9allocatorIcEEEESK_EUlvE_NS3_10compressorEEEbS7_RKNS_8functionIFbmmRNS2_8DataSinkEEEERKT_RT0_RNS2_5ErrorEEUlvE0_NSG_IS11_EEFvvEEclEv, symObjAddr: 0x18370, symBinAddr: 0x100018AE8, symSize: 0xC }
  - { offset: 0x1ACAA7, size: 0x8, addend: 0x0, symName: __ZNSt3__110__function6__funcIZN7httplib6detail21write_content_chunkedIZNS2_6Server27write_content_with_providerERNS2_6StreamERKNS2_7RequestERNS2_8ResponseERKNS_12basic_stringIcNS_11char_traitsIcEENS_9allocatorIcEEEESK_EUlvE_NS3_10compressorEEEbS7_RKNS_8functionIFbmmRNS2_8DataSinkEEEERKT_RT0_RNS2_5ErrorEEUlvE0_NSG_IS11_EEFvvEEclEv, symObjAddr: 0x18370, symBinAddr: 0x100018AE8, symSize: 0xC }
  - { offset: 0x1ACAC4, size: 0x8, addend: 0x0, symName: __ZNSt3__110__function6__funcIZN7httplib6detail21write_content_chunkedIZNS2_6Server27write_content_with_providerERNS2_6StreamERKNS2_7RequestERNS2_8ResponseERKNS_12basic_stringIcNS_11char_traitsIcEENS_9allocatorIcEEEESK_EUlvE_NS3_10compressorEEEbS7_RKNS_8functionIFbmmRNS2_8DataSinkEEEERKT_RT0_RNS2_5ErrorEEUlvE0_NSG_IS11_EEFvvEEclEv, symObjAddr: 0x18370, symBinAddr: 0x100018AE8, symSize: 0xC }
  - { offset: 0x1ACAE2, size: 0x8, addend: 0x0, symName: __ZNSt3__110__function6__funcIZN7httplib6detail21write_content_chunkedIZNS2_6Server27write_content_with_providerERNS2_6StreamERKNS2_7RequestERNS2_8ResponseERKNS_12basic_stringIcNS_11char_traitsIcEENS_9allocatorIcEEEESK_EUlvE_NS3_10compressorEEEbS7_RKNS_8functionIFbmmRNS2_8DataSinkEEEERKT_RT0_RNS2_5ErrorEEUlvE0_NSG_IS11_EEFvvEEclEv, symObjAddr: 0x18370, symBinAddr: 0x100018AE8, symSize: 0xC }
  - { offset: 0x1ACAFF, size: 0x8, addend: 0x0, symName: __ZNSt3__110__function6__funcIZN7httplib6detail21write_content_chunkedIZNS2_6Server27write_content_with_providerERNS2_6StreamERKNS2_7RequestERNS2_8ResponseERKNS_12basic_stringIcNS_11char_traitsIcEENS_9allocatorIcEEEESK_EUlvE_NS3_10compressorEEEbS7_RKNS_8functionIFbmmRNS2_8DataSinkEEEERKT_RT0_RNS2_5ErrorEEUlvE0_NSG_IS11_EEFvvEEclEv, symObjAddr: 0x18370, symBinAddr: 0x100018AE8, symSize: 0xC }
  - { offset: 0x1ACB33, size: 0x8, addend: 0x0, symName: __ZNKSt3__110__function6__funcIZN7httplib6detail21write_content_chunkedIZNS2_6Server27write_content_with_providerERNS2_6StreamERKNS2_7RequestERNS2_8ResponseERKNS_12basic_stringIcNS_11char_traitsIcEENS_9allocatorIcEEEESK_EUlvE_NS3_10compressorEEEbS7_RKNS_8functionIFbmmRNS2_8DataSinkEEEERKT_RT0_RNS2_5ErrorEEUlvE0_NSG_IS11_EEFvvEE6targetERKSt9type_info, symObjAddr: 0x1837C, symBinAddr: 0x100018AF4, symSize: 0x64 }
  - { offset: 0x1ACBE6, size: 0x8, addend: 0x0, symName: __ZNKSt3__110__function6__funcIZN7httplib6detail21write_content_chunkedIZNS2_6Server27write_content_with_providerERNS2_6StreamERKNS2_7RequestERNS2_8ResponseERKNS_12basic_stringIcNS_11char_traitsIcEENS_9allocatorIcEEEESK_EUlvE_NS3_10compressorEEEbS7_RKNS_8functionIFbmmRNS2_8DataSinkEEEERKT_RT0_RNS2_5ErrorEEUlvE0_NSG_IS11_EEFvvEE11target_typeEv, symObjAddr: 0x183E0, symBinAddr: 0x100018B58, symSize: 0xC }
  - { offset: 0x1ACDBD, size: 0x8, addend: 0x0, symName: __ZNSt3__110__function6__funcIZZN7httplib6detail21write_content_chunkedIZNS2_6Server27write_content_with_providerERNS2_6StreamERKNS2_7RequestERNS2_8ResponseERKNS_12basic_stringIcNS_11char_traitsIcEENS_9allocatorIcEEEESK_EUlvE_NS3_10compressorEEEbS7_RKNS_8functionIFbmmRNS2_8DataSinkEEEERKT_RT0_RNS2_5ErrorEENKUlPKNS_18unordered_multimapISI_SI_NS3_11case_ignore4hashENS12_8equal_toENSG_INS_4pairISJ_SI_EEEEEEE_clES1A_EUlPKcmE_NSG_IS1E_EEFbS1D_mEED1Ev, symObjAddr: 0x18ADC, symBinAddr: 0x100019254, symSize: 0x4 }
  - { offset: 0x1ACDE9, size: 0x8, addend: 0x0, symName: __ZNSt3__110__function6__funcIZZN7httplib6detail21write_content_chunkedIZNS2_6Server27write_content_with_providerERNS2_6StreamERKNS2_7RequestERNS2_8ResponseERKNS_12basic_stringIcNS_11char_traitsIcEENS_9allocatorIcEEEESK_EUlvE_NS3_10compressorEEEbS7_RKNS_8functionIFbmmRNS2_8DataSinkEEEERKT_RT0_RNS2_5ErrorEENKUlPKNS_18unordered_multimapISI_SI_NS3_11case_ignore4hashENS12_8equal_toENSG_INS_4pairISJ_SI_EEEEEEE_clES1A_EUlPKcmE_NSG_IS1E_EEFbS1D_mEED0Ev, symObjAddr: 0x18AE0, symBinAddr: 0x100019258, symSize: 0x4 }
  - { offset: 0x1ACF00, size: 0x8, addend: 0x0, symName: __ZNKSt3__110__function6__funcIZZN7httplib6detail21write_content_chunkedIZNS2_6Server27write_content_with_providerERNS2_6StreamERKNS2_7RequestERNS2_8ResponseERKNS_12basic_stringIcNS_11char_traitsIcEENS_9allocatorIcEEEESK_EUlvE_NS3_10compressorEEEbS7_RKNS_8functionIFbmmRNS2_8DataSinkEEEERKT_RT0_RNS2_5ErrorEENKUlPKNS_18unordered_multimapISI_SI_NS3_11case_ignore4hashENS12_8equal_toENSG_INS_4pairISJ_SI_EEEEEEE_clES1A_EUlPKcmE_NSG_IS1E_EEFbS1D_mEE7__cloneEv, symObjAddr: 0x18AE4, symBinAddr: 0x10001925C, symSize: 0x34 }
  - { offset: 0x1AD0FF, size: 0x8, addend: 0x0, symName: __ZNKSt3__110__function6__funcIZZN7httplib6detail21write_content_chunkedIZNS2_6Server27write_content_with_providerERNS2_6StreamERKNS2_7RequestERNS2_8ResponseERKNS_12basic_stringIcNS_11char_traitsIcEENS_9allocatorIcEEEESK_EUlvE_NS3_10compressorEEEbS7_RKNS_8functionIFbmmRNS2_8DataSinkEEEERKT_RT0_RNS2_5ErrorEENKUlPKNS_18unordered_multimapISI_SI_NS3_11case_ignore4hashENS12_8equal_toENSG_INS_4pairISJ_SI_EEEEEEE_clES1A_EUlPKcmE_NSG_IS1E_EEFbS1D_mEE7__cloneEPNS0_6__baseIS1G_EE, symObjAddr: 0x18B18, symBinAddr: 0x100019290, symSize: 0x14 }
  - { offset: 0x1AD135, size: 0x8, addend: 0x0, symName: __ZNKSt3__110__function6__funcIZZN7httplib6detail21write_content_chunkedIZNS2_6Server27write_content_with_providerERNS2_6StreamERKNS2_7RequestERNS2_8ResponseERKNS_12basic_stringIcNS_11char_traitsIcEENS_9allocatorIcEEEESK_EUlvE_NS3_10compressorEEEbS7_RKNS_8functionIFbmmRNS2_8DataSinkEEEERKT_RT0_RNS2_5ErrorEENKUlPKNS_18unordered_multimapISI_SI_NS3_11case_ignore4hashENS12_8equal_toENSG_INS_4pairISJ_SI_EEEEEEE_clES1A_EUlPKcmE_NSG_IS1E_EEFbS1D_mEE7__cloneEPNS0_6__baseIS1G_EE, symObjAddr: 0x18B18, symBinAddr: 0x100019290, symSize: 0x14 }
  - { offset: 0x1AD163, size: 0x8, addend: 0x0, symName: __ZNKSt3__110__function6__funcIZZN7httplib6detail21write_content_chunkedIZNS2_6Server27write_content_with_providerERNS2_6StreamERKNS2_7RequestERNS2_8ResponseERKNS_12basic_stringIcNS_11char_traitsIcEENS_9allocatorIcEEEESK_EUlvE_NS3_10compressorEEEbS7_RKNS_8functionIFbmmRNS2_8DataSinkEEEERKT_RT0_RNS2_5ErrorEENKUlPKNS_18unordered_multimapISI_SI_NS3_11case_ignore4hashENS12_8equal_toENSG_INS_4pairISJ_SI_EEEEEEE_clES1A_EUlPKcmE_NSG_IS1E_EEFbS1D_mEE7__cloneEPNS0_6__baseIS1G_EE, symObjAddr: 0x18B18, symBinAddr: 0x100019290, symSize: 0x14 }
  - { offset: 0x1AD191, size: 0x8, addend: 0x0, symName: __ZNKSt3__110__function6__funcIZZN7httplib6detail21write_content_chunkedIZNS2_6Server27write_content_with_providerERNS2_6StreamERKNS2_7RequestERNS2_8ResponseERKNS_12basic_stringIcNS_11char_traitsIcEENS_9allocatorIcEEEESK_EUlvE_NS3_10compressorEEEbS7_RKNS_8functionIFbmmRNS2_8DataSinkEEEERKT_RT0_RNS2_5ErrorEENKUlPKNS_18unordered_multimapISI_SI_NS3_11case_ignore4hashENS12_8equal_toENSG_INS_4pairISJ_SI_EEEEEEE_clES1A_EUlPKcmE_NSG_IS1E_EEFbS1D_mEE7__cloneEPNS0_6__baseIS1G_EE, symObjAddr: 0x18B18, symBinAddr: 0x100019290, symSize: 0x14 }
  - { offset: 0x1AD1A6, size: 0x8, addend: 0x0, symName: __ZNKSt3__110__function6__funcIZZN7httplib6detail21write_content_chunkedIZNS2_6Server27write_content_with_providerERNS2_6StreamERKNS2_7RequestERNS2_8ResponseERKNS_12basic_stringIcNS_11char_traitsIcEENS_9allocatorIcEEEESK_EUlvE_NS3_10compressorEEEbS7_RKNS_8functionIFbmmRNS2_8DataSinkEEEERKT_RT0_RNS2_5ErrorEENKUlPKNS_18unordered_multimapISI_SI_NS3_11case_ignore4hashENS12_8equal_toENSG_INS_4pairISJ_SI_EEEEEEE_clES1A_EUlPKcmE_NSG_IS1E_EEFbS1D_mEE7__cloneEPNS0_6__baseIS1G_EE, symObjAddr: 0x18B18, symBinAddr: 0x100019290, symSize: 0x14 }
  - { offset: 0x1AD1BB, size: 0x8, addend: 0x0, symName: __ZNSt3__110__function6__funcIZZN7httplib6detail21write_content_chunkedIZNS2_6Server27write_content_with_providerERNS2_6StreamERKNS2_7RequestERNS2_8ResponseERKNS_12basic_stringIcNS_11char_traitsIcEENS_9allocatorIcEEEESK_EUlvE_NS3_10compressorEEEbS7_RKNS_8functionIFbmmRNS2_8DataSinkEEEERKT_RT0_RNS2_5ErrorEENKUlPKNS_18unordered_multimapISI_SI_NS3_11case_ignore4hashENS12_8equal_toENSG_INS_4pairISJ_SI_EEEEEEE_clES1A_EUlPKcmE_NSG_IS1E_EEFbS1D_mEE7destroyEv, symObjAddr: 0x18B2C, symBinAddr: 0x1000192A4, symSize: 0x4 }
  - { offset: 0x1AD212, size: 0x8, addend: 0x0, symName: __ZNSt3__110__function6__funcIZZN7httplib6detail21write_content_chunkedIZNS2_6Server27write_content_with_providerERNS2_6StreamERKNS2_7RequestERNS2_8ResponseERKNS_12basic_stringIcNS_11char_traitsIcEENS_9allocatorIcEEEESK_EUlvE_NS3_10compressorEEEbS7_RKNS_8functionIFbmmRNS2_8DataSinkEEEERKT_RT0_RNS2_5ErrorEENKUlPKNS_18unordered_multimapISI_SI_NS3_11case_ignore4hashENS12_8equal_toENSG_INS_4pairISJ_SI_EEEEEEE_clES1A_EUlPKcmE_NSG_IS1E_EEFbS1D_mEE18destroy_deallocateEv, symObjAddr: 0x18B30, symBinAddr: 0x1000192A8, symSize: 0x4 }
  - { offset: 0x1AD245, size: 0x8, addend: 0x0, symName: __ZNSt3__110__function6__funcIZZN7httplib6detail21write_content_chunkedIZNS2_6Server27write_content_with_providerERNS2_6StreamERKNS2_7RequestERNS2_8ResponseERKNS_12basic_stringIcNS_11char_traitsIcEENS_9allocatorIcEEEESK_EUlvE_NS3_10compressorEEEbS7_RKNS_8functionIFbmmRNS2_8DataSinkEEEERKT_RT0_RNS2_5ErrorEENKUlPKNS_18unordered_multimapISI_SI_NS3_11case_ignore4hashENS12_8equal_toENSG_INS_4pairISJ_SI_EEEEEEE_clES1A_EUlPKcmE_NSG_IS1E_EEFbS1D_mEE18destroy_deallocateEv, symObjAddr: 0x18B30, symBinAddr: 0x1000192A8, symSize: 0x4 }
  - { offset: 0x1AD268, size: 0x8, addend: 0x0, symName: __ZNSt3__110__function6__funcIZZN7httplib6detail21write_content_chunkedIZNS2_6Server27write_content_with_providerERNS2_6StreamERKNS2_7RequestERNS2_8ResponseERKNS_12basic_stringIcNS_11char_traitsIcEENS_9allocatorIcEEEESK_EUlvE_NS3_10compressorEEEbS7_RKNS_8functionIFbmmRNS2_8DataSinkEEEERKT_RT0_RNS2_5ErrorEENKUlPKNS_18unordered_multimapISI_SI_NS3_11case_ignore4hashENS12_8equal_toENSG_INS_4pairISJ_SI_EEEEEEE_clES1A_EUlPKcmE_NSG_IS1E_EEFbS1D_mEE18destroy_deallocateEv, symObjAddr: 0x18B30, symBinAddr: 0x1000192A8, symSize: 0x4 }
  - { offset: 0x1AD29B, size: 0x8, addend: 0x0, symName: __ZNSt3__110__function6__funcIZZN7httplib6detail21write_content_chunkedIZNS2_6Server27write_content_with_providerERNS2_6StreamERKNS2_7RequestERNS2_8ResponseERKNS_12basic_stringIcNS_11char_traitsIcEENS_9allocatorIcEEEESK_EUlvE_NS3_10compressorEEEbS7_RKNS_8functionIFbmmRNS2_8DataSinkEEEERKT_RT0_RNS2_5ErrorEENKUlPKNS_18unordered_multimapISI_SI_NS3_11case_ignore4hashENS12_8equal_toENSG_INS_4pairISJ_SI_EEEEEEE_clES1A_EUlPKcmE_NSG_IS1E_EEFbS1D_mEE18destroy_deallocateEv, symObjAddr: 0x18B30, symBinAddr: 0x1000192A8, symSize: 0x4 }
  - { offset: 0x1AD375, size: 0x8, addend: 0x0, symName: __ZNSt3__110__function6__funcIZZN7httplib6detail21write_content_chunkedIZNS2_6Server27write_content_with_providerERNS2_6StreamERKNS2_7RequestERNS2_8ResponseERKNS_12basic_stringIcNS_11char_traitsIcEENS_9allocatorIcEEEESK_EUlvE_NS3_10compressorEEEbS7_RKNS_8functionIFbmmRNS2_8DataSinkEEEERKT_RT0_RNS2_5ErrorEENKUlPKNS_18unordered_multimapISI_SI_NS3_11case_ignore4hashENS12_8equal_toENSG_INS_4pairISJ_SI_EEEEEEE_clES1A_EUlPKcmE_NSG_IS1E_EEFbS1D_mEEclEOS1D_Om, symObjAddr: 0x18B34, symBinAddr: 0x1000192AC, symSize: 0x24 }
  - { offset: 0x1AD4AA, size: 0x8, addend: 0x0, symName: __ZNKSt3__110__function6__funcIZZN7httplib6detail21write_content_chunkedIZNS2_6Server27write_content_with_providerERNS2_6StreamERKNS2_7RequestERNS2_8ResponseERKNS_12basic_stringIcNS_11char_traitsIcEENS_9allocatorIcEEEESK_EUlvE_NS3_10compressorEEEbS7_RKNS_8functionIFbmmRNS2_8DataSinkEEEERKT_RT0_RNS2_5ErrorEENKUlPKNS_18unordered_multimapISI_SI_NS3_11case_ignore4hashENS12_8equal_toENSG_INS_4pairISJ_SI_EEEEEEE_clES1A_EUlPKcmE_NSG_IS1E_EEFbS1D_mEE6targetERKSt9type_info, symObjAddr: 0x18B58, symBinAddr: 0x1000192D0, symSize: 0x64 }
  - { offset: 0x1AD55D, size: 0x8, addend: 0x0, symName: __ZNKSt3__110__function6__funcIZZN7httplib6detail21write_content_chunkedIZNS2_6Server27write_content_with_providerERNS2_6StreamERKNS2_7RequestERNS2_8ResponseERKNS_12basic_stringIcNS_11char_traitsIcEENS_9allocatorIcEEEESK_EUlvE_NS3_10compressorEEEbS7_RKNS_8functionIFbmmRNS2_8DataSinkEEEERKT_RT0_RNS2_5ErrorEENKUlPKNS_18unordered_multimapISI_SI_NS3_11case_ignore4hashENS12_8equal_toENSG_INS_4pairISJ_SI_EEEEEEE_clES1A_EUlPKcmE_NSG_IS1E_EEFbS1D_mEE11target_typeEv, symObjAddr: 0x18BBC, symBinAddr: 0x100019334, symSize: 0xC }
  - { offset: 0x1AD584, size: 0x8, addend: 0x0, symName: __ZNSt3__110__function6__funcIZN7httplib6detail21write_content_chunkedIZNS2_6Server27write_content_with_providerERNS2_6StreamERKNS2_7RequestERNS2_8ResponseERKNS_12basic_stringIcNS_11char_traitsIcEENS_9allocatorIcEEEESK_EUlvE_NS3_10compressorEEEbS7_RKNS_8functionIFbmmRNS2_8DataSinkEEEERKT_RT0_RNS2_5ErrorEEUlRKNS_18unordered_multimapISI_SI_NS3_11case_ignore4hashENS12_8equal_toENSG_INS_4pairISJ_SI_EEEEEEE_NSG_IS1B_EEFvS1A_EED1Ev, symObjAddr: 0x18BC8, symBinAddr: 0x100019340, symSize: 0x4 }
  - { offset: 0x1AD5B0, size: 0x8, addend: 0x0, symName: __ZNSt3__110__function6__funcIZN7httplib6detail21write_content_chunkedIZNS2_6Server27write_content_with_providerERNS2_6StreamERKNS2_7RequestERNS2_8ResponseERKNS_12basic_stringIcNS_11char_traitsIcEENS_9allocatorIcEEEESK_EUlvE_NS3_10compressorEEEbS7_RKNS_8functionIFbmmRNS2_8DataSinkEEEERKT_RT0_RNS2_5ErrorEEUlRKNS_18unordered_multimapISI_SI_NS3_11case_ignore4hashENS12_8equal_toENSG_INS_4pairISJ_SI_EEEEEEE_NSG_IS1B_EEFvS1A_EED0Ev, symObjAddr: 0x18BCC, symBinAddr: 0x100019344, symSize: 0x4 }
  - { offset: 0x1AD6C7, size: 0x8, addend: 0x0, symName: __ZNKSt3__110__function6__funcIZN7httplib6detail21write_content_chunkedIZNS2_6Server27write_content_with_providerERNS2_6StreamERKNS2_7RequestERNS2_8ResponseERKNS_12basic_stringIcNS_11char_traitsIcEENS_9allocatorIcEEEESK_EUlvE_NS3_10compressorEEEbS7_RKNS_8functionIFbmmRNS2_8DataSinkEEEERKT_RT0_RNS2_5ErrorEEUlRKNS_18unordered_multimapISI_SI_NS3_11case_ignore4hashENS12_8equal_toENSG_INS_4pairISJ_SI_EEEEEEE_NSG_IS1B_EEFvS1A_EE7__cloneEv, symObjAddr: 0x18BD0, symBinAddr: 0x100019348, symSize: 0x34 }
  - { offset: 0x1AD8C6, size: 0x8, addend: 0x0, symName: __ZNKSt3__110__function6__funcIZN7httplib6detail21write_content_chunkedIZNS2_6Server27write_content_with_providerERNS2_6StreamERKNS2_7RequestERNS2_8ResponseERKNS_12basic_stringIcNS_11char_traitsIcEENS_9allocatorIcEEEESK_EUlvE_NS3_10compressorEEEbS7_RKNS_8functionIFbmmRNS2_8DataSinkEEEERKT_RT0_RNS2_5ErrorEEUlRKNS_18unordered_multimapISI_SI_NS3_11case_ignore4hashENS12_8equal_toENSG_INS_4pairISJ_SI_EEEEEEE_NSG_IS1B_EEFvS1A_EE7__cloneEPNS0_6__baseIS1D_EE, symObjAddr: 0x18C04, symBinAddr: 0x10001937C, symSize: 0x14 }
  - { offset: 0x1AD8FC, size: 0x8, addend: 0x0, symName: __ZNKSt3__110__function6__funcIZN7httplib6detail21write_content_chunkedIZNS2_6Server27write_content_with_providerERNS2_6StreamERKNS2_7RequestERNS2_8ResponseERKNS_12basic_stringIcNS_11char_traitsIcEENS_9allocatorIcEEEESK_EUlvE_NS3_10compressorEEEbS7_RKNS_8functionIFbmmRNS2_8DataSinkEEEERKT_RT0_RNS2_5ErrorEEUlRKNS_18unordered_multimapISI_SI_NS3_11case_ignore4hashENS12_8equal_toENSG_INS_4pairISJ_SI_EEEEEEE_NSG_IS1B_EEFvS1A_EE7__cloneEPNS0_6__baseIS1D_EE, symObjAddr: 0x18C04, symBinAddr: 0x10001937C, symSize: 0x14 }
  - { offset: 0x1AD92A, size: 0x8, addend: 0x0, symName: __ZNKSt3__110__function6__funcIZN7httplib6detail21write_content_chunkedIZNS2_6Server27write_content_with_providerERNS2_6StreamERKNS2_7RequestERNS2_8ResponseERKNS_12basic_stringIcNS_11char_traitsIcEENS_9allocatorIcEEEESK_EUlvE_NS3_10compressorEEEbS7_RKNS_8functionIFbmmRNS2_8DataSinkEEEERKT_RT0_RNS2_5ErrorEEUlRKNS_18unordered_multimapISI_SI_NS3_11case_ignore4hashENS12_8equal_toENSG_INS_4pairISJ_SI_EEEEEEE_NSG_IS1B_EEFvS1A_EE7__cloneEPNS0_6__baseIS1D_EE, symObjAddr: 0x18C04, symBinAddr: 0x10001937C, symSize: 0x14 }
  - { offset: 0x1AD958, size: 0x8, addend: 0x0, symName: __ZNKSt3__110__function6__funcIZN7httplib6detail21write_content_chunkedIZNS2_6Server27write_content_with_providerERNS2_6StreamERKNS2_7RequestERNS2_8ResponseERKNS_12basic_stringIcNS_11char_traitsIcEENS_9allocatorIcEEEESK_EUlvE_NS3_10compressorEEEbS7_RKNS_8functionIFbmmRNS2_8DataSinkEEEERKT_RT0_RNS2_5ErrorEEUlRKNS_18unordered_multimapISI_SI_NS3_11case_ignore4hashENS12_8equal_toENSG_INS_4pairISJ_SI_EEEEEEE_NSG_IS1B_EEFvS1A_EE7__cloneEPNS0_6__baseIS1D_EE, symObjAddr: 0x18C04, symBinAddr: 0x10001937C, symSize: 0x14 }
  - { offset: 0x1AD96D, size: 0x8, addend: 0x0, symName: __ZNKSt3__110__function6__funcIZN7httplib6detail21write_content_chunkedIZNS2_6Server27write_content_with_providerERNS2_6StreamERKNS2_7RequestERNS2_8ResponseERKNS_12basic_stringIcNS_11char_traitsIcEENS_9allocatorIcEEEESK_EUlvE_NS3_10compressorEEEbS7_RKNS_8functionIFbmmRNS2_8DataSinkEEEERKT_RT0_RNS2_5ErrorEEUlRKNS_18unordered_multimapISI_SI_NS3_11case_ignore4hashENS12_8equal_toENSG_INS_4pairISJ_SI_EEEEEEE_NSG_IS1B_EEFvS1A_EE7__cloneEPNS0_6__baseIS1D_EE, symObjAddr: 0x18C04, symBinAddr: 0x10001937C, symSize: 0x14 }
  - { offset: 0x1AD982, size: 0x8, addend: 0x0, symName: __ZNSt3__110__function6__funcIZN7httplib6detail21write_content_chunkedIZNS2_6Server27write_content_with_providerERNS2_6StreamERKNS2_7RequestERNS2_8ResponseERKNS_12basic_stringIcNS_11char_traitsIcEENS_9allocatorIcEEEESK_EUlvE_NS3_10compressorEEEbS7_RKNS_8functionIFbmmRNS2_8DataSinkEEEERKT_RT0_RNS2_5ErrorEEUlRKNS_18unordered_multimapISI_SI_NS3_11case_ignore4hashENS12_8equal_toENSG_INS_4pairISJ_SI_EEEEEEE_NSG_IS1B_EEFvS1A_EE7destroyEv, symObjAddr: 0x18C18, symBinAddr: 0x100019390, symSize: 0x4 }
  - { offset: 0x1AD9D9, size: 0x8, addend: 0x0, symName: __ZNSt3__110__function6__funcIZN7httplib6detail21write_content_chunkedIZNS2_6Server27write_content_with_providerERNS2_6StreamERKNS2_7RequestERNS2_8ResponseERKNS_12basic_stringIcNS_11char_traitsIcEENS_9allocatorIcEEEESK_EUlvE_NS3_10compressorEEEbS7_RKNS_8functionIFbmmRNS2_8DataSinkEEEERKT_RT0_RNS2_5ErrorEEUlRKNS_18unordered_multimapISI_SI_NS3_11case_ignore4hashENS12_8equal_toENSG_INS_4pairISJ_SI_EEEEEEE_NSG_IS1B_EEFvS1A_EE18destroy_deallocateEv, symObjAddr: 0x18C1C, symBinAddr: 0x100019394, symSize: 0x4 }
  - { offset: 0x1ADA0C, size: 0x8, addend: 0x0, symName: __ZNSt3__110__function6__funcIZN7httplib6detail21write_content_chunkedIZNS2_6Server27write_content_with_providerERNS2_6StreamERKNS2_7RequestERNS2_8ResponseERKNS_12basic_stringIcNS_11char_traitsIcEENS_9allocatorIcEEEESK_EUlvE_NS3_10compressorEEEbS7_RKNS_8functionIFbmmRNS2_8DataSinkEEEERKT_RT0_RNS2_5ErrorEEUlRKNS_18unordered_multimapISI_SI_NS3_11case_ignore4hashENS12_8equal_toENSG_INS_4pairISJ_SI_EEEEEEE_NSG_IS1B_EEFvS1A_EE18destroy_deallocateEv, symObjAddr: 0x18C1C, symBinAddr: 0x100019394, symSize: 0x4 }
  - { offset: 0x1ADA2F, size: 0x8, addend: 0x0, symName: __ZNSt3__110__function6__funcIZN7httplib6detail21write_content_chunkedIZNS2_6Server27write_content_with_providerERNS2_6StreamERKNS2_7RequestERNS2_8ResponseERKNS_12basic_stringIcNS_11char_traitsIcEENS_9allocatorIcEEEESK_EUlvE_NS3_10compressorEEEbS7_RKNS_8functionIFbmmRNS2_8DataSinkEEEERKT_RT0_RNS2_5ErrorEEUlRKNS_18unordered_multimapISI_SI_NS3_11case_ignore4hashENS12_8equal_toENSG_INS_4pairISJ_SI_EEEEEEE_NSG_IS1B_EEFvS1A_EE18destroy_deallocateEv, symObjAddr: 0x18C1C, symBinAddr: 0x100019394, symSize: 0x4 }
  - { offset: 0x1ADA62, size: 0x8, addend: 0x0, symName: __ZNSt3__110__function6__funcIZN7httplib6detail21write_content_chunkedIZNS2_6Server27write_content_with_providerERNS2_6StreamERKNS2_7RequestERNS2_8ResponseERKNS_12basic_stringIcNS_11char_traitsIcEENS_9allocatorIcEEEESK_EUlvE_NS3_10compressorEEEbS7_RKNS_8functionIFbmmRNS2_8DataSinkEEEERKT_RT0_RNS2_5ErrorEEUlRKNS_18unordered_multimapISI_SI_NS3_11case_ignore4hashENS12_8equal_toENSG_INS_4pairISJ_SI_EEEEEEE_NSG_IS1B_EEFvS1A_EE18destroy_deallocateEv, symObjAddr: 0x18C1C, symBinAddr: 0x100019394, symSize: 0x4 }
  - { offset: 0x1ADB14, size: 0x8, addend: 0x0, symName: __ZNSt3__110__function6__funcIZN7httplib6detail21write_content_chunkedIZNS2_6Server27write_content_with_providerERNS2_6StreamERKNS2_7RequestERNS2_8ResponseERKNS_12basic_stringIcNS_11char_traitsIcEENS_9allocatorIcEEEESK_EUlvE_NS3_10compressorEEEbS7_RKNS_8functionIFbmmRNS2_8DataSinkEEEERKT_RT0_RNS2_5ErrorEEUlRKNS_18unordered_multimapISI_SI_NS3_11case_ignore4hashENS12_8equal_toENSG_INS_4pairISJ_SI_EEEEEEE_NSG_IS1B_EEFvS1A_EEclES1A_, symObjAddr: 0x18C20, symBinAddr: 0x100019398, symSize: 0x8 }
  - { offset: 0x1ADB4C, size: 0x8, addend: 0x0, symName: __ZNSt3__110__function6__funcIZN7httplib6detail21write_content_chunkedIZNS2_6Server27write_content_with_providerERNS2_6StreamERKNS2_7RequestERNS2_8ResponseERKNS_12basic_stringIcNS_11char_traitsIcEENS_9allocatorIcEEEESK_EUlvE_NS3_10compressorEEEbS7_RKNS_8functionIFbmmRNS2_8DataSinkEEEERKT_RT0_RNS2_5ErrorEEUlRKNS_18unordered_multimapISI_SI_NS3_11case_ignore4hashENS12_8equal_toENSG_INS_4pairISJ_SI_EEEEEEE_NSG_IS1B_EEFvS1A_EEclES1A_, symObjAddr: 0x18C20, symBinAddr: 0x100019398, symSize: 0x8 }
  - { offset: 0x1ADB71, size: 0x8, addend: 0x0, symName: __ZNSt3__110__function6__funcIZN7httplib6detail21write_content_chunkedIZNS2_6Server27write_content_with_providerERNS2_6StreamERKNS2_7RequestERNS2_8ResponseERKNS_12basic_stringIcNS_11char_traitsIcEENS_9allocatorIcEEEESK_EUlvE_NS3_10compressorEEEbS7_RKNS_8functionIFbmmRNS2_8DataSinkEEEERKT_RT0_RNS2_5ErrorEEUlRKNS_18unordered_multimapISI_SI_NS3_11case_ignore4hashENS12_8equal_toENSG_INS_4pairISJ_SI_EEEEEEE_NSG_IS1B_EEFvS1A_EEclES1A_, symObjAddr: 0x18C20, symBinAddr: 0x100019398, symSize: 0x8 }
  - { offset: 0x1ADB95, size: 0x8, addend: 0x0, symName: __ZNSt3__110__function6__funcIZN7httplib6detail21write_content_chunkedIZNS2_6Server27write_content_with_providerERNS2_6StreamERKNS2_7RequestERNS2_8ResponseERKNS_12basic_stringIcNS_11char_traitsIcEENS_9allocatorIcEEEESK_EUlvE_NS3_10compressorEEEbS7_RKNS_8functionIFbmmRNS2_8DataSinkEEEERKT_RT0_RNS2_5ErrorEEUlRKNS_18unordered_multimapISI_SI_NS3_11case_ignore4hashENS12_8equal_toENSG_INS_4pairISJ_SI_EEEEEEE_NSG_IS1B_EEFvS1A_EEclES1A_, symObjAddr: 0x18C20, symBinAddr: 0x100019398, symSize: 0x8 }
  - { offset: 0x1ADBBA, size: 0x8, addend: 0x0, symName: __ZNSt3__110__function6__funcIZN7httplib6detail21write_content_chunkedIZNS2_6Server27write_content_with_providerERNS2_6StreamERKNS2_7RequestERNS2_8ResponseERKNS_12basic_stringIcNS_11char_traitsIcEENS_9allocatorIcEEEESK_EUlvE_NS3_10compressorEEEbS7_RKNS_8functionIFbmmRNS2_8DataSinkEEEERKT_RT0_RNS2_5ErrorEEUlRKNS_18unordered_multimapISI_SI_NS3_11case_ignore4hashENS12_8equal_toENSG_INS_4pairISJ_SI_EEEEEEE_NSG_IS1B_EEFvS1A_EEclES1A_, symObjAddr: 0x18C20, symBinAddr: 0x100019398, symSize: 0x8 }
  - { offset: 0x1ADBDE, size: 0x8, addend: 0x0, symName: __ZNSt3__110__function6__funcIZN7httplib6detail21write_content_chunkedIZNS2_6Server27write_content_with_providerERNS2_6StreamERKNS2_7RequestERNS2_8ResponseERKNS_12basic_stringIcNS_11char_traitsIcEENS_9allocatorIcEEEESK_EUlvE_NS3_10compressorEEEbS7_RKNS_8functionIFbmmRNS2_8DataSinkEEEERKT_RT0_RNS2_5ErrorEEUlRKNS_18unordered_multimapISI_SI_NS3_11case_ignore4hashENS12_8equal_toENSG_INS_4pairISJ_SI_EEEEEEE_NSG_IS1B_EEFvS1A_EEclES1A_, symObjAddr: 0x18C20, symBinAddr: 0x100019398, symSize: 0x8 }
  - { offset: 0x1ADC1B, size: 0x8, addend: 0x0, symName: __ZNKSt3__110__function6__funcIZN7httplib6detail21write_content_chunkedIZNS2_6Server27write_content_with_providerERNS2_6StreamERKNS2_7RequestERNS2_8ResponseERKNS_12basic_stringIcNS_11char_traitsIcEENS_9allocatorIcEEEESK_EUlvE_NS3_10compressorEEEbS7_RKNS_8functionIFbmmRNS2_8DataSinkEEEERKT_RT0_RNS2_5ErrorEEUlRKNS_18unordered_multimapISI_SI_NS3_11case_ignore4hashENS12_8equal_toENSG_INS_4pairISJ_SI_EEEEEEE_NSG_IS1B_EEFvS1A_EE6targetERKSt9type_info, symObjAddr: 0x18C28, symBinAddr: 0x1000193A0, symSize: 0x64 }
  - { offset: 0x1ADCCE, size: 0x8, addend: 0x0, symName: __ZNKSt3__110__function6__funcIZN7httplib6detail21write_content_chunkedIZNS2_6Server27write_content_with_providerERNS2_6StreamERKNS2_7RequestERNS2_8ResponseERKNS_12basic_stringIcNS_11char_traitsIcEENS_9allocatorIcEEEESK_EUlvE_NS3_10compressorEEEbS7_RKNS_8functionIFbmmRNS2_8DataSinkEEEERKT_RT0_RNS2_5ErrorEEUlRKNS_18unordered_multimapISI_SI_NS3_11case_ignore4hashENS12_8equal_toENSG_INS_4pairISJ_SI_EEEEEEE_NSG_IS1B_EEFvS1A_EE11target_typeEv, symObjAddr: 0x18C8C, symBinAddr: 0x100019404, symSize: 0xC }
  - { offset: 0x1ADCFB, size: 0x8, addend: 0x0, symName: __ZNSt3__110__function6__funcIZN7httplib6detail28write_content_without_lengthIZNS2_6Server27write_content_with_providerERNS2_6StreamERKNS2_7RequestERNS2_8ResponseERKNS_12basic_stringIcNS_11char_traitsIcEENS_9allocatorIcEEEESK_EUlvE_EEbS7_RKNS_8functionIFbmmRNS2_8DataSinkEEEERKT_EUlPKcmE_NSG_ISY_EEFbSX_mEED1Ev, symObjAddr: 0x18E30, symBinAddr: 0x1000195A8, symSize: 0x4 }
  - { offset: 0x1ADD27, size: 0x8, addend: 0x0, symName: __ZNSt3__110__function6__funcIZN7httplib6detail28write_content_without_lengthIZNS2_6Server27write_content_with_providerERNS2_6StreamERKNS2_7RequestERNS2_8ResponseERKNS_12basic_stringIcNS_11char_traitsIcEENS_9allocatorIcEEEESK_EUlvE_EEbS7_RKNS_8functionIFbmmRNS2_8DataSinkEEEERKT_EUlPKcmE_NSG_ISY_EEFbSX_mEED0Ev, symObjAddr: 0x18E34, symBinAddr: 0x1000195AC, symSize: 0x4 }
  - { offset: 0x1ADE17, size: 0x8, addend: 0x0, symName: __ZNKSt3__110__function6__funcIZN7httplib6detail28write_content_without_lengthIZNS2_6Server27write_content_with_providerERNS2_6StreamERKNS2_7RequestERNS2_8ResponseERKNS_12basic_stringIcNS_11char_traitsIcEENS_9allocatorIcEEEESK_EUlvE_EEbS7_RKNS_8functionIFbmmRNS2_8DataSinkEEEERKT_EUlPKcmE_NSG_ISY_EEFbSX_mEE7__cloneEv, symObjAddr: 0x18E38, symBinAddr: 0x1000195B0, symSize: 0x40 }
  - { offset: 0x1AE028, size: 0x8, addend: 0x0, symName: __ZNKSt3__110__function6__funcIZN7httplib6detail28write_content_without_lengthIZNS2_6Server27write_content_with_providerERNS2_6StreamERKNS2_7RequestERNS2_8ResponseERKNS_12basic_stringIcNS_11char_traitsIcEENS_9allocatorIcEEEESK_EUlvE_EEbS7_RKNS_8functionIFbmmRNS2_8DataSinkEEEERKT_EUlPKcmE_NSG_ISY_EEFbSX_mEE7__cloneEPNS0_6__baseIS10_EE, symObjAddr: 0x18E78, symBinAddr: 0x1000195F0, symSize: 0x20 }
  - { offset: 0x1AE05E, size: 0x8, addend: 0x0, symName: __ZNKSt3__110__function6__funcIZN7httplib6detail28write_content_without_lengthIZNS2_6Server27write_content_with_providerERNS2_6StreamERKNS2_7RequestERNS2_8ResponseERKNS_12basic_stringIcNS_11char_traitsIcEENS_9allocatorIcEEEESK_EUlvE_EEbS7_RKNS_8functionIFbmmRNS2_8DataSinkEEEERKT_EUlPKcmE_NSG_ISY_EEFbSX_mEE7__cloneEPNS0_6__baseIS10_EE, symObjAddr: 0x18E78, symBinAddr: 0x1000195F0, symSize: 0x20 }
  - { offset: 0x1AE08C, size: 0x8, addend: 0x0, symName: __ZNKSt3__110__function6__funcIZN7httplib6detail28write_content_without_lengthIZNS2_6Server27write_content_with_providerERNS2_6StreamERKNS2_7RequestERNS2_8ResponseERKNS_12basic_stringIcNS_11char_traitsIcEENS_9allocatorIcEEEESK_EUlvE_EEbS7_RKNS_8functionIFbmmRNS2_8DataSinkEEEERKT_EUlPKcmE_NSG_ISY_EEFbSX_mEE7__cloneEPNS0_6__baseIS10_EE, symObjAddr: 0x18E78, symBinAddr: 0x1000195F0, symSize: 0x20 }
  - { offset: 0x1AE11B, size: 0x8, addend: 0x0, symName: __ZNSt3__110__function6__funcIZN7httplib6detail28write_content_without_lengthIZNS2_6Server27write_content_with_providerERNS2_6StreamERKNS2_7RequestERNS2_8ResponseERKNS_12basic_stringIcNS_11char_traitsIcEENS_9allocatorIcEEEESK_EUlvE_EEbS7_RKNS_8functionIFbmmRNS2_8DataSinkEEEERKT_EUlPKcmE_NSG_ISY_EEFbSX_mEE7destroyEv, symObjAddr: 0x18E98, symBinAddr: 0x100019610, symSize: 0x4 }
  - { offset: 0x1AE172, size: 0x8, addend: 0x0, symName: __ZNSt3__110__function6__funcIZN7httplib6detail28write_content_without_lengthIZNS2_6Server27write_content_with_providerERNS2_6StreamERKNS2_7RequestERNS2_8ResponseERKNS_12basic_stringIcNS_11char_traitsIcEENS_9allocatorIcEEEESK_EUlvE_EEbS7_RKNS_8functionIFbmmRNS2_8DataSinkEEEERKT_EUlPKcmE_NSG_ISY_EEFbSX_mEE18destroy_deallocateEv, symObjAddr: 0x18E9C, symBinAddr: 0x100019614, symSize: 0x4 }
  - { offset: 0x1AE1A5, size: 0x8, addend: 0x0, symName: __ZNSt3__110__function6__funcIZN7httplib6detail28write_content_without_lengthIZNS2_6Server27write_content_with_providerERNS2_6StreamERKNS2_7RequestERNS2_8ResponseERKNS_12basic_stringIcNS_11char_traitsIcEENS_9allocatorIcEEEESK_EUlvE_EEbS7_RKNS_8functionIFbmmRNS2_8DataSinkEEEERKT_EUlPKcmE_NSG_ISY_EEFbSX_mEE18destroy_deallocateEv, symObjAddr: 0x18E9C, symBinAddr: 0x100019614, symSize: 0x4 }
  - { offset: 0x1AE1C8, size: 0x8, addend: 0x0, symName: __ZNSt3__110__function6__funcIZN7httplib6detail28write_content_without_lengthIZNS2_6Server27write_content_with_providerERNS2_6StreamERKNS2_7RequestERNS2_8ResponseERKNS_12basic_stringIcNS_11char_traitsIcEENS_9allocatorIcEEEESK_EUlvE_EEbS7_RKNS_8functionIFbmmRNS2_8DataSinkEEEERKT_EUlPKcmE_NSG_ISY_EEFbSX_mEE18destroy_deallocateEv, symObjAddr: 0x18E9C, symBinAddr: 0x100019614, symSize: 0x4 }
  - { offset: 0x1AE1FC, size: 0x8, addend: 0x0, symName: __ZNSt3__110__function6__funcIZN7httplib6detail28write_content_without_lengthIZNS2_6Server27write_content_with_providerERNS2_6StreamERKNS2_7RequestERNS2_8ResponseERKNS_12basic_stringIcNS_11char_traitsIcEENS_9allocatorIcEEEESK_EUlvE_EEbS7_RKNS_8functionIFbmmRNS2_8DataSinkEEEERKT_EUlPKcmE_NSG_ISY_EEFbSX_mEE18destroy_deallocateEv, symObjAddr: 0x18E9C, symBinAddr: 0x100019614, symSize: 0x4 }
  - { offset: 0x1AE2D0, size: 0x8, addend: 0x0, symName: __ZNSt3__110__function6__funcIZN7httplib6detail28write_content_without_lengthIZNS2_6Server27write_content_with_providerERNS2_6StreamERKNS2_7RequestERNS2_8ResponseERKNS_12basic_stringIcNS_11char_traitsIcEENS_9allocatorIcEEEESK_EUlvE_EEbS7_RKNS_8functionIFbmmRNS2_8DataSinkEEEERKT_EUlPKcmE_NSG_ISY_EEFbSX_mEEclEOSX_Om, symObjAddr: 0x18EA0, symBinAddr: 0x100019618, symSize: 0xC8 }
  - { offset: 0x1AE440, size: 0x8, addend: 0x0, symName: __ZNKSt3__110__function6__funcIZN7httplib6detail28write_content_without_lengthIZNS2_6Server27write_content_with_providerERNS2_6StreamERKNS2_7RequestERNS2_8ResponseERKNS_12basic_stringIcNS_11char_traitsIcEENS_9allocatorIcEEEESK_EUlvE_EEbS7_RKNS_8functionIFbmmRNS2_8DataSinkEEEERKT_EUlPKcmE_NSG_ISY_EEFbSX_mEE6targetERKSt9type_info, symObjAddr: 0x18F68, symBinAddr: 0x1000196E0, symSize: 0x64 }
  - { offset: 0x1AE4F3, size: 0x8, addend: 0x0, symName: __ZNKSt3__110__function6__funcIZN7httplib6detail28write_content_without_lengthIZNS2_6Server27write_content_with_providerERNS2_6StreamERKNS2_7RequestERNS2_8ResponseERKNS_12basic_stringIcNS_11char_traitsIcEENS_9allocatorIcEEEESK_EUlvE_EEbS7_RKNS_8functionIFbmmRNS2_8DataSinkEEEERKT_EUlPKcmE_NSG_ISY_EEFbSX_mEE11target_typeEv, symObjAddr: 0x18FCC, symBinAddr: 0x100019744, symSize: 0xC }
  - { offset: 0x1AE51A, size: 0x8, addend: 0x0, symName: __ZNSt3__110__function6__funcIZN7httplib6detail28write_content_without_lengthIZNS2_6Server27write_content_with_providerERNS2_6StreamERKNS2_7RequestERNS2_8ResponseERKNS_12basic_stringIcNS_11char_traitsIcEENS_9allocatorIcEEEESK_EUlvE_EEbS7_RKNS_8functionIFbmmRNS2_8DataSinkEEEERKT_EUlvE_NSG_ISW_EEFbvEED1Ev, symObjAddr: 0x18FD8, symBinAddr: 0x100019750, symSize: 0x4 }
  - { offset: 0x1AE546, size: 0x8, addend: 0x0, symName: __ZNSt3__110__function6__funcIZN7httplib6detail28write_content_without_lengthIZNS2_6Server27write_content_with_providerERNS2_6StreamERKNS2_7RequestERNS2_8ResponseERKNS_12basic_stringIcNS_11char_traitsIcEENS_9allocatorIcEEEESK_EUlvE_EEbS7_RKNS_8functionIFbmmRNS2_8DataSinkEEEERKT_EUlvE_NSG_ISW_EEFbvEED0Ev, symObjAddr: 0x18FDC, symBinAddr: 0x100019754, symSize: 0x4 }
  - { offset: 0x1AE65D, size: 0x8, addend: 0x0, symName: __ZNKSt3__110__function6__funcIZN7httplib6detail28write_content_without_lengthIZNS2_6Server27write_content_with_providerERNS2_6StreamERKNS2_7RequestERNS2_8ResponseERKNS_12basic_stringIcNS_11char_traitsIcEENS_9allocatorIcEEEESK_EUlvE_EEbS7_RKNS_8functionIFbmmRNS2_8DataSinkEEEERKT_EUlvE_NSG_ISW_EEFbvEE7__cloneEv, symObjAddr: 0x18FE0, symBinAddr: 0x100019758, symSize: 0x34 }
  - { offset: 0x1AE85C, size: 0x8, addend: 0x0, symName: __ZNKSt3__110__function6__funcIZN7httplib6detail28write_content_without_lengthIZNS2_6Server27write_content_with_providerERNS2_6StreamERKNS2_7RequestERNS2_8ResponseERKNS_12basic_stringIcNS_11char_traitsIcEENS_9allocatorIcEEEESK_EUlvE_EEbS7_RKNS_8functionIFbmmRNS2_8DataSinkEEEERKT_EUlvE_NSG_ISW_EEFbvEE7__cloneEPNS0_6__baseISY_EE, symObjAddr: 0x19014, symBinAddr: 0x10001978C, symSize: 0x14 }
  - { offset: 0x1AE892, size: 0x8, addend: 0x0, symName: __ZNKSt3__110__function6__funcIZN7httplib6detail28write_content_without_lengthIZNS2_6Server27write_content_with_providerERNS2_6StreamERKNS2_7RequestERNS2_8ResponseERKNS_12basic_stringIcNS_11char_traitsIcEENS_9allocatorIcEEEESK_EUlvE_EEbS7_RKNS_8functionIFbmmRNS2_8DataSinkEEEERKT_EUlvE_NSG_ISW_EEFbvEE7__cloneEPNS0_6__baseISY_EE, symObjAddr: 0x19014, symBinAddr: 0x10001978C, symSize: 0x14 }
  - { offset: 0x1AE8C0, size: 0x8, addend: 0x0, symName: __ZNKSt3__110__function6__funcIZN7httplib6detail28write_content_without_lengthIZNS2_6Server27write_content_with_providerERNS2_6StreamERKNS2_7RequestERNS2_8ResponseERKNS_12basic_stringIcNS_11char_traitsIcEENS_9allocatorIcEEEESK_EUlvE_EEbS7_RKNS_8functionIFbmmRNS2_8DataSinkEEEERKT_EUlvE_NSG_ISW_EEFbvEE7__cloneEPNS0_6__baseISY_EE, symObjAddr: 0x19014, symBinAddr: 0x10001978C, symSize: 0x14 }
  - { offset: 0x1AE8EE, size: 0x8, addend: 0x0, symName: __ZNKSt3__110__function6__funcIZN7httplib6detail28write_content_without_lengthIZNS2_6Server27write_content_with_providerERNS2_6StreamERKNS2_7RequestERNS2_8ResponseERKNS_12basic_stringIcNS_11char_traitsIcEENS_9allocatorIcEEEESK_EUlvE_EEbS7_RKNS_8functionIFbmmRNS2_8DataSinkEEEERKT_EUlvE_NSG_ISW_EEFbvEE7__cloneEPNS0_6__baseISY_EE, symObjAddr: 0x19014, symBinAddr: 0x10001978C, symSize: 0x14 }
  - { offset: 0x1AE903, size: 0x8, addend: 0x0, symName: __ZNKSt3__110__function6__funcIZN7httplib6detail28write_content_without_lengthIZNS2_6Server27write_content_with_providerERNS2_6StreamERKNS2_7RequestERNS2_8ResponseERKNS_12basic_stringIcNS_11char_traitsIcEENS_9allocatorIcEEEESK_EUlvE_EEbS7_RKNS_8functionIFbmmRNS2_8DataSinkEEEERKT_EUlvE_NSG_ISW_EEFbvEE7__cloneEPNS0_6__baseISY_EE, symObjAddr: 0x19014, symBinAddr: 0x10001978C, symSize: 0x14 }
  - { offset: 0x1AE918, size: 0x8, addend: 0x0, symName: __ZNSt3__110__function6__funcIZN7httplib6detail28write_content_without_lengthIZNS2_6Server27write_content_with_providerERNS2_6StreamERKNS2_7RequestERNS2_8ResponseERKNS_12basic_stringIcNS_11char_traitsIcEENS_9allocatorIcEEEESK_EUlvE_EEbS7_RKNS_8functionIFbmmRNS2_8DataSinkEEEERKT_EUlvE_NSG_ISW_EEFbvEE7destroyEv, symObjAddr: 0x19028, symBinAddr: 0x1000197A0, symSize: 0x4 }
  - { offset: 0x1AE96F, size: 0x8, addend: 0x0, symName: __ZNSt3__110__function6__funcIZN7httplib6detail28write_content_without_lengthIZNS2_6Server27write_content_with_providerERNS2_6StreamERKNS2_7RequestERNS2_8ResponseERKNS_12basic_stringIcNS_11char_traitsIcEENS_9allocatorIcEEEESK_EUlvE_EEbS7_RKNS_8functionIFbmmRNS2_8DataSinkEEEERKT_EUlvE_NSG_ISW_EEFbvEE18destroy_deallocateEv, symObjAddr: 0x1902C, symBinAddr: 0x1000197A4, symSize: 0x4 }
  - { offset: 0x1AE9A2, size: 0x8, addend: 0x0, symName: __ZNSt3__110__function6__funcIZN7httplib6detail28write_content_without_lengthIZNS2_6Server27write_content_with_providerERNS2_6StreamERKNS2_7RequestERNS2_8ResponseERKNS_12basic_stringIcNS_11char_traitsIcEENS_9allocatorIcEEEESK_EUlvE_EEbS7_RKNS_8functionIFbmmRNS2_8DataSinkEEEERKT_EUlvE_NSG_ISW_EEFbvEE18destroy_deallocateEv, symObjAddr: 0x1902C, symBinAddr: 0x1000197A4, symSize: 0x4 }
  - { offset: 0x1AE9C5, size: 0x8, addend: 0x0, symName: __ZNSt3__110__function6__funcIZN7httplib6detail28write_content_without_lengthIZNS2_6Server27write_content_with_providerERNS2_6StreamERKNS2_7RequestERNS2_8ResponseERKNS_12basic_stringIcNS_11char_traitsIcEENS_9allocatorIcEEEESK_EUlvE_EEbS7_RKNS_8functionIFbmmRNS2_8DataSinkEEEERKT_EUlvE_NSG_ISW_EEFbvEE18destroy_deallocateEv, symObjAddr: 0x1902C, symBinAddr: 0x1000197A4, symSize: 0x4 }
  - { offset: 0x1AE9F8, size: 0x8, addend: 0x0, symName: __ZNSt3__110__function6__funcIZN7httplib6detail28write_content_without_lengthIZNS2_6Server27write_content_with_providerERNS2_6StreamERKNS2_7RequestERNS2_8ResponseERKNS_12basic_stringIcNS_11char_traitsIcEENS_9allocatorIcEEEESK_EUlvE_EEbS7_RKNS_8functionIFbmmRNS2_8DataSinkEEEERKT_EUlvE_NSG_ISW_EEFbvEE18destroy_deallocateEv, symObjAddr: 0x1902C, symBinAddr: 0x1000197A4, symSize: 0x4 }
  - { offset: 0x1AEA7C, size: 0x8, addend: 0x0, symName: __ZNSt3__110__function6__funcIZN7httplib6detail28write_content_without_lengthIZNS2_6Server27write_content_with_providerERNS2_6StreamERKNS2_7RequestERNS2_8ResponseERKNS_12basic_stringIcNS_11char_traitsIcEENS_9allocatorIcEEEESK_EUlvE_EEbS7_RKNS_8functionIFbmmRNS2_8DataSinkEEEERKT_EUlvE_NSG_ISW_EEFbvEEclEv, symObjAddr: 0x19030, symBinAddr: 0x1000197A8, symSize: 0x10 }
  - { offset: 0x1AEAA5, size: 0x8, addend: 0x0, symName: __ZNSt3__110__function6__funcIZN7httplib6detail28write_content_without_lengthIZNS2_6Server27write_content_with_providerERNS2_6StreamERKNS2_7RequestERNS2_8ResponseERKNS_12basic_stringIcNS_11char_traitsIcEENS_9allocatorIcEEEESK_EUlvE_EEbS7_RKNS_8functionIFbmmRNS2_8DataSinkEEEERKT_EUlvE_NSG_ISW_EEFbvEEclEv, symObjAddr: 0x19030, symBinAddr: 0x1000197A8, symSize: 0x10 }
  - { offset: 0x1AEAC3, size: 0x8, addend: 0x0, symName: __ZNSt3__110__function6__funcIZN7httplib6detail28write_content_without_lengthIZNS2_6Server27write_content_with_providerERNS2_6StreamERKNS2_7RequestERNS2_8ResponseERKNS_12basic_stringIcNS_11char_traitsIcEENS_9allocatorIcEEEESK_EUlvE_EEbS7_RKNS_8functionIFbmmRNS2_8DataSinkEEEERKT_EUlvE_NSG_ISW_EEFbvEEclEv, symObjAddr: 0x19030, symBinAddr: 0x1000197A8, symSize: 0x10 }
  - { offset: 0x1AEAE0, size: 0x8, addend: 0x0, symName: __ZNSt3__110__function6__funcIZN7httplib6detail28write_content_without_lengthIZNS2_6Server27write_content_with_providerERNS2_6StreamERKNS2_7RequestERNS2_8ResponseERKNS_12basic_stringIcNS_11char_traitsIcEENS_9allocatorIcEEEESK_EUlvE_EEbS7_RKNS_8functionIFbmmRNS2_8DataSinkEEEERKT_EUlvE_NSG_ISW_EEFbvEEclEv, symObjAddr: 0x19030, symBinAddr: 0x1000197A8, symSize: 0x10 }
  - { offset: 0x1AEAFE, size: 0x8, addend: 0x0, symName: __ZNSt3__110__function6__funcIZN7httplib6detail28write_content_without_lengthIZNS2_6Server27write_content_with_providerERNS2_6StreamERKNS2_7RequestERNS2_8ResponseERKNS_12basic_stringIcNS_11char_traitsIcEENS_9allocatorIcEEEESK_EUlvE_EEbS7_RKNS_8functionIFbmmRNS2_8DataSinkEEEERKT_EUlvE_NSG_ISW_EEFbvEEclEv, symObjAddr: 0x19030, symBinAddr: 0x1000197A8, symSize: 0x10 }
  - { offset: 0x1AEB1B, size: 0x8, addend: 0x0, symName: __ZNSt3__110__function6__funcIZN7httplib6detail28write_content_without_lengthIZNS2_6Server27write_content_with_providerERNS2_6StreamERKNS2_7RequestERNS2_8ResponseERKNS_12basic_stringIcNS_11char_traitsIcEENS_9allocatorIcEEEESK_EUlvE_EEbS7_RKNS_8functionIFbmmRNS2_8DataSinkEEEERKT_EUlvE_NSG_ISW_EEFbvEEclEv, symObjAddr: 0x19030, symBinAddr: 0x1000197A8, symSize: 0x10 }
  - { offset: 0x1AEB47, size: 0x8, addend: 0x0, symName: __ZNKSt3__110__function6__funcIZN7httplib6detail28write_content_without_lengthIZNS2_6Server27write_content_with_providerERNS2_6StreamERKNS2_7RequestERNS2_8ResponseERKNS_12basic_stringIcNS_11char_traitsIcEENS_9allocatorIcEEEESK_EUlvE_EEbS7_RKNS_8functionIFbmmRNS2_8DataSinkEEEERKT_EUlvE_NSG_ISW_EEFbvEE6targetERKSt9type_info, symObjAddr: 0x19040, symBinAddr: 0x1000197B8, symSize: 0x64 }
  - { offset: 0x1AEBFA, size: 0x8, addend: 0x0, symName: __ZNKSt3__110__function6__funcIZN7httplib6detail28write_content_without_lengthIZNS2_6Server27write_content_with_providerERNS2_6StreamERKNS2_7RequestERNS2_8ResponseERKNS_12basic_stringIcNS_11char_traitsIcEENS_9allocatorIcEEEESK_EUlvE_EEbS7_RKNS_8functionIFbmmRNS2_8DataSinkEEEERKT_EUlvE_NSG_ISW_EEFbvEE11target_typeEv, symObjAddr: 0x190A4, symBinAddr: 0x10001981C, symSize: 0xC }
  - { offset: 0x1AEC21, size: 0x8, addend: 0x0, symName: __ZNSt3__110__function6__funcIZN7httplib6detail28write_content_without_lengthIZNS2_6Server27write_content_with_providerERNS2_6StreamERKNS2_7RequestERNS2_8ResponseERKNS_12basic_stringIcNS_11char_traitsIcEENS_9allocatorIcEEEESK_EUlvE_EEbS7_RKNS_8functionIFbmmRNS2_8DataSinkEEEERKT_EUlvE0_NSG_ISW_EEFvvEED1Ev, symObjAddr: 0x190B0, symBinAddr: 0x100019828, symSize: 0x4 }
  - { offset: 0x1AEC4D, size: 0x8, addend: 0x0, symName: __ZNSt3__110__function6__funcIZN7httplib6detail28write_content_without_lengthIZNS2_6Server27write_content_with_providerERNS2_6StreamERKNS2_7RequestERNS2_8ResponseERKNS_12basic_stringIcNS_11char_traitsIcEENS_9allocatorIcEEEESK_EUlvE_EEbS7_RKNS_8functionIFbmmRNS2_8DataSinkEEEERKT_EUlvE0_NSG_ISW_EEFvvEED0Ev, symObjAddr: 0x190B4, symBinAddr: 0x10001982C, symSize: 0x4 }
  - { offset: 0x1AED64, size: 0x8, addend: 0x0, symName: __ZNKSt3__110__function6__funcIZN7httplib6detail28write_content_without_lengthIZNS2_6Server27write_content_with_providerERNS2_6StreamERKNS2_7RequestERNS2_8ResponseERKNS_12basic_stringIcNS_11char_traitsIcEENS_9allocatorIcEEEESK_EUlvE_EEbS7_RKNS_8functionIFbmmRNS2_8DataSinkEEEERKT_EUlvE0_NSG_ISW_EEFvvEE7__cloneEv, symObjAddr: 0x190B8, symBinAddr: 0x100019830, symSize: 0x34 }
  - { offset: 0x1AEF63, size: 0x8, addend: 0x0, symName: __ZNKSt3__110__function6__funcIZN7httplib6detail28write_content_without_lengthIZNS2_6Server27write_content_with_providerERNS2_6StreamERKNS2_7RequestERNS2_8ResponseERKNS_12basic_stringIcNS_11char_traitsIcEENS_9allocatorIcEEEESK_EUlvE_EEbS7_RKNS_8functionIFbmmRNS2_8DataSinkEEEERKT_EUlvE0_NSG_ISW_EEFvvEE7__cloneEPNS0_6__baseISY_EE, symObjAddr: 0x190EC, symBinAddr: 0x100019864, symSize: 0x14 }
  - { offset: 0x1AEF99, size: 0x8, addend: 0x0, symName: __ZNKSt3__110__function6__funcIZN7httplib6detail28write_content_without_lengthIZNS2_6Server27write_content_with_providerERNS2_6StreamERKNS2_7RequestERNS2_8ResponseERKNS_12basic_stringIcNS_11char_traitsIcEENS_9allocatorIcEEEESK_EUlvE_EEbS7_RKNS_8functionIFbmmRNS2_8DataSinkEEEERKT_EUlvE0_NSG_ISW_EEFvvEE7__cloneEPNS0_6__baseISY_EE, symObjAddr: 0x190EC, symBinAddr: 0x100019864, symSize: 0x14 }
  - { offset: 0x1AEFC7, size: 0x8, addend: 0x0, symName: __ZNKSt3__110__function6__funcIZN7httplib6detail28write_content_without_lengthIZNS2_6Server27write_content_with_providerERNS2_6StreamERKNS2_7RequestERNS2_8ResponseERKNS_12basic_stringIcNS_11char_traitsIcEENS_9allocatorIcEEEESK_EUlvE_EEbS7_RKNS_8functionIFbmmRNS2_8DataSinkEEEERKT_EUlvE0_NSG_ISW_EEFvvEE7__cloneEPNS0_6__baseISY_EE, symObjAddr: 0x190EC, symBinAddr: 0x100019864, symSize: 0x14 }
  - { offset: 0x1AEFF5, size: 0x8, addend: 0x0, symName: __ZNKSt3__110__function6__funcIZN7httplib6detail28write_content_without_lengthIZNS2_6Server27write_content_with_providerERNS2_6StreamERKNS2_7RequestERNS2_8ResponseERKNS_12basic_stringIcNS_11char_traitsIcEENS_9allocatorIcEEEESK_EUlvE_EEbS7_RKNS_8functionIFbmmRNS2_8DataSinkEEEERKT_EUlvE0_NSG_ISW_EEFvvEE7__cloneEPNS0_6__baseISY_EE, symObjAddr: 0x190EC, symBinAddr: 0x100019864, symSize: 0x14 }
  - { offset: 0x1AF00A, size: 0x8, addend: 0x0, symName: __ZNKSt3__110__function6__funcIZN7httplib6detail28write_content_without_lengthIZNS2_6Server27write_content_with_providerERNS2_6StreamERKNS2_7RequestERNS2_8ResponseERKNS_12basic_stringIcNS_11char_traitsIcEENS_9allocatorIcEEEESK_EUlvE_EEbS7_RKNS_8functionIFbmmRNS2_8DataSinkEEEERKT_EUlvE0_NSG_ISW_EEFvvEE7__cloneEPNS0_6__baseISY_EE, symObjAddr: 0x190EC, symBinAddr: 0x100019864, symSize: 0x14 }
  - { offset: 0x1AF01F, size: 0x8, addend: 0x0, symName: __ZNSt3__110__function6__funcIZN7httplib6detail28write_content_without_lengthIZNS2_6Server27write_content_with_providerERNS2_6StreamERKNS2_7RequestERNS2_8ResponseERKNS_12basic_stringIcNS_11char_traitsIcEENS_9allocatorIcEEEESK_EUlvE_EEbS7_RKNS_8functionIFbmmRNS2_8DataSinkEEEERKT_EUlvE0_NSG_ISW_EEFvvEE7destroyEv, symObjAddr: 0x19100, symBinAddr: 0x100019878, symSize: 0x4 }
  - { offset: 0x1AF076, size: 0x8, addend: 0x0, symName: __ZNSt3__110__function6__funcIZN7httplib6detail28write_content_without_lengthIZNS2_6Server27write_content_with_providerERNS2_6StreamERKNS2_7RequestERNS2_8ResponseERKNS_12basic_stringIcNS_11char_traitsIcEENS_9allocatorIcEEEESK_EUlvE_EEbS7_RKNS_8functionIFbmmRNS2_8DataSinkEEEERKT_EUlvE0_NSG_ISW_EEFvvEE18destroy_deallocateEv, symObjAddr: 0x19104, symBinAddr: 0x10001987C, symSize: 0x4 }
  - { offset: 0x1AF0A9, size: 0x8, addend: 0x0, symName: __ZNSt3__110__function6__funcIZN7httplib6detail28write_content_without_lengthIZNS2_6Server27write_content_with_providerERNS2_6StreamERKNS2_7RequestERNS2_8ResponseERKNS_12basic_stringIcNS_11char_traitsIcEENS_9allocatorIcEEEESK_EUlvE_EEbS7_RKNS_8functionIFbmmRNS2_8DataSinkEEEERKT_EUlvE0_NSG_ISW_EEFvvEE18destroy_deallocateEv, symObjAddr: 0x19104, symBinAddr: 0x10001987C, symSize: 0x4 }
  - { offset: 0x1AF0CC, size: 0x8, addend: 0x0, symName: __ZNSt3__110__function6__funcIZN7httplib6detail28write_content_without_lengthIZNS2_6Server27write_content_with_providerERNS2_6StreamERKNS2_7RequestERNS2_8ResponseERKNS_12basic_stringIcNS_11char_traitsIcEENS_9allocatorIcEEEESK_EUlvE_EEbS7_RKNS_8functionIFbmmRNS2_8DataSinkEEEERKT_EUlvE0_NSG_ISW_EEFvvEE18destroy_deallocateEv, symObjAddr: 0x19104, symBinAddr: 0x10001987C, symSize: 0x4 }
  - { offset: 0x1AF0FF, size: 0x8, addend: 0x0, symName: __ZNSt3__110__function6__funcIZN7httplib6detail28write_content_without_lengthIZNS2_6Server27write_content_with_providerERNS2_6StreamERKNS2_7RequestERNS2_8ResponseERKNS_12basic_stringIcNS_11char_traitsIcEENS_9allocatorIcEEEESK_EUlvE_EEbS7_RKNS_8functionIFbmmRNS2_8DataSinkEEEERKT_EUlvE0_NSG_ISW_EEFvvEE18destroy_deallocateEv, symObjAddr: 0x19104, symBinAddr: 0x10001987C, symSize: 0x4 }
  - { offset: 0x1AF189, size: 0x8, addend: 0x0, symName: __ZNSt3__110__function6__funcIZN7httplib6detail28write_content_without_lengthIZNS2_6Server27write_content_with_providerERNS2_6StreamERKNS2_7RequestERNS2_8ResponseERKNS_12basic_stringIcNS_11char_traitsIcEENS_9allocatorIcEEEESK_EUlvE_EEbS7_RKNS_8functionIFbmmRNS2_8DataSinkEEEERKT_EUlvE0_NSG_ISW_EEFvvEEclEv, symObjAddr: 0x19108, symBinAddr: 0x100019880, symSize: 0xC }
  - { offset: 0x1AF1B0, size: 0x8, addend: 0x0, symName: __ZNSt3__110__function6__funcIZN7httplib6detail28write_content_without_lengthIZNS2_6Server27write_content_with_providerERNS2_6StreamERKNS2_7RequestERNS2_8ResponseERKNS_12basic_stringIcNS_11char_traitsIcEENS_9allocatorIcEEEESK_EUlvE_EEbS7_RKNS_8functionIFbmmRNS2_8DataSinkEEEERKT_EUlvE0_NSG_ISW_EEFvvEEclEv, symObjAddr: 0x19108, symBinAddr: 0x100019880, symSize: 0xC }
  - { offset: 0x1AF1CE, size: 0x8, addend: 0x0, symName: __ZNSt3__110__function6__funcIZN7httplib6detail28write_content_without_lengthIZNS2_6Server27write_content_with_providerERNS2_6StreamERKNS2_7RequestERNS2_8ResponseERKNS_12basic_stringIcNS_11char_traitsIcEENS_9allocatorIcEEEESK_EUlvE_EEbS7_RKNS_8functionIFbmmRNS2_8DataSinkEEEERKT_EUlvE0_NSG_ISW_EEFvvEEclEv, symObjAddr: 0x19108, symBinAddr: 0x100019880, symSize: 0xC }
  - { offset: 0x1AF1EB, size: 0x8, addend: 0x0, symName: __ZNSt3__110__function6__funcIZN7httplib6detail28write_content_without_lengthIZNS2_6Server27write_content_with_providerERNS2_6StreamERKNS2_7RequestERNS2_8ResponseERKNS_12basic_stringIcNS_11char_traitsIcEENS_9allocatorIcEEEESK_EUlvE_EEbS7_RKNS_8functionIFbmmRNS2_8DataSinkEEEERKT_EUlvE0_NSG_ISW_EEFvvEEclEv, symObjAddr: 0x19108, symBinAddr: 0x100019880, symSize: 0xC }
  - { offset: 0x1AF209, size: 0x8, addend: 0x0, symName: __ZNSt3__110__function6__funcIZN7httplib6detail28write_content_without_lengthIZNS2_6Server27write_content_with_providerERNS2_6StreamERKNS2_7RequestERNS2_8ResponseERKNS_12basic_stringIcNS_11char_traitsIcEENS_9allocatorIcEEEESK_EUlvE_EEbS7_RKNS_8functionIFbmmRNS2_8DataSinkEEEERKT_EUlvE0_NSG_ISW_EEFvvEEclEv, symObjAddr: 0x19108, symBinAddr: 0x100019880, symSize: 0xC }
  - { offset: 0x1AF226, size: 0x8, addend: 0x0, symName: __ZNSt3__110__function6__funcIZN7httplib6detail28write_content_without_lengthIZNS2_6Server27write_content_with_providerERNS2_6StreamERKNS2_7RequestERNS2_8ResponseERKNS_12basic_stringIcNS_11char_traitsIcEENS_9allocatorIcEEEESK_EUlvE_EEbS7_RKNS_8functionIFbmmRNS2_8DataSinkEEEERKT_EUlvE0_NSG_ISW_EEFvvEEclEv, symObjAddr: 0x19108, symBinAddr: 0x100019880, symSize: 0xC }
  - { offset: 0x1AF246, size: 0x8, addend: 0x0, symName: __ZNKSt3__110__function6__funcIZN7httplib6detail28write_content_without_lengthIZNS2_6Server27write_content_with_providerERNS2_6StreamERKNS2_7RequestERNS2_8ResponseERKNS_12basic_stringIcNS_11char_traitsIcEENS_9allocatorIcEEEESK_EUlvE_EEbS7_RKNS_8functionIFbmmRNS2_8DataSinkEEEERKT_EUlvE0_NSG_ISW_EEFvvEE6targetERKSt9type_info, symObjAddr: 0x19114, symBinAddr: 0x10001988C, symSize: 0x64 }
  - { offset: 0x1AF2F9, size: 0x8, addend: 0x0, symName: __ZNKSt3__110__function6__funcIZN7httplib6detail28write_content_without_lengthIZNS2_6Server27write_content_with_providerERNS2_6StreamERKNS2_7RequestERNS2_8ResponseERKNS_12basic_stringIcNS_11char_traitsIcEENS_9allocatorIcEEEESK_EUlvE_EEbS7_RKNS_8functionIFbmmRNS2_8DataSinkEEEERKT_EUlvE0_NSG_ISW_EEFvvEE11target_typeEv, symObjAddr: 0x19178, symBinAddr: 0x1000198F0, symSize: 0xC }
  - { offset: 0x1AF467, size: 0x8, addend: 0x0, symName: __ZNSt3__16__treeINS_12basic_stringIcNS_11char_traitsIcEENS_9allocatorIcEEEENS_4lessIS6_EENS4_IS6_EEE30__emplace_hint_unique_key_argsIS6_JRKS6_EEENS_4pairINS_15__tree_iteratorIS6_PNS_11__tree_nodeIS6_PvEElEEbEENS_21__tree_const_iteratorIS6_SJ_lEERKT_DpOT0_, symObjAddr: 0x19960, symBinAddr: 0x10001A0D8, symSize: 0xF8 }
  - { offset: 0x1AF7CF, size: 0x8, addend: 0x0, symName: __ZNSt3__16__treeINS_12basic_stringIcNS_11char_traitsIcEENS_9allocatorIcEEEENS_4lessIS6_EENS4_IS6_EEE7destroyEPNS_11__tree_nodeIS6_PvEE, symObjAddr: 0x1A004, symBinAddr: 0x10001A77C, symSize: 0x60 }
  - { offset: 0x1AF9FE, size: 0x8, addend: 0x0, symName: __ZNSt3__13setINS_12basic_stringIcNS_11char_traitsIcEENS_9allocatorIcEEEENS_4lessIS6_EENS4_IS6_EEED1B8ne200100Ev, symObjAddr: 0x19204, symBinAddr: 0x10001997C, symSize: 0x28 }
  - { offset: 0x1AFC63, size: 0x8, addend: 0x0, symName: __ZNSt3__110__function6__funcIZNK7httplib6Server18parse_request_lineEPKcRNS2_7RequestEEUlS5_S5_E_NS_9allocatorIS8_EEFvS5_S5_EED1Ev, symObjAddr: 0x19648, symBinAddr: 0x100019DC0, symSize: 0x4 }
  - { offset: 0x1AFC8F, size: 0x8, addend: 0x0, symName: __ZNSt3__110__function6__funcIZNK7httplib6Server18parse_request_lineEPKcRNS2_7RequestEEUlS5_S5_E_NS_9allocatorIS8_EEFvS5_S5_EED0Ev, symObjAddr: 0x1964C, symBinAddr: 0x100019DC4, symSize: 0x4 }
  - { offset: 0x1AFDA6, size: 0x8, addend: 0x0, symName: __ZNKSt3__110__function6__funcIZNK7httplib6Server18parse_request_lineEPKcRNS2_7RequestEEUlS5_S5_E_NS_9allocatorIS8_EEFvS5_S5_EE7__cloneEv, symObjAddr: 0x19650, symBinAddr: 0x100019DC8, symSize: 0x38 }
  - { offset: 0x1AFEF3, size: 0x8, addend: 0x0, symName: __ZNKSt3__110__function6__funcIZNK7httplib6Server18parse_request_lineEPKcRNS2_7RequestEEUlS5_S5_E_NS_9allocatorIS8_EEFvS5_S5_EE7__cloneEPNS0_6__baseISB_EE, symObjAddr: 0x19688, symBinAddr: 0x100019E00, symSize: 0x18 }
  - { offset: 0x1AFF1C, size: 0x8, addend: 0x0, symName: __ZNKSt3__110__function6__funcIZNK7httplib6Server18parse_request_lineEPKcRNS2_7RequestEEUlS5_S5_E_NS_9allocatorIS8_EEFvS5_S5_EE7__cloneEPNS0_6__baseISB_EE, symObjAddr: 0x19688, symBinAddr: 0x100019E00, symSize: 0x18 }
  - { offset: 0x1AFF4A, size: 0x8, addend: 0x0, symName: __ZNKSt3__110__function6__funcIZNK7httplib6Server18parse_request_lineEPKcRNS2_7RequestEEUlS5_S5_E_NS_9allocatorIS8_EEFvS5_S5_EE7__cloneEPNS0_6__baseISB_EE, symObjAddr: 0x19688, symBinAddr: 0x100019E00, symSize: 0x18 }
  - { offset: 0x1AFFD9, size: 0x8, addend: 0x0, symName: __ZNSt3__110__function6__funcIZNK7httplib6Server18parse_request_lineEPKcRNS2_7RequestEEUlS5_S5_E_NS_9allocatorIS8_EEFvS5_S5_EE7destroyEv, symObjAddr: 0x196A0, symBinAddr: 0x100019E18, symSize: 0x4 }
  - { offset: 0x1B0030, size: 0x8, addend: 0x0, symName: __ZNSt3__110__function6__funcIZNK7httplib6Server18parse_request_lineEPKcRNS2_7RequestEEUlS5_S5_E_NS_9allocatorIS8_EEFvS5_S5_EE18destroy_deallocateEv, symObjAddr: 0x196A4, symBinAddr: 0x100019E1C, symSize: 0x4 }
  - { offset: 0x1B0063, size: 0x8, addend: 0x0, symName: __ZNSt3__110__function6__funcIZNK7httplib6Server18parse_request_lineEPKcRNS2_7RequestEEUlS5_S5_E_NS_9allocatorIS8_EEFvS5_S5_EE18destroy_deallocateEv, symObjAddr: 0x196A4, symBinAddr: 0x100019E1C, symSize: 0x4 }
  - { offset: 0x1B0086, size: 0x8, addend: 0x0, symName: __ZNSt3__110__function6__funcIZNK7httplib6Server18parse_request_lineEPKcRNS2_7RequestEEUlS5_S5_E_NS_9allocatorIS8_EEFvS5_S5_EE18destroy_deallocateEv, symObjAddr: 0x196A4, symBinAddr: 0x100019E1C, symSize: 0x4 }
  - { offset: 0x1B00B9, size: 0x8, addend: 0x0, symName: __ZNSt3__110__function6__funcIZNK7httplib6Server18parse_request_lineEPKcRNS2_7RequestEEUlS5_S5_E_NS_9allocatorIS8_EEFvS5_S5_EE18destroy_deallocateEv, symObjAddr: 0x196A4, symBinAddr: 0x100019E1C, symSize: 0x4 }
  - { offset: 0x1B0155, size: 0x8, addend: 0x0, symName: __ZNSt3__110__function6__funcIZNK7httplib6Server18parse_request_lineEPKcRNS2_7RequestEEUlS5_S5_E_NS_9allocatorIS8_EEFvS5_S5_EEclEOS5_SD_, symObjAddr: 0x196A8, symBinAddr: 0x100019E20, symSize: 0x10 }
  - { offset: 0x1B022E, size: 0x8, addend: 0x0, symName: __ZZNK7httplib6Server18parse_request_lineEPKcRNS_7RequestEENKUlS2_S2_E_clES2_S2_, symObjAddr: 0x19728, symBinAddr: 0x100019EA0, symSize: 0x238 }
  - { offset: 0x1B0DD8, size: 0x8, addend: 0x0, symName: __ZNSt3__16__treeINS_12basic_stringIcNS_11char_traitsIcEENS_9allocatorIcEEEENS_4lessIS6_EENS4_IS6_EEE30__emplace_hint_unique_key_argsIS6_JRKS6_EEENS_4pairINS_15__tree_iteratorIS6_PNS_11__tree_nodeIS6_PvEElEEbEENS_21__tree_const_iteratorIS6_SJ_lEERKT_DpOT0_, symObjAddr: 0x19960, symBinAddr: 0x10001A0D8, symSize: 0xF8 }
  - { offset: 0x1B0DE3, size: 0x8, addend: 0x0, symName: __ZNKSt3__110__function6__funcIZNK7httplib6Server18parse_request_lineEPKcRNS2_7RequestEEUlS5_S5_E_NS_9allocatorIS8_EEFvS5_S5_EE6targetERKSt9type_info, symObjAddr: 0x196B8, symBinAddr: 0x100019E30, symSize: 0x64 }
  - { offset: 0x1B0E96, size: 0x8, addend: 0x0, symName: __ZNKSt3__110__function6__funcIZNK7httplib6Server18parse_request_lineEPKcRNS2_7RequestEEUlS5_S5_E_NS_9allocatorIS8_EEFvS5_S5_EE11target_typeEv, symObjAddr: 0x1971C, symBinAddr: 0x100019E94, symSize: 0xC }
  - { offset: 0x1B1094, size: 0x8, addend: 0x0, symName: __ZNSt3__16__treeINS_12basic_stringIcNS_11char_traitsIcEENS_9allocatorIcEEEENS_4lessIS6_EENS4_IS6_EEE12__find_equalIS6_EERPNS_16__tree_node_baseIPvEENS_21__tree_const_iteratorIS6_PNS_11__tree_nodeIS6_SD_EElEERPNS_15__tree_end_nodeISF_EESG_RKT_, symObjAddr: 0x19A58, symBinAddr: 0x10001A1D0, symSize: 0x3A0 }
  - { offset: 0x1B1CFD, size: 0x8, addend: 0x0, symName: __ZNSt3__110unique_ptrINS_11__tree_nodeINS_12basic_stringIcNS_11char_traitsIcEENS_9allocatorIcEEEEPvEENS_22__tree_node_destructorINS5_IS9_EEEEED1B8ne200100Ev, symObjAddr: 0x19DF8, symBinAddr: 0x10001A570, symSize: 0x60 }
  - { offset: 0x1B2255, size: 0x8, addend: 0x0, symName: __ZNSt3__110__function6__funcIZNK7httplib6Server18parse_request_lineEPKcRNS2_7RequestEEUlS5_mS5_mE_NS_9allocatorIS8_EEFvS5_mS5_mEED1Ev, symObjAddr: 0x1A17C, symBinAddr: 0x10001A8F4, symSize: 0x4 }
  - { offset: 0x1B2281, size: 0x8, addend: 0x0, symName: __ZNSt3__110__function6__funcIZNK7httplib6Server18parse_request_lineEPKcRNS2_7RequestEEUlS5_mS5_mE_NS_9allocatorIS8_EEFvS5_mS5_mEED0Ev, symObjAddr: 0x1A180, symBinAddr: 0x10001A8F8, symSize: 0x4 }
  - { offset: 0x1B2398, size: 0x8, addend: 0x0, symName: __ZNKSt3__110__function6__funcIZNK7httplib6Server18parse_request_lineEPKcRNS2_7RequestEEUlS5_mS5_mE_NS_9allocatorIS8_EEFvS5_mS5_mEE7__cloneEv, symObjAddr: 0x1A184, symBinAddr: 0x10001A8FC, symSize: 0x34 }
  - { offset: 0x1B2597, size: 0x8, addend: 0x0, symName: __ZNKSt3__110__function6__funcIZNK7httplib6Server18parse_request_lineEPKcRNS2_7RequestEEUlS5_mS5_mE_NS_9allocatorIS8_EEFvS5_mS5_mEE7__cloneEPNS0_6__baseISB_EE, symObjAddr: 0x1A1B8, symBinAddr: 0x10001A930, symSize: 0x14 }
  - { offset: 0x1B25CD, size: 0x8, addend: 0x0, symName: __ZNKSt3__110__function6__funcIZNK7httplib6Server18parse_request_lineEPKcRNS2_7RequestEEUlS5_mS5_mE_NS_9allocatorIS8_EEFvS5_mS5_mEE7__cloneEPNS0_6__baseISB_EE, symObjAddr: 0x1A1B8, symBinAddr: 0x10001A930, symSize: 0x14 }
  - { offset: 0x1B25FB, size: 0x8, addend: 0x0, symName: __ZNKSt3__110__function6__funcIZNK7httplib6Server18parse_request_lineEPKcRNS2_7RequestEEUlS5_mS5_mE_NS_9allocatorIS8_EEFvS5_mS5_mEE7__cloneEPNS0_6__baseISB_EE, symObjAddr: 0x1A1B8, symBinAddr: 0x10001A930, symSize: 0x14 }
  - { offset: 0x1B2629, size: 0x8, addend: 0x0, symName: __ZNKSt3__110__function6__funcIZNK7httplib6Server18parse_request_lineEPKcRNS2_7RequestEEUlS5_mS5_mE_NS_9allocatorIS8_EEFvS5_mS5_mEE7__cloneEPNS0_6__baseISB_EE, symObjAddr: 0x1A1B8, symBinAddr: 0x10001A930, symSize: 0x14 }
  - { offset: 0x1B263E, size: 0x8, addend: 0x0, symName: __ZNKSt3__110__function6__funcIZNK7httplib6Server18parse_request_lineEPKcRNS2_7RequestEEUlS5_mS5_mE_NS_9allocatorIS8_EEFvS5_mS5_mEE7__cloneEPNS0_6__baseISB_EE, symObjAddr: 0x1A1B8, symBinAddr: 0x10001A930, symSize: 0x14 }
  - { offset: 0x1B2653, size: 0x8, addend: 0x0, symName: __ZNSt3__110__function6__funcIZNK7httplib6Server18parse_request_lineEPKcRNS2_7RequestEEUlS5_mS5_mE_NS_9allocatorIS8_EEFvS5_mS5_mEE7destroyEv, symObjAddr: 0x1A1CC, symBinAddr: 0x10001A944, symSize: 0x4 }
  - { offset: 0x1B26AA, size: 0x8, addend: 0x0, symName: __ZNSt3__110__function6__funcIZNK7httplib6Server18parse_request_lineEPKcRNS2_7RequestEEUlS5_mS5_mE_NS_9allocatorIS8_EEFvS5_mS5_mEE18destroy_deallocateEv, symObjAddr: 0x1A1D0, symBinAddr: 0x10001A948, symSize: 0x4 }
  - { offset: 0x1B26DD, size: 0x8, addend: 0x0, symName: __ZNSt3__110__function6__funcIZNK7httplib6Server18parse_request_lineEPKcRNS2_7RequestEEUlS5_mS5_mE_NS_9allocatorIS8_EEFvS5_mS5_mEE18destroy_deallocateEv, symObjAddr: 0x1A1D0, symBinAddr: 0x10001A948, symSize: 0x4 }
  - { offset: 0x1B2700, size: 0x8, addend: 0x0, symName: __ZNSt3__110__function6__funcIZNK7httplib6Server18parse_request_lineEPKcRNS2_7RequestEEUlS5_mS5_mE_NS_9allocatorIS8_EEFvS5_mS5_mEE18destroy_deallocateEv, symObjAddr: 0x1A1D0, symBinAddr: 0x10001A948, symSize: 0x4 }
  - { offset: 0x1B2733, size: 0x8, addend: 0x0, symName: __ZNSt3__110__function6__funcIZNK7httplib6Server18parse_request_lineEPKcRNS2_7RequestEEUlS5_mS5_mE_NS_9allocatorIS8_EEFvS5_mS5_mEE18destroy_deallocateEv, symObjAddr: 0x1A1D0, symBinAddr: 0x10001A948, symSize: 0x4 }
  - { offset: 0x1B2807, size: 0x8, addend: 0x0, symName: __ZNSt3__110__function6__funcIZNK7httplib6Server18parse_request_lineEPKcRNS2_7RequestEEUlS5_mS5_mE_NS_9allocatorIS8_EEFvS5_mS5_mEEclEOS5_OmSD_SE_, symObjAddr: 0x1A1D4, symBinAddr: 0x10001A94C, symSize: 0x18 }
  - { offset: 0x1B2948, size: 0x8, addend: 0x0, symName: __ZZNK7httplib6Server18parse_request_lineEPKcRNS_7RequestEENKUlS2_mS2_mE_clES2_mS2_m, symObjAddr: 0x1A25C, symBinAddr: 0x10001A9D4, symSize: 0x120 }
  - { offset: 0x1B2F1E, size: 0x8, addend: 0x0, symName: __ZNKSt3__110__function6__funcIZNK7httplib6Server18parse_request_lineEPKcRNS2_7RequestEEUlS5_mS5_mE_NS_9allocatorIS8_EEFvS5_mS5_mEE6targetERKSt9type_info, symObjAddr: 0x1A1EC, symBinAddr: 0x10001A964, symSize: 0x64 }
  - { offset: 0x1B2FD1, size: 0x8, addend: 0x0, symName: __ZNKSt3__110__function6__funcIZNK7httplib6Server18parse_request_lineEPKcRNS2_7RequestEEUlS5_mS5_mE_NS_9allocatorIS8_EEFvS5_mS5_mEE11target_typeEv, symObjAddr: 0x1A250, symBinAddr: 0x10001A9C8, symSize: 0xC }
  - { offset: 0x1B3342, size: 0x8, addend: 0x0, symName: __ZN7httplib6detail16parse_query_textEPKcmRNSt3__18multimapINS3_12basic_stringIcNS3_11char_traitsIcEENS3_9allocatorIcEEEESA_NS3_4lessISA_EENS8_INS3_4pairIKSA_SA_EEEEEE.cold.1, symObjAddr: 0x45DC0, symBinAddr: 0x1000B303C, symSize: 0x30 }
  - { offset: 0x1B335D, size: 0x8, addend: 0x0, symName: __ZN7httplib6detail16parse_query_textEPKcmRNSt3__18multimapINS3_12basic_stringIcNS3_11char_traitsIcEENS3_9allocatorIcEEEESA_NS3_4lessISA_EENS8_INS3_4pairIKSA_SA_EEEEEE.cold.1, symObjAddr: 0x45DC0, symBinAddr: 0x1000B303C, symSize: 0x30 }
  - { offset: 0x1B3372, size: 0x8, addend: 0x0, symName: __ZN7httplib6detail16parse_query_textEPKcmRNSt3__18multimapINS3_12basic_stringIcNS3_11char_traitsIcEENS3_9allocatorIcEEEESA_NS3_4lessISA_EENS8_INS3_4pairIKSA_SA_EEEEEE.cold.1, symObjAddr: 0x45DC0, symBinAddr: 0x1000B303C, symSize: 0x30 }
  - { offset: 0x1B3387, size: 0x8, addend: 0x0, symName: __ZN7httplib6detail16parse_query_textEPKcmRNSt3__18multimapINS3_12basic_stringIcNS3_11char_traitsIcEENS3_9allocatorIcEEEESA_NS3_4lessISA_EENS8_INS3_4pairIKSA_SA_EEEEEE.cold.1, symObjAddr: 0x45DC0, symBinAddr: 0x1000B303C, symSize: 0x30 }
  - { offset: 0x1B339D, size: 0x8, addend: 0x0, symName: __ZN7httplib6detail16parse_query_textEPKcmRNSt3__18multimapINS3_12basic_stringIcNS3_11char_traitsIcEENS3_9allocatorIcEEEESA_NS3_4lessISA_EENS8_INS3_4pairIKSA_SA_EEEEEE.cold.1, symObjAddr: 0x45DC0, symBinAddr: 0x1000B303C, symSize: 0x30 }
  - { offset: 0x1B33B3, size: 0x8, addend: 0x0, symName: __ZNSt3__110__function6__funcIZN7httplib6detail16parse_query_textEPKcmRNS_8multimapINS_12basic_stringIcNS_11char_traitsIcEENS_9allocatorIcEEEESC_NS_4lessISC_EENSA_INS_4pairIKSC_SC_EEEEEEEUlS5_S5_E_NSA_ISL_EEFvS5_S5_EED1Ev, symObjAddr: 0x1A4CC, symBinAddr: 0x10001AC44, symSize: 0x4 }
  - { offset: 0x1B33DF, size: 0x8, addend: 0x0, symName: __ZNSt3__110__function6__funcIZN7httplib6detail16parse_query_textEPKcmRNS_8multimapINS_12basic_stringIcNS_11char_traitsIcEENS_9allocatorIcEEEESC_NS_4lessISC_EENSA_INS_4pairIKSC_SC_EEEEEEEUlS5_S5_E_NSA_ISL_EEFvS5_S5_EED0Ev, symObjAddr: 0x1A4D0, symBinAddr: 0x10001AC48, symSize: 0x4 }
  - { offset: 0x1B34F6, size: 0x8, addend: 0x0, symName: __ZNKSt3__110__function6__funcIZN7httplib6detail16parse_query_textEPKcmRNS_8multimapINS_12basic_stringIcNS_11char_traitsIcEENS_9allocatorIcEEEESC_NS_4lessISC_EENSA_INS_4pairIKSC_SC_EEEEEEEUlS5_S5_E_NSA_ISL_EEFvS5_S5_EE7__cloneEv, symObjAddr: 0x1A4D4, symBinAddr: 0x10001AC4C, symSize: 0x38 }
  - { offset: 0x1B3643, size: 0x8, addend: 0x0, symName: __ZNKSt3__110__function6__funcIZN7httplib6detail16parse_query_textEPKcmRNS_8multimapINS_12basic_stringIcNS_11char_traitsIcEENS_9allocatorIcEEEESC_NS_4lessISC_EENSA_INS_4pairIKSC_SC_EEEEEEEUlS5_S5_E_NSA_ISL_EEFvS5_S5_EE7__cloneEPNS0_6__baseISN_EE, symObjAddr: 0x1A50C, symBinAddr: 0x10001AC84, symSize: 0x18 }
  - { offset: 0x1B366C, size: 0x8, addend: 0x0, symName: __ZNKSt3__110__function6__funcIZN7httplib6detail16parse_query_textEPKcmRNS_8multimapINS_12basic_stringIcNS_11char_traitsIcEENS_9allocatorIcEEEESC_NS_4lessISC_EENSA_INS_4pairIKSC_SC_EEEEEEEUlS5_S5_E_NSA_ISL_EEFvS5_S5_EE7__cloneEPNS0_6__baseISN_EE, symObjAddr: 0x1A50C, symBinAddr: 0x10001AC84, symSize: 0x18 }
  - { offset: 0x1B369A, size: 0x8, addend: 0x0, symName: __ZNKSt3__110__function6__funcIZN7httplib6detail16parse_query_textEPKcmRNS_8multimapINS_12basic_stringIcNS_11char_traitsIcEENS_9allocatorIcEEEESC_NS_4lessISC_EENSA_INS_4pairIKSC_SC_EEEEEEEUlS5_S5_E_NSA_ISL_EEFvS5_S5_EE7__cloneEPNS0_6__baseISN_EE, symObjAddr: 0x1A50C, symBinAddr: 0x10001AC84, symSize: 0x18 }
  - { offset: 0x1B3729, size: 0x8, addend: 0x0, symName: __ZNSt3__110__function6__funcIZN7httplib6detail16parse_query_textEPKcmRNS_8multimapINS_12basic_stringIcNS_11char_traitsIcEENS_9allocatorIcEEEESC_NS_4lessISC_EENSA_INS_4pairIKSC_SC_EEEEEEEUlS5_S5_E_NSA_ISL_EEFvS5_S5_EE7destroyEv, symObjAddr: 0x1A524, symBinAddr: 0x10001AC9C, symSize: 0x4 }
  - { offset: 0x1B3780, size: 0x8, addend: 0x0, symName: __ZNSt3__110__function6__funcIZN7httplib6detail16parse_query_textEPKcmRNS_8multimapINS_12basic_stringIcNS_11char_traitsIcEENS_9allocatorIcEEEESC_NS_4lessISC_EENSA_INS_4pairIKSC_SC_EEEEEEEUlS5_S5_E_NSA_ISL_EEFvS5_S5_EE18destroy_deallocateEv, symObjAddr: 0x1A528, symBinAddr: 0x10001ACA0, symSize: 0x4 }
  - { offset: 0x1B37B3, size: 0x8, addend: 0x0, symName: __ZNSt3__110__function6__funcIZN7httplib6detail16parse_query_textEPKcmRNS_8multimapINS_12basic_stringIcNS_11char_traitsIcEENS_9allocatorIcEEEESC_NS_4lessISC_EENSA_INS_4pairIKSC_SC_EEEEEEEUlS5_S5_E_NSA_ISL_EEFvS5_S5_EE18destroy_deallocateEv, symObjAddr: 0x1A528, symBinAddr: 0x10001ACA0, symSize: 0x4 }
  - { offset: 0x1B37D6, size: 0x8, addend: 0x0, symName: __ZNSt3__110__function6__funcIZN7httplib6detail16parse_query_textEPKcmRNS_8multimapINS_12basic_stringIcNS_11char_traitsIcEENS_9allocatorIcEEEESC_NS_4lessISC_EENSA_INS_4pairIKSC_SC_EEEEEEEUlS5_S5_E_NSA_ISL_EEFvS5_S5_EE18destroy_deallocateEv, symObjAddr: 0x1A528, symBinAddr: 0x10001ACA0, symSize: 0x4 }
  - { offset: 0x1B3809, size: 0x8, addend: 0x0, symName: __ZNSt3__110__function6__funcIZN7httplib6detail16parse_query_textEPKcmRNS_8multimapINS_12basic_stringIcNS_11char_traitsIcEENS_9allocatorIcEEEESC_NS_4lessISC_EENSA_INS_4pairIKSC_SC_EEEEEEEUlS5_S5_E_NSA_ISL_EEFvS5_S5_EE18destroy_deallocateEv, symObjAddr: 0x1A528, symBinAddr: 0x10001ACA0, symSize: 0x4 }
  - { offset: 0x1B38A5, size: 0x8, addend: 0x0, symName: __ZNSt3__110__function6__funcIZN7httplib6detail16parse_query_textEPKcmRNS_8multimapINS_12basic_stringIcNS_11char_traitsIcEENS_9allocatorIcEEEESC_NS_4lessISC_EENSA_INS_4pairIKSC_SC_EEEEEEEUlS5_S5_E_NSA_ISL_EEFvS5_S5_EEclEOS5_SP_, symObjAddr: 0x1A52C, symBinAddr: 0x10001ACA4, symSize: 0x10 }
  - { offset: 0x1B3978, size: 0x8, addend: 0x0, symName: __ZNKSt3__110__function6__funcIZN7httplib6detail16parse_query_textEPKcmRNS_8multimapINS_12basic_stringIcNS_11char_traitsIcEENS_9allocatorIcEEEESC_NS_4lessISC_EENSA_INS_4pairIKSC_SC_EEEEEEEUlS5_S5_E_NSA_ISL_EEFvS5_S5_EE6targetERKSt9type_info, symObjAddr: 0x1A53C, symBinAddr: 0x10001ACB4, symSize: 0x64 }
  - { offset: 0x1B3A2B, size: 0x8, addend: 0x0, symName: __ZNKSt3__110__function6__funcIZN7httplib6detail16parse_query_textEPKcmRNS_8multimapINS_12basic_stringIcNS_11char_traitsIcEENS_9allocatorIcEEEESC_NS_4lessISC_EENSA_INS_4pairIKSC_SC_EEEEEEEUlS5_S5_E_NSA_ISL_EEFvS5_S5_EE11target_typeEv, symObjAddr: 0x1A5A0, symBinAddr: 0x10001AD18, symSize: 0xC }
  - { offset: 0x1B404D, size: 0x8, addend: 0x0, symName: __ZNSt3__16__treeINS_12basic_stringIcNS_11char_traitsIcEENS_9allocatorIcEEEENS_4lessIS6_EENS4_IS6_EEE25__emplace_unique_key_argsIS6_JS6_EEENS_4pairINS_15__tree_iteratorIS6_PNS_11__tree_nodeIS6_PvEElEEbEERKT_DpOT0_, symObjAddr: 0x1AC80, symBinAddr: 0x10001B2E0, symSize: 0x15C }
  - { offset: 0x1B455A, size: 0x8, addend: 0x0, symName: __ZNSt3__16__treeINS_12__value_typeINS_12basic_stringIcNS_11char_traitsIcEENS_9allocatorIcEEEES7_EENS_19__map_value_compareIS7_S8_NS_4lessIS7_EELb1EEENS5_IS8_EEE15__emplace_multiIJS7_S7_EEENS_15__tree_iteratorIS8_PNS_11__tree_nodeIS8_PvEElEEDpOT_, symObjAddr: 0x1AEF4, symBinAddr: 0x10001B554, symSize: 0x14C }
  - { offset: 0x1B4AD9, size: 0x8, addend: 0x0, symName: __ZNSt3__110__function6__funcIZZN7httplib6detail16parse_query_textEPKcmRNS_8multimapINS_12basic_stringIcNS_11char_traitsIcEENS_9allocatorIcEEEESC_NS_4lessISC_EENSA_INS_4pairIKSC_SC_EEEEEEENKUlS5_S5_E_clES5_S5_EUlS5_mS5_mE_NSA_ISM_EEFvS5_mS5_mEED1Ev, symObjAddr: 0x1ADDC, symBinAddr: 0x10001B43C, symSize: 0x4 }
  - { offset: 0x1B4B05, size: 0x8, addend: 0x0, symName: __ZNSt3__110__function6__funcIZZN7httplib6detail16parse_query_textEPKcmRNS_8multimapINS_12basic_stringIcNS_11char_traitsIcEENS_9allocatorIcEEEESC_NS_4lessISC_EENSA_INS_4pairIKSC_SC_EEEEEEENKUlS5_S5_E_clES5_S5_EUlS5_mS5_mE_NSA_ISM_EEFvS5_mS5_mEED0Ev, symObjAddr: 0x1ADE0, symBinAddr: 0x10001B440, symSize: 0x4 }
  - { offset: 0x1B4C1C, size: 0x8, addend: 0x0, symName: __ZNKSt3__110__function6__funcIZZN7httplib6detail16parse_query_textEPKcmRNS_8multimapINS_12basic_stringIcNS_11char_traitsIcEENS_9allocatorIcEEEESC_NS_4lessISC_EENSA_INS_4pairIKSC_SC_EEEEEEENKUlS5_S5_E_clES5_S5_EUlS5_mS5_mE_NSA_ISM_EEFvS5_mS5_mEE7__cloneEv, symObjAddr: 0x1ADE4, symBinAddr: 0x10001B444, symSize: 0x38 }
  - { offset: 0x1B4E2D, size: 0x8, addend: 0x0, symName: __ZNKSt3__110__function6__funcIZZN7httplib6detail16parse_query_textEPKcmRNS_8multimapINS_12basic_stringIcNS_11char_traitsIcEENS_9allocatorIcEEEESC_NS_4lessISC_EENSA_INS_4pairIKSC_SC_EEEEEEENKUlS5_S5_E_clES5_S5_EUlS5_mS5_mE_NSA_ISM_EEFvS5_mS5_mEE7__cloneEPNS0_6__baseISO_EE, symObjAddr: 0x1AE1C, symBinAddr: 0x10001B47C, symSize: 0x18 }
  - { offset: 0x1B4E63, size: 0x8, addend: 0x0, symName: __ZNKSt3__110__function6__funcIZZN7httplib6detail16parse_query_textEPKcmRNS_8multimapINS_12basic_stringIcNS_11char_traitsIcEENS_9allocatorIcEEEESC_NS_4lessISC_EENSA_INS_4pairIKSC_SC_EEEEEEENKUlS5_S5_E_clES5_S5_EUlS5_mS5_mE_NSA_ISM_EEFvS5_mS5_mEE7__cloneEPNS0_6__baseISO_EE, symObjAddr: 0x1AE1C, symBinAddr: 0x10001B47C, symSize: 0x18 }
  - { offset: 0x1B4E91, size: 0x8, addend: 0x0, symName: __ZNKSt3__110__function6__funcIZZN7httplib6detail16parse_query_textEPKcmRNS_8multimapINS_12basic_stringIcNS_11char_traitsIcEENS_9allocatorIcEEEESC_NS_4lessISC_EENSA_INS_4pairIKSC_SC_EEEEEEENKUlS5_S5_E_clES5_S5_EUlS5_mS5_mE_NSA_ISM_EEFvS5_mS5_mEE7__cloneEPNS0_6__baseISO_EE, symObjAddr: 0x1AE1C, symBinAddr: 0x10001B47C, symSize: 0x18 }
  - { offset: 0x1B4F20, size: 0x8, addend: 0x0, symName: __ZNSt3__110__function6__funcIZZN7httplib6detail16parse_query_textEPKcmRNS_8multimapINS_12basic_stringIcNS_11char_traitsIcEENS_9allocatorIcEEEESC_NS_4lessISC_EENSA_INS_4pairIKSC_SC_EEEEEEENKUlS5_S5_E_clES5_S5_EUlS5_mS5_mE_NSA_ISM_EEFvS5_mS5_mEE7destroyEv, symObjAddr: 0x1AE34, symBinAddr: 0x10001B494, symSize: 0x4 }
  - { offset: 0x1B4F77, size: 0x8, addend: 0x0, symName: __ZNSt3__110__function6__funcIZZN7httplib6detail16parse_query_textEPKcmRNS_8multimapINS_12basic_stringIcNS_11char_traitsIcEENS_9allocatorIcEEEESC_NS_4lessISC_EENSA_INS_4pairIKSC_SC_EEEEEEENKUlS5_S5_E_clES5_S5_EUlS5_mS5_mE_NSA_ISM_EEFvS5_mS5_mEE18destroy_deallocateEv, symObjAddr: 0x1AE38, symBinAddr: 0x10001B498, symSize: 0x4 }
  - { offset: 0x1B4FAA, size: 0x8, addend: 0x0, symName: __ZNSt3__110__function6__funcIZZN7httplib6detail16parse_query_textEPKcmRNS_8multimapINS_12basic_stringIcNS_11char_traitsIcEENS_9allocatorIcEEEESC_NS_4lessISC_EENSA_INS_4pairIKSC_SC_EEEEEEENKUlS5_S5_E_clES5_S5_EUlS5_mS5_mE_NSA_ISM_EEFvS5_mS5_mEE18destroy_deallocateEv, symObjAddr: 0x1AE38, symBinAddr: 0x10001B498, symSize: 0x4 }
  - { offset: 0x1B4FCD, size: 0x8, addend: 0x0, symName: __ZNSt3__110__function6__funcIZZN7httplib6detail16parse_query_textEPKcmRNS_8multimapINS_12basic_stringIcNS_11char_traitsIcEENS_9allocatorIcEEEESC_NS_4lessISC_EENSA_INS_4pairIKSC_SC_EEEEEEENKUlS5_S5_E_clES5_S5_EUlS5_mS5_mE_NSA_ISM_EEFvS5_mS5_mEE18destroy_deallocateEv, symObjAddr: 0x1AE38, symBinAddr: 0x10001B498, symSize: 0x4 }
  - { offset: 0x1B5000, size: 0x8, addend: 0x0, symName: __ZNSt3__110__function6__funcIZZN7httplib6detail16parse_query_textEPKcmRNS_8multimapINS_12basic_stringIcNS_11char_traitsIcEENS_9allocatorIcEEEESC_NS_4lessISC_EENSA_INS_4pairIKSC_SC_EEEEEEENKUlS5_S5_E_clES5_S5_EUlS5_mS5_mE_NSA_ISM_EEFvS5_mS5_mEE18destroy_deallocateEv, symObjAddr: 0x1AE38, symBinAddr: 0x10001B498, symSize: 0x4 }
  - { offset: 0x1B5028, size: 0x8, addend: 0x0, symName: __ZNSt3__110__function6__funcIZZN7httplib6detail16parse_query_textEPKcmRNS_8multimapINS_12basic_stringIcNS_11char_traitsIcEENS_9allocatorIcEEEESC_NS_4lessISC_EENSA_INS_4pairIKSC_SC_EEEEEEENKUlS5_S5_E_clES5_S5_EUlS5_mS5_mE_NSA_ISM_EEFvS5_mS5_mEEclEOS5_OmSQ_SR_, symObjAddr: 0x1AE3C, symBinAddr: 0x10001B49C, symSize: 0x48 }
  - { offset: 0x1B5227, size: 0x8, addend: 0x0, symName: __ZNKSt3__110__function6__funcIZZN7httplib6detail16parse_query_textEPKcmRNS_8multimapINS_12basic_stringIcNS_11char_traitsIcEENS_9allocatorIcEEEESC_NS_4lessISC_EENSA_INS_4pairIKSC_SC_EEEEEEENKUlS5_S5_E_clES5_S5_EUlS5_mS5_mE_NSA_ISM_EEFvS5_mS5_mEE6targetERKSt9type_info, symObjAddr: 0x1AE84, symBinAddr: 0x10001B4E4, symSize: 0x64 }
  - { offset: 0x1B52DA, size: 0x8, addend: 0x0, symName: __ZNKSt3__110__function6__funcIZZN7httplib6detail16parse_query_textEPKcmRNS_8multimapINS_12basic_stringIcNS_11char_traitsIcEENS_9allocatorIcEEEESC_NS_4lessISC_EENSA_INS_4pairIKSC_SC_EEEEEEENKUlS5_S5_E_clES5_S5_EUlS5_mS5_mE_NSA_ISM_EEFvS5_mS5_mEE11target_typeEv, symObjAddr: 0x1AEE8, symBinAddr: 0x10001B548, symSize: 0xC }
  - { offset: 0x1B552E, size: 0x8, addend: 0x0, symName: __ZNSt3__110__function6__funcIZN7httplib13get_client_ipERKNS_12basic_stringIcNS_11char_traitsIcEENS_9allocatorIcEEEERKNS_6vectorIS8_NS6_IS8_EEEEEUlPKcSH_E_NS6_ISI_EEFvSH_SH_EED1Ev, symObjAddr: 0x1B040, symBinAddr: 0x10001B6A0, symSize: 0x4 }
  - { offset: 0x1B555A, size: 0x8, addend: 0x0, symName: __ZNSt3__110__function6__funcIZN7httplib13get_client_ipERKNS_12basic_stringIcNS_11char_traitsIcEENS_9allocatorIcEEEERKNS_6vectorIS8_NS6_IS8_EEEEEUlPKcSH_E_NS6_ISI_EEFvSH_SH_EED0Ev, symObjAddr: 0x1B044, symBinAddr: 0x10001B6A4, symSize: 0x4 }
  - { offset: 0x1B5671, size: 0x8, addend: 0x0, symName: __ZNKSt3__110__function6__funcIZN7httplib13get_client_ipERKNS_12basic_stringIcNS_11char_traitsIcEENS_9allocatorIcEEEERKNS_6vectorIS8_NS6_IS8_EEEEEUlPKcSH_E_NS6_ISI_EEFvSH_SH_EE7__cloneEv, symObjAddr: 0x1B048, symBinAddr: 0x10001B6A8, symSize: 0x34 }
  - { offset: 0x1B57AC, size: 0x8, addend: 0x0, symName: __ZNKSt3__110__function6__funcIZN7httplib13get_client_ipERKNS_12basic_stringIcNS_11char_traitsIcEENS_9allocatorIcEEEERKNS_6vectorIS8_NS6_IS8_EEEEEUlPKcSH_E_NS6_ISI_EEFvSH_SH_EE7__cloneEPNS0_6__baseISK_EE, symObjAddr: 0x1B07C, symBinAddr: 0x10001B6DC, symSize: 0x14 }
  - { offset: 0x1B57D5, size: 0x8, addend: 0x0, symName: __ZNKSt3__110__function6__funcIZN7httplib13get_client_ipERKNS_12basic_stringIcNS_11char_traitsIcEENS_9allocatorIcEEEERKNS_6vectorIS8_NS6_IS8_EEEEEUlPKcSH_E_NS6_ISI_EEFvSH_SH_EE7__cloneEPNS0_6__baseISK_EE, symObjAddr: 0x1B07C, symBinAddr: 0x10001B6DC, symSize: 0x14 }
  - { offset: 0x1B5803, size: 0x8, addend: 0x0, symName: __ZNKSt3__110__function6__funcIZN7httplib13get_client_ipERKNS_12basic_stringIcNS_11char_traitsIcEENS_9allocatorIcEEEERKNS_6vectorIS8_NS6_IS8_EEEEEUlPKcSH_E_NS6_ISI_EEFvSH_SH_EE7__cloneEPNS0_6__baseISK_EE, symObjAddr: 0x1B07C, symBinAddr: 0x10001B6DC, symSize: 0x14 }
  - { offset: 0x1B5831, size: 0x8, addend: 0x0, symName: __ZNKSt3__110__function6__funcIZN7httplib13get_client_ipERKNS_12basic_stringIcNS_11char_traitsIcEENS_9allocatorIcEEEERKNS_6vectorIS8_NS6_IS8_EEEEEUlPKcSH_E_NS6_ISI_EEFvSH_SH_EE7__cloneEPNS0_6__baseISK_EE, symObjAddr: 0x1B07C, symBinAddr: 0x10001B6DC, symSize: 0x14 }
  - { offset: 0x1B5846, size: 0x8, addend: 0x0, symName: __ZNKSt3__110__function6__funcIZN7httplib13get_client_ipERKNS_12basic_stringIcNS_11char_traitsIcEENS_9allocatorIcEEEERKNS_6vectorIS8_NS6_IS8_EEEEEUlPKcSH_E_NS6_ISI_EEFvSH_SH_EE7__cloneEPNS0_6__baseISK_EE, symObjAddr: 0x1B07C, symBinAddr: 0x10001B6DC, symSize: 0x14 }
  - { offset: 0x1B585B, size: 0x8, addend: 0x0, symName: __ZNSt3__110__function6__funcIZN7httplib13get_client_ipERKNS_12basic_stringIcNS_11char_traitsIcEENS_9allocatorIcEEEERKNS_6vectorIS8_NS6_IS8_EEEEEUlPKcSH_E_NS6_ISI_EEFvSH_SH_EE7destroyEv, symObjAddr: 0x1B090, symBinAddr: 0x10001B6F0, symSize: 0x4 }
  - { offset: 0x1B58B2, size: 0x8, addend: 0x0, symName: __ZNSt3__110__function6__funcIZN7httplib13get_client_ipERKNS_12basic_stringIcNS_11char_traitsIcEENS_9allocatorIcEEEERKNS_6vectorIS8_NS6_IS8_EEEEEUlPKcSH_E_NS6_ISI_EEFvSH_SH_EE18destroy_deallocateEv, symObjAddr: 0x1B094, symBinAddr: 0x10001B6F4, symSize: 0x4 }
  - { offset: 0x1B58E5, size: 0x8, addend: 0x0, symName: __ZNSt3__110__function6__funcIZN7httplib13get_client_ipERKNS_12basic_stringIcNS_11char_traitsIcEENS_9allocatorIcEEEERKNS_6vectorIS8_NS6_IS8_EEEEEUlPKcSH_E_NS6_ISI_EEFvSH_SH_EE18destroy_deallocateEv, symObjAddr: 0x1B094, symBinAddr: 0x10001B6F4, symSize: 0x4 }
  - { offset: 0x1B5908, size: 0x8, addend: 0x0, symName: __ZNSt3__110__function6__funcIZN7httplib13get_client_ipERKNS_12basic_stringIcNS_11char_traitsIcEENS_9allocatorIcEEEERKNS_6vectorIS8_NS6_IS8_EEEEEUlPKcSH_E_NS6_ISI_EEFvSH_SH_EE18destroy_deallocateEv, symObjAddr: 0x1B094, symBinAddr: 0x10001B6F4, symSize: 0x4 }
  - { offset: 0x1B593B, size: 0x8, addend: 0x0, symName: __ZNSt3__110__function6__funcIZN7httplib13get_client_ipERKNS_12basic_stringIcNS_11char_traitsIcEENS_9allocatorIcEEEERKNS_6vectorIS8_NS6_IS8_EEEEEUlPKcSH_E_NS6_ISI_EEFvSH_SH_EE18destroy_deallocateEv, symObjAddr: 0x1B094, symBinAddr: 0x10001B6F4, symSize: 0x4 }
  - { offset: 0x1B59D7, size: 0x8, addend: 0x0, symName: __ZNSt3__110__function6__funcIZN7httplib13get_client_ipERKNS_12basic_stringIcNS_11char_traitsIcEENS_9allocatorIcEEEERKNS_6vectorIS8_NS6_IS8_EEEEEUlPKcSH_E_NS6_ISI_EEFvSH_SH_EEclEOSH_SM_, symObjAddr: 0x1B098, symBinAddr: 0x10001B6F8, symSize: 0x10 }
  - { offset: 0x1B5AB0, size: 0x8, addend: 0x0, symName: __ZZN7httplib13get_client_ipERKNSt3__112basic_stringIcNS0_11char_traitsIcEENS0_9allocatorIcEEEERKNS0_6vectorIS6_NS4_IS6_EEEEENKUlPKcSF_E_clESF_SF_, symObjAddr: 0x1B118, symBinAddr: 0x10001B778, symSize: 0x210 }
  - { offset: 0x1B638B, size: 0x8, addend: 0x0, symName: __ZNKSt3__110__function6__funcIZN7httplib13get_client_ipERKNS_12basic_stringIcNS_11char_traitsIcEENS_9allocatorIcEEEERKNS_6vectorIS8_NS6_IS8_EEEEEUlPKcSH_E_NS6_ISI_EEFvSH_SH_EE6targetERKSt9type_info, symObjAddr: 0x1B0A8, symBinAddr: 0x10001B708, symSize: 0x64 }
  - { offset: 0x1B643E, size: 0x8, addend: 0x0, symName: __ZNKSt3__110__function6__funcIZN7httplib13get_client_ipERKNS_12basic_stringIcNS_11char_traitsIcEENS_9allocatorIcEEEERKNS_6vectorIS8_NS6_IS8_EEEEEUlPKcSH_E_NS6_ISI_EEFvSH_SH_EE11target_typeEv, symObjAddr: 0x1B10C, symBinAddr: 0x10001B76C, symSize: 0xC }
  - { offset: 0x1B6465, size: 0x8, addend: 0x0, symName: __ZNSt3__110__function6__funcIZN7httplib6detail19parse_accept_headerERKNS_12basic_stringIcNS_11char_traitsIcEENS_9allocatorIcEEEERNS_6vectorIS9_NS7_IS9_EEEEEUlPKcSH_E_NS7_ISI_EEFvSH_SH_EED1Ev, symObjAddr: 0x1B398, symBinAddr: 0x10001B9F8, symSize: 0x4 }
  - { offset: 0x1B6491, size: 0x8, addend: 0x0, symName: __ZNSt3__110__function6__funcIZN7httplib6detail19parse_accept_headerERKNS_12basic_stringIcNS_11char_traitsIcEENS_9allocatorIcEEEERNS_6vectorIS9_NS7_IS9_EEEEEUlPKcSH_E_NS7_ISI_EEFvSH_SH_EED0Ev, symObjAddr: 0x1B39C, symBinAddr: 0x10001B9FC, symSize: 0x4 }
  - { offset: 0x1B6581, size: 0x8, addend: 0x0, symName: __ZNKSt3__110__function6__funcIZN7httplib6detail19parse_accept_headerERKNS_12basic_stringIcNS_11char_traitsIcEENS_9allocatorIcEEEERNS_6vectorIS9_NS7_IS9_EEEEEUlPKcSH_E_NS7_ISI_EEFvSH_SH_EE7__cloneEv, symObjAddr: 0x1B3A0, symBinAddr: 0x10001BA00, symSize: 0x40 }
  - { offset: 0x1B6792, size: 0x8, addend: 0x0, symName: __ZNKSt3__110__function6__funcIZN7httplib6detail19parse_accept_headerERKNS_12basic_stringIcNS_11char_traitsIcEENS_9allocatorIcEEEERNS_6vectorIS9_NS7_IS9_EEEEEUlPKcSH_E_NS7_ISI_EEFvSH_SH_EE7__cloneEPNS0_6__baseISK_EE, symObjAddr: 0x1B3E0, symBinAddr: 0x10001BA40, symSize: 0x20 }
  - { offset: 0x1B67C8, size: 0x8, addend: 0x0, symName: __ZNKSt3__110__function6__funcIZN7httplib6detail19parse_accept_headerERKNS_12basic_stringIcNS_11char_traitsIcEENS_9allocatorIcEEEERNS_6vectorIS9_NS7_IS9_EEEEEUlPKcSH_E_NS7_ISI_EEFvSH_SH_EE7__cloneEPNS0_6__baseISK_EE, symObjAddr: 0x1B3E0, symBinAddr: 0x10001BA40, symSize: 0x20 }
  - { offset: 0x1B67F6, size: 0x8, addend: 0x0, symName: __ZNKSt3__110__function6__funcIZN7httplib6detail19parse_accept_headerERKNS_12basic_stringIcNS_11char_traitsIcEENS_9allocatorIcEEEERNS_6vectorIS9_NS7_IS9_EEEEEUlPKcSH_E_NS7_ISI_EEFvSH_SH_EE7__cloneEPNS0_6__baseISK_EE, symObjAddr: 0x1B3E0, symBinAddr: 0x10001BA40, symSize: 0x20 }
  - { offset: 0x1B6885, size: 0x8, addend: 0x0, symName: __ZNSt3__110__function6__funcIZN7httplib6detail19parse_accept_headerERKNS_12basic_stringIcNS_11char_traitsIcEENS_9allocatorIcEEEERNS_6vectorIS9_NS7_IS9_EEEEEUlPKcSH_E_NS7_ISI_EEFvSH_SH_EE7destroyEv, symObjAddr: 0x1B400, symBinAddr: 0x10001BA60, symSize: 0x4 }
  - { offset: 0x1B68DC, size: 0x8, addend: 0x0, symName: __ZNSt3__110__function6__funcIZN7httplib6detail19parse_accept_headerERKNS_12basic_stringIcNS_11char_traitsIcEENS_9allocatorIcEEEERNS_6vectorIS9_NS7_IS9_EEEEEUlPKcSH_E_NS7_ISI_EEFvSH_SH_EE18destroy_deallocateEv, symObjAddr: 0x1B404, symBinAddr: 0x10001BA64, symSize: 0x4 }
  - { offset: 0x1B690F, size: 0x8, addend: 0x0, symName: __ZNSt3__110__function6__funcIZN7httplib6detail19parse_accept_headerERKNS_12basic_stringIcNS_11char_traitsIcEENS_9allocatorIcEEEERNS_6vectorIS9_NS7_IS9_EEEEEUlPKcSH_E_NS7_ISI_EEFvSH_SH_EE18destroy_deallocateEv, symObjAddr: 0x1B404, symBinAddr: 0x10001BA64, symSize: 0x4 }
  - { offset: 0x1B6932, size: 0x8, addend: 0x0, symName: __ZNSt3__110__function6__funcIZN7httplib6detail19parse_accept_headerERKNS_12basic_stringIcNS_11char_traitsIcEENS_9allocatorIcEEEERNS_6vectorIS9_NS7_IS9_EEEEEUlPKcSH_E_NS7_ISI_EEFvSH_SH_EE18destroy_deallocateEv, symObjAddr: 0x1B404, symBinAddr: 0x10001BA64, symSize: 0x4 }
  - { offset: 0x1B6966, size: 0x8, addend: 0x0, symName: __ZNSt3__110__function6__funcIZN7httplib6detail19parse_accept_headerERKNS_12basic_stringIcNS_11char_traitsIcEENS_9allocatorIcEEEERNS_6vectorIS9_NS7_IS9_EEEEEUlPKcSH_E_NS7_ISI_EEFvSH_SH_EE18destroy_deallocateEv, symObjAddr: 0x1B404, symBinAddr: 0x10001BA64, symSize: 0x4 }
  - { offset: 0x1B6A02, size: 0x8, addend: 0x0, symName: __ZNSt3__110__function6__funcIZN7httplib6detail19parse_accept_headerERKNS_12basic_stringIcNS_11char_traitsIcEENS_9allocatorIcEEEERNS_6vectorIS9_NS7_IS9_EEEEEUlPKcSH_E_NS7_ISI_EEFvSH_SH_EEclEOSH_SM_, symObjAddr: 0x1B408, symBinAddr: 0x10001BA68, symSize: 0x10 }
  - { offset: 0x1B6ADB, size: 0x8, addend: 0x0, symName: __ZZN7httplib6detail19parse_accept_headerERKNSt3__112basic_stringIcNS1_11char_traitsIcEENS1_9allocatorIcEEEERNS1_6vectorIS7_NS5_IS7_EEEEENKUlPKcSF_E_clESF_SF_, symObjAddr: 0x1B488, symBinAddr: 0x10001BAE8, symSize: 0xC60 }
  - { offset: 0x1B9CD7, size: 0x8, addend: 0x0, symName: __ZNKSt3__110__function6__funcIZN7httplib6detail19parse_accept_headerERKNS_12basic_stringIcNS_11char_traitsIcEENS_9allocatorIcEEEERNS_6vectorIS9_NS7_IS9_EEEEEUlPKcSH_E_NS7_ISI_EEFvSH_SH_EE6targetERKSt9type_info, symObjAddr: 0x1B418, symBinAddr: 0x10001BA78, symSize: 0x64 }
  - { offset: 0x1B9D8A, size: 0x8, addend: 0x0, symName: __ZNKSt3__110__function6__funcIZN7httplib6detail19parse_accept_headerERKNS_12basic_stringIcNS_11char_traitsIcEENS_9allocatorIcEEEERNS_6vectorIS9_NS7_IS9_EEEEEUlPKcSH_E_NS7_ISI_EEFvSH_SH_EE11target_typeEv, symObjAddr: 0x1B47C, symBinAddr: 0x10001BADC, symSize: 0xC }
  - { offset: 0x1B9F5E, size: 0x8, addend: 0x0, symName: __ZNSt3__16vectorIZN7httplib6detail19parse_accept_headerERKNS_12basic_stringIcNS_11char_traitsIcEENS_9allocatorIcEEEERNS0_IS8_NS6_IS8_EEEEE11AcceptEntryNS6_ISE_EEE24__emplace_back_slow_pathIJSE_EEEPSE_DpOT_, symObjAddr: 0x1C0E8, symBinAddr: 0x10001C748, symSize: 0x170 }
  - { offset: 0x1BA78D, size: 0x8, addend: 0x0, symName: __ZNSt3__111__introsortINS_17_ClassicAlgPolicyERZN7httplib6detail19parse_accept_headerERKNS_12basic_stringIcNS_11char_traitsIcEENS_9allocatorIcEEEERNS_6vectorIS9_NS7_IS9_EEEEEUlRKZNS3_19parse_accept_headerESB_SF_E11AcceptEntrySI_E_PSG_Lb0EEEvT1_SM_T0_NS_15iterator_traitsISM_E15difference_typeEb, symObjAddr: 0x1C26C, symBinAddr: 0x10001C8B8, symSize: 0x570 }
  - { offset: 0x1BA869, size: 0x8, addend: 0x0, symName: __ZNSt3__110__function6__funcIZN7httplib6detail18parse_range_headerERKNS_12basic_stringIcNS_11char_traitsIcEENS_9allocatorIcEEEERNS_6vectorINS_4pairIllEENS7_ISE_EEEEEUlPKcSJ_E_NS7_ISK_EEFvSJ_SJ_EED1Ev, symObjAddr: 0x1E4C4, symBinAddr: 0x10001EB10, symSize: 0x4 }
  - { offset: 0x1BA895, size: 0x8, addend: 0x0, symName: __ZNSt3__110__function6__funcIZN7httplib6detail18parse_range_headerERKNS_12basic_stringIcNS_11char_traitsIcEENS_9allocatorIcEEEERNS_6vectorINS_4pairIllEENS7_ISE_EEEEEUlPKcSJ_E_NS7_ISK_EEFvSJ_SJ_EED0Ev, symObjAddr: 0x1E4C8, symBinAddr: 0x10001EB14, symSize: 0x4 }
  - { offset: 0x1BA985, size: 0x8, addend: 0x0, symName: __ZNKSt3__110__function6__funcIZN7httplib6detail18parse_range_headerERKNS_12basic_stringIcNS_11char_traitsIcEENS_9allocatorIcEEEERNS_6vectorINS_4pairIllEENS7_ISE_EEEEEUlPKcSJ_E_NS7_ISK_EEFvSJ_SJ_EE7__cloneEv, symObjAddr: 0x1E4CC, symBinAddr: 0x10001EB18, symSize: 0x40 }
  - { offset: 0x1BAB96, size: 0x8, addend: 0x0, symName: __ZNKSt3__110__function6__funcIZN7httplib6detail18parse_range_headerERKNS_12basic_stringIcNS_11char_traitsIcEENS_9allocatorIcEEEERNS_6vectorINS_4pairIllEENS7_ISE_EEEEEUlPKcSJ_E_NS7_ISK_EEFvSJ_SJ_EE7__cloneEPNS0_6__baseISM_EE, symObjAddr: 0x1E50C, symBinAddr: 0x10001EB58, symSize: 0x20 }
  - { offset: 0x1BABCC, size: 0x8, addend: 0x0, symName: __ZNKSt3__110__function6__funcIZN7httplib6detail18parse_range_headerERKNS_12basic_stringIcNS_11char_traitsIcEENS_9allocatorIcEEEERNS_6vectorINS_4pairIllEENS7_ISE_EEEEEUlPKcSJ_E_NS7_ISK_EEFvSJ_SJ_EE7__cloneEPNS0_6__baseISM_EE, symObjAddr: 0x1E50C, symBinAddr: 0x10001EB58, symSize: 0x20 }
  - { offset: 0x1BABFA, size: 0x8, addend: 0x0, symName: __ZNKSt3__110__function6__funcIZN7httplib6detail18parse_range_headerERKNS_12basic_stringIcNS_11char_traitsIcEENS_9allocatorIcEEEERNS_6vectorINS_4pairIllEENS7_ISE_EEEEEUlPKcSJ_E_NS7_ISK_EEFvSJ_SJ_EE7__cloneEPNS0_6__baseISM_EE, symObjAddr: 0x1E50C, symBinAddr: 0x10001EB58, symSize: 0x20 }
  - { offset: 0x1BAC89, size: 0x8, addend: 0x0, symName: __ZNSt3__110__function6__funcIZN7httplib6detail18parse_range_headerERKNS_12basic_stringIcNS_11char_traitsIcEENS_9allocatorIcEEEERNS_6vectorINS_4pairIllEENS7_ISE_EEEEEUlPKcSJ_E_NS7_ISK_EEFvSJ_SJ_EE7destroyEv, symObjAddr: 0x1E52C, symBinAddr: 0x10001EB78, symSize: 0x4 }
  - { offset: 0x1BACE0, size: 0x8, addend: 0x0, symName: __ZNSt3__110__function6__funcIZN7httplib6detail18parse_range_headerERKNS_12basic_stringIcNS_11char_traitsIcEENS_9allocatorIcEEEERNS_6vectorINS_4pairIllEENS7_ISE_EEEEEUlPKcSJ_E_NS7_ISK_EEFvSJ_SJ_EE18destroy_deallocateEv, symObjAddr: 0x1E530, symBinAddr: 0x10001EB7C, symSize: 0x4 }
  - { offset: 0x1BAD13, size: 0x8, addend: 0x0, symName: __ZNSt3__110__function6__funcIZN7httplib6detail18parse_range_headerERKNS_12basic_stringIcNS_11char_traitsIcEENS_9allocatorIcEEEERNS_6vectorINS_4pairIllEENS7_ISE_EEEEEUlPKcSJ_E_NS7_ISK_EEFvSJ_SJ_EE18destroy_deallocateEv, symObjAddr: 0x1E530, symBinAddr: 0x10001EB7C, symSize: 0x4 }
  - { offset: 0x1BAD36, size: 0x8, addend: 0x0, symName: __ZNSt3__110__function6__funcIZN7httplib6detail18parse_range_headerERKNS_12basic_stringIcNS_11char_traitsIcEENS_9allocatorIcEEEERNS_6vectorINS_4pairIllEENS7_ISE_EEEEEUlPKcSJ_E_NS7_ISK_EEFvSJ_SJ_EE18destroy_deallocateEv, symObjAddr: 0x1E530, symBinAddr: 0x10001EB7C, symSize: 0x4 }
  - { offset: 0x1BAD6A, size: 0x8, addend: 0x0, symName: __ZNSt3__110__function6__funcIZN7httplib6detail18parse_range_headerERKNS_12basic_stringIcNS_11char_traitsIcEENS_9allocatorIcEEEERNS_6vectorINS_4pairIllEENS7_ISE_EEEEEUlPKcSJ_E_NS7_ISK_EEFvSJ_SJ_EE18destroy_deallocateEv, symObjAddr: 0x1E530, symBinAddr: 0x10001EB7C, symSize: 0x4 }
  - { offset: 0x1BAE06, size: 0x8, addend: 0x0, symName: __ZNSt3__110__function6__funcIZN7httplib6detail18parse_range_headerERKNS_12basic_stringIcNS_11char_traitsIcEENS_9allocatorIcEEEERNS_6vectorINS_4pairIllEENS7_ISE_EEEEEUlPKcSJ_E_NS7_ISK_EEFvSJ_SJ_EEclEOSJ_SO_, symObjAddr: 0x1E534, symBinAddr: 0x10001EB80, symSize: 0x10 }
  - { offset: 0x1BAEDF, size: 0x8, addend: 0x0, symName: __ZZN7httplib6detail18parse_range_headerERKNSt3__112basic_stringIcNS1_11char_traitsIcEENS1_9allocatorIcEEEERNS1_6vectorINS1_4pairIllEENS5_ISC_EEEEENKUlPKcSH_E_clESH_SH_, symObjAddr: 0x1E5B4, symBinAddr: 0x10001EC00, symSize: 0x340 }
  - { offset: 0x1BBD62, size: 0x8, addend: 0x0, symName: __ZNKSt3__110__function6__funcIZN7httplib6detail18parse_range_headerERKNS_12basic_stringIcNS_11char_traitsIcEENS_9allocatorIcEEEERNS_6vectorINS_4pairIllEENS7_ISE_EEEEEUlPKcSJ_E_NS7_ISK_EEFvSJ_SJ_EE6targetERKSt9type_info, symObjAddr: 0x1E544, symBinAddr: 0x10001EB90, symSize: 0x64 }
  - { offset: 0x1BBE15, size: 0x8, addend: 0x0, symName: __ZNKSt3__110__function6__funcIZN7httplib6detail18parse_range_headerERKNS_12basic_stringIcNS_11char_traitsIcEENS_9allocatorIcEEEERNS_6vectorINS_4pairIllEENS7_ISE_EEEEEUlPKcSJ_E_NS7_ISK_EEFvSJ_SJ_EE11target_typeEv, symObjAddr: 0x1E5A8, symBinAddr: 0x10001EBF4, symSize: 0xC }
  - { offset: 0x1BBEE7, size: 0x8, addend: 0x0, symName: __ZNSt3__16vectorINS_4pairIllEENS_9allocatorIS2_EEE12emplace_backIJRKlS8_EEERS2_DpOT_, symObjAddr: 0x1E8F4, symBinAddr: 0x10001EF40, symSize: 0x10C }
  - { offset: 0x1BC52E, size: 0x8, addend: 0x0, symName: __ZNSt3__110__function6__funcIZN7httplib6Server15process_requestERNS2_6StreamERKNS_12basic_stringIcNS_11char_traitsIcEENS_9allocatorIcEEEEiSD_ibRbRKNS_8functionIFvRNS2_7RequestEEEEEUlvE_NS9_ISM_EEFbvEED1Ev, symObjAddr: 0x1ED28, symBinAddr: 0x10001F360, symSize: 0x4 }
  - { offset: 0x1BC55A, size: 0x8, addend: 0x0, symName: __ZNSt3__110__function6__funcIZN7httplib6Server15process_requestERNS2_6StreamERKNS_12basic_stringIcNS_11char_traitsIcEENS_9allocatorIcEEEEiSD_ibRbRKNS_8functionIFvRNS2_7RequestEEEEEUlvE_NS9_ISM_EEFbvEED0Ev, symObjAddr: 0x1ED2C, symBinAddr: 0x10001F364, symSize: 0x4 }
  - { offset: 0x1BC671, size: 0x8, addend: 0x0, symName: __ZNKSt3__110__function6__funcIZN7httplib6Server15process_requestERNS2_6StreamERKNS_12basic_stringIcNS_11char_traitsIcEENS_9allocatorIcEEEEiSD_ibRbRKNS_8functionIFvRNS2_7RequestEEEEEUlvE_NS9_ISM_EEFbvEE7__cloneEv, symObjAddr: 0x1ED30, symBinAddr: 0x10001F368, symSize: 0x38 }
  - { offset: 0x1BC882, size: 0x8, addend: 0x0, symName: __ZNKSt3__110__function6__funcIZN7httplib6Server15process_requestERNS2_6StreamERKNS_12basic_stringIcNS_11char_traitsIcEENS_9allocatorIcEEEEiSD_ibRbRKNS_8functionIFvRNS2_7RequestEEEEEUlvE_NS9_ISM_EEFbvEE7__cloneEPNS0_6__baseISO_EE, symObjAddr: 0x1ED68, symBinAddr: 0x10001F3A0, symSize: 0x18 }
  - { offset: 0x1BC8B8, size: 0x8, addend: 0x0, symName: __ZNKSt3__110__function6__funcIZN7httplib6Server15process_requestERNS2_6StreamERKNS_12basic_stringIcNS_11char_traitsIcEENS_9allocatorIcEEEEiSD_ibRbRKNS_8functionIFvRNS2_7RequestEEEEEUlvE_NS9_ISM_EEFbvEE7__cloneEPNS0_6__baseISO_EE, symObjAddr: 0x1ED68, symBinAddr: 0x10001F3A0, symSize: 0x18 }
  - { offset: 0x1BC8E6, size: 0x8, addend: 0x0, symName: __ZNKSt3__110__function6__funcIZN7httplib6Server15process_requestERNS2_6StreamERKNS_12basic_stringIcNS_11char_traitsIcEENS_9allocatorIcEEEEiSD_ibRbRKNS_8functionIFvRNS2_7RequestEEEEEUlvE_NS9_ISM_EEFbvEE7__cloneEPNS0_6__baseISO_EE, symObjAddr: 0x1ED68, symBinAddr: 0x10001F3A0, symSize: 0x18 }
  - { offset: 0x1BC975, size: 0x8, addend: 0x0, symName: __ZNSt3__110__function6__funcIZN7httplib6Server15process_requestERNS2_6StreamERKNS_12basic_stringIcNS_11char_traitsIcEENS_9allocatorIcEEEEiSD_ibRbRKNS_8functionIFvRNS2_7RequestEEEEEUlvE_NS9_ISM_EEFbvEE7destroyEv, symObjAddr: 0x1ED80, symBinAddr: 0x10001F3B8, symSize: 0x4 }
  - { offset: 0x1BC9CC, size: 0x8, addend: 0x0, symName: __ZNSt3__110__function6__funcIZN7httplib6Server15process_requestERNS2_6StreamERKNS_12basic_stringIcNS_11char_traitsIcEENS_9allocatorIcEEEEiSD_ibRbRKNS_8functionIFvRNS2_7RequestEEEEEUlvE_NS9_ISM_EEFbvEE18destroy_deallocateEv, symObjAddr: 0x1ED84, symBinAddr: 0x10001F3BC, symSize: 0x4 }
  - { offset: 0x1BC9FF, size: 0x8, addend: 0x0, symName: __ZNSt3__110__function6__funcIZN7httplib6Server15process_requestERNS2_6StreamERKNS_12basic_stringIcNS_11char_traitsIcEENS_9allocatorIcEEEEiSD_ibRbRKNS_8functionIFvRNS2_7RequestEEEEEUlvE_NS9_ISM_EEFbvEE18destroy_deallocateEv, symObjAddr: 0x1ED84, symBinAddr: 0x10001F3BC, symSize: 0x4 }
  - { offset: 0x1BCA22, size: 0x8, addend: 0x0, symName: __ZNSt3__110__function6__funcIZN7httplib6Server15process_requestERNS2_6StreamERKNS_12basic_stringIcNS_11char_traitsIcEENS_9allocatorIcEEEEiSD_ibRbRKNS_8functionIFvRNS2_7RequestEEEEEUlvE_NS9_ISM_EEFbvEE18destroy_deallocateEv, symObjAddr: 0x1ED84, symBinAddr: 0x10001F3BC, symSize: 0x4 }
  - { offset: 0x1BCA55, size: 0x8, addend: 0x0, symName: __ZNSt3__110__function6__funcIZN7httplib6Server15process_requestERNS2_6StreamERKNS_12basic_stringIcNS_11char_traitsIcEENS_9allocatorIcEEEEiSD_ibRbRKNS_8functionIFvRNS2_7RequestEEEEEUlvE_NS9_ISM_EEFbvEE18destroy_deallocateEv, symObjAddr: 0x1ED84, symBinAddr: 0x10001F3BC, symSize: 0x4 }
  - { offset: 0x1BCADF, size: 0x8, addend: 0x0, symName: __ZNSt3__110__function6__funcIZN7httplib6Server15process_requestERNS2_6StreamERKNS_12basic_stringIcNS_11char_traitsIcEENS_9allocatorIcEEEEiSD_ibRbRKNS_8functionIFvRNS2_7RequestEEEEEUlvE_NS9_ISM_EEFbvEEclEv, symObjAddr: 0x1ED88, symBinAddr: 0x10001F3C0, symSize: 0x1C }
  - { offset: 0x1BCBAB, size: 0x8, addend: 0x0, symName: __ZNKSt3__110__function6__funcIZN7httplib6Server15process_requestERNS2_6StreamERKNS_12basic_stringIcNS_11char_traitsIcEENS_9allocatorIcEEEEiSD_ibRbRKNS_8functionIFvRNS2_7RequestEEEEEUlvE_NS9_ISM_EEFbvEE6targetERKSt9type_info, symObjAddr: 0x1EDA4, symBinAddr: 0x10001F3DC, symSize: 0x64 }
  - { offset: 0x1BCC5E, size: 0x8, addend: 0x0, symName: __ZNKSt3__110__function6__funcIZN7httplib6Server15process_requestERNS2_6StreamERKNS_12basic_stringIcNS_11char_traitsIcEENS_9allocatorIcEEEEiSD_ibRbRKNS_8functionIFvRNS2_7RequestEEEEEUlvE_NS9_ISM_EEFbvEE11target_typeEv, symObjAddr: 0x1EE08, symBinAddr: 0x10001F440, symSize: 0xC }
  - { offset: 0x1BD306, size: 0x8, addend: 0x0, symName: __ZN7httplib8Response12set_redirectERKNSt3__112basic_stringIcNS1_11char_traitsIcEENS1_9allocatorIcEEEEi, symObjAddr: 0x20480, symBinAddr: 0x100020AB8, symSize: 0x1E4 }
  - { offset: 0x1BD7B0, size: 0x8, addend: 0x0, symName: __ZNK7httplib6Server14check_if_rangeERNS_7RequestERKNSt3__112basic_stringIcNS3_11char_traitsIcEENS3_9allocatorIcEEEEl, symObjAddr: 0x21028, symBinAddr: 0x100021660, symSize: 0x1F4 }
  - { offset: 0x1BEAE3, size: 0x8, addend: 0x0, symName: __ZN7httplib6detail13is_valid_pathERKNSt3__112basic_stringIcNS1_11char_traitsIcEENS1_9allocatorIcEEEE.cold.1, symObjAddr: 0x45DF0, symBinAddr: 0x1000B306C, symSize: 0x28 }
  - { offset: 0x1BEF07, size: 0x8, addend: 0x0, symName: __ZZN7httplib6detail15parse_http_dateERKNSt3__112basic_stringIcNS1_11char_traitsIcEENS1_9allocatorIcEEEEENKUlPKcE_clESB_, symObjAddr: 0x21638, symBinAddr: 0x100021C14, symSize: 0x1B4 }
  - { offset: 0x1BF20A, size: 0x8, addend: 0x0, symName: __ZZNK7httplib6Server14check_if_rangeERNS_7RequestERKNSt3__112basic_stringIcNS3_11char_traitsIcEENS3_9allocatorIcEEEElENKUlvE_clEv, symObjAddr: 0x21CD0, symBinAddr: 0x1000222AC, symSize: 0x234 }
  - { offset: 0x1BF59C, size: 0x8, addend: 0x0, symName: __ZNSt3__110__function6__funcIZNK7httplib6Server21check_if_not_modifiedERKNS2_7RequestERNS2_8ResponseERKNS_12basic_stringIcNS_11char_traitsIcEENS_9allocatorIcEEEElEUlPKcSI_E_NSC_ISJ_EEFbSI_SI_EED1Ev, symObjAddr: 0x214F0, symBinAddr: 0x100021ACC, symSize: 0x4 }
  - { offset: 0x1BF5C8, size: 0x8, addend: 0x0, symName: __ZNSt3__110__function6__funcIZNK7httplib6Server21check_if_not_modifiedERKNS2_7RequestERNS2_8ResponseERKNS_12basic_stringIcNS_11char_traitsIcEENS_9allocatorIcEEEElEUlPKcSI_E_NSC_ISJ_EEFbSI_SI_EED0Ev, symObjAddr: 0x214F4, symBinAddr: 0x100021AD0, symSize: 0x4 }
  - { offset: 0x1BF6DF, size: 0x8, addend: 0x0, symName: __ZNKSt3__110__function6__funcIZNK7httplib6Server21check_if_not_modifiedERKNS2_7RequestERNS2_8ResponseERKNS_12basic_stringIcNS_11char_traitsIcEENS_9allocatorIcEEEElEUlPKcSI_E_NSC_ISJ_EEFbSI_SI_EE7__cloneEv, symObjAddr: 0x214F8, symBinAddr: 0x100021AD4, symSize: 0x34 }
  - { offset: 0x1BF81A, size: 0x8, addend: 0x0, symName: __ZNKSt3__110__function6__funcIZNK7httplib6Server21check_if_not_modifiedERKNS2_7RequestERNS2_8ResponseERKNS_12basic_stringIcNS_11char_traitsIcEENS_9allocatorIcEEEElEUlPKcSI_E_NSC_ISJ_EEFbSI_SI_EE7__cloneEPNS0_6__baseISL_EE, symObjAddr: 0x2152C, symBinAddr: 0x100021B08, symSize: 0x14 }
  - { offset: 0x1BF843, size: 0x8, addend: 0x0, symName: __ZNKSt3__110__function6__funcIZNK7httplib6Server21check_if_not_modifiedERKNS2_7RequestERNS2_8ResponseERKNS_12basic_stringIcNS_11char_traitsIcEENS_9allocatorIcEEEElEUlPKcSI_E_NSC_ISJ_EEFbSI_SI_EE7__cloneEPNS0_6__baseISL_EE, symObjAddr: 0x2152C, symBinAddr: 0x100021B08, symSize: 0x14 }
  - { offset: 0x1BF871, size: 0x8, addend: 0x0, symName: __ZNKSt3__110__function6__funcIZNK7httplib6Server21check_if_not_modifiedERKNS2_7RequestERNS2_8ResponseERKNS_12basic_stringIcNS_11char_traitsIcEENS_9allocatorIcEEEElEUlPKcSI_E_NSC_ISJ_EEFbSI_SI_EE7__cloneEPNS0_6__baseISL_EE, symObjAddr: 0x2152C, symBinAddr: 0x100021B08, symSize: 0x14 }
  - { offset: 0x1BF89F, size: 0x8, addend: 0x0, symName: __ZNKSt3__110__function6__funcIZNK7httplib6Server21check_if_not_modifiedERKNS2_7RequestERNS2_8ResponseERKNS_12basic_stringIcNS_11char_traitsIcEENS_9allocatorIcEEEElEUlPKcSI_E_NSC_ISJ_EEFbSI_SI_EE7__cloneEPNS0_6__baseISL_EE, symObjAddr: 0x2152C, symBinAddr: 0x100021B08, symSize: 0x14 }
  - { offset: 0x1BF8B4, size: 0x8, addend: 0x0, symName: __ZNKSt3__110__function6__funcIZNK7httplib6Server21check_if_not_modifiedERKNS2_7RequestERNS2_8ResponseERKNS_12basic_stringIcNS_11char_traitsIcEENS_9allocatorIcEEEElEUlPKcSI_E_NSC_ISJ_EEFbSI_SI_EE7__cloneEPNS0_6__baseISL_EE, symObjAddr: 0x2152C, symBinAddr: 0x100021B08, symSize: 0x14 }
  - { offset: 0x1BF8C9, size: 0x8, addend: 0x0, symName: __ZNSt3__110__function6__funcIZNK7httplib6Server21check_if_not_modifiedERKNS2_7RequestERNS2_8ResponseERKNS_12basic_stringIcNS_11char_traitsIcEENS_9allocatorIcEEEElEUlPKcSI_E_NSC_ISJ_EEFbSI_SI_EE7destroyEv, symObjAddr: 0x21540, symBinAddr: 0x100021B1C, symSize: 0x4 }
  - { offset: 0x1BF920, size: 0x8, addend: 0x0, symName: __ZNSt3__110__function6__funcIZNK7httplib6Server21check_if_not_modifiedERKNS2_7RequestERNS2_8ResponseERKNS_12basic_stringIcNS_11char_traitsIcEENS_9allocatorIcEEEElEUlPKcSI_E_NSC_ISJ_EEFbSI_SI_EE18destroy_deallocateEv, symObjAddr: 0x21544, symBinAddr: 0x100021B20, symSize: 0x4 }
  - { offset: 0x1BF953, size: 0x8, addend: 0x0, symName: __ZNSt3__110__function6__funcIZNK7httplib6Server21check_if_not_modifiedERKNS2_7RequestERNS2_8ResponseERKNS_12basic_stringIcNS_11char_traitsIcEENS_9allocatorIcEEEElEUlPKcSI_E_NSC_ISJ_EEFbSI_SI_EE18destroy_deallocateEv, symObjAddr: 0x21544, symBinAddr: 0x100021B20, symSize: 0x4 }
  - { offset: 0x1BF976, size: 0x8, addend: 0x0, symName: __ZNSt3__110__function6__funcIZNK7httplib6Server21check_if_not_modifiedERKNS2_7RequestERNS2_8ResponseERKNS_12basic_stringIcNS_11char_traitsIcEENS_9allocatorIcEEEElEUlPKcSI_E_NSC_ISJ_EEFbSI_SI_EE18destroy_deallocateEv, symObjAddr: 0x21544, symBinAddr: 0x100021B20, symSize: 0x4 }
  - { offset: 0x1BF9A9, size: 0x8, addend: 0x0, symName: __ZNSt3__110__function6__funcIZNK7httplib6Server21check_if_not_modifiedERKNS2_7RequestERNS2_8ResponseERKNS_12basic_stringIcNS_11char_traitsIcEENS_9allocatorIcEEEElEUlPKcSI_E_NSC_ISJ_EEFbSI_SI_EE18destroy_deallocateEv, symObjAddr: 0x21544, symBinAddr: 0x100021B20, symSize: 0x4 }
  - { offset: 0x1BFA89, size: 0x8, addend: 0x0, symName: __ZNSt3__110__function6__funcIZNK7httplib6Server21check_if_not_modifiedERKNS2_7RequestERNS2_8ResponseERKNS_12basic_stringIcNS_11char_traitsIcEENS_9allocatorIcEEEElEUlPKcSI_E_NSC_ISJ_EEFbSI_SI_EEclEOSI_SN_, symObjAddr: 0x21548, symBinAddr: 0x100021B24, symSize: 0x80 }
  - { offset: 0x1BFDCF, size: 0x8, addend: 0x0, symName: __ZNKSt3__110__function6__funcIZNK7httplib6Server21check_if_not_modifiedERKNS2_7RequestERNS2_8ResponseERKNS_12basic_stringIcNS_11char_traitsIcEENS_9allocatorIcEEEElEUlPKcSI_E_NSC_ISJ_EEFbSI_SI_EE6targetERKSt9type_info, symObjAddr: 0x215C8, symBinAddr: 0x100021BA4, symSize: 0x64 }
  - { offset: 0x1BFE82, size: 0x8, addend: 0x0, symName: __ZNKSt3__110__function6__funcIZNK7httplib6Server21check_if_not_modifiedERKNS2_7RequestERNS2_8ResponseERKNS_12basic_stringIcNS_11char_traitsIcEENS_9allocatorIcEEEElEUlPKcSI_E_NSC_ISJ_EEFbSI_SI_EE11target_typeEv, symObjAddr: 0x2162C, symBinAddr: 0x100021C08, symSize: 0xC }
  - { offset: 0x1BFFB3, size: 0x8, addend: 0x0, symName: __ZNSt3__119basic_istringstreamIcNS_11char_traitsIcEENS_9allocatorIcEEEC1B8ne200100ERKNS_12basic_stringIcS2_S4_EEj, symObjAddr: 0x217EC, symBinAddr: 0x100021DC8, symSize: 0x164 }
  - { offset: 0x1C02A8, size: 0x8, addend: 0x0, symName: __ZNSt3__119basic_istringstreamIcNS_11char_traitsIcEENS_9allocatorIcEEED1Ev, symObjAddr: 0x21A88, symBinAddr: 0x100022064, symSize: 0x90 }
  - { offset: 0x1C05BD, size: 0x8, addend: 0x0, symName: __ZNSt3__119basic_istringstreamIcNS_11char_traitsIcEENS_9allocatorIcEEED0Ev, symObjAddr: 0x21B18, symBinAddr: 0x1000220F4, symSize: 0x90 }
  - { offset: 0x1C077C, size: 0x8, addend: 0x0, symName: __ZTv0_n24_NSt3__119basic_istringstreamIcNS_11char_traitsIcEENS_9allocatorIcEEED1Ev, symObjAddr: 0x21BA8, symBinAddr: 0x100022184, symSize: 0x90 }
  - { offset: 0x1C0940, size: 0x8, addend: 0x0, symName: __ZTv0_n24_NSt3__119basic_istringstreamIcNS_11char_traitsIcEENS_9allocatorIcEEED0Ev, symObjAddr: 0x21C38, symBinAddr: 0x100022214, symSize: 0x98 }
  - { offset: 0x1C0B70, size: 0x8, addend: 0x0, symName: __ZNSt3__110__function6__funcIZN7httplib6Server19handle_file_requestERNS2_7RequestERNS2_8ResponseEEUlmmRNS2_8DataSinkEE_NS_9allocatorISA_EEFbmmS9_EED1Ev, symObjAddr: 0x21F04, symBinAddr: 0x1000224E0, symSize: 0x68 }
  - { offset: 0x1C0CAA, size: 0x8, addend: 0x0, symName: __ZNSt3__110__function6__funcIZN7httplib6Server19handle_file_requestERNS2_7RequestERNS2_8ResponseEEUlmmRNS2_8DataSinkEE_NS_9allocatorISA_EEFbmmS9_EED0Ev, symObjAddr: 0x21F6C, symBinAddr: 0x100022548, symSize: 0x68 }
  - { offset: 0x1C0F19, size: 0x8, addend: 0x0, symName: __ZNKSt3__110__function6__funcIZN7httplib6Server19handle_file_requestERNS2_7RequestERNS2_8ResponseEEUlmmRNS2_8DataSinkEE_NS_9allocatorISA_EEFbmmS9_EE7__cloneEv, symObjAddr: 0x21FD4, symBinAddr: 0x1000225B0, symSize: 0x48 }
  - { offset: 0x1C11BC, size: 0x8, addend: 0x0, symName: __ZNKSt3__110__function6__funcIZN7httplib6Server19handle_file_requestERNS2_7RequestERNS2_8ResponseEEUlmmRNS2_8DataSinkEE_NS_9allocatorISA_EEFbmmS9_EE7__cloneEPNS0_6__baseISD_EE, symObjAddr: 0x2201C, symBinAddr: 0x1000225F8, symSize: 0x28 }
  - { offset: 0x1C11F2, size: 0x8, addend: 0x0, symName: __ZNKSt3__110__function6__funcIZN7httplib6Server19handle_file_requestERNS2_7RequestERNS2_8ResponseEEUlmmRNS2_8DataSinkEE_NS_9allocatorISA_EEFbmmS9_EE7__cloneEPNS0_6__baseISD_EE, symObjAddr: 0x2201C, symBinAddr: 0x1000225F8, symSize: 0x28 }
  - { offset: 0x1C1220, size: 0x8, addend: 0x0, symName: __ZNKSt3__110__function6__funcIZN7httplib6Server19handle_file_requestERNS2_7RequestERNS2_8ResponseEEUlmmRNS2_8DataSinkEE_NS_9allocatorISA_EEFbmmS9_EE7__cloneEPNS0_6__baseISD_EE, symObjAddr: 0x2201C, symBinAddr: 0x1000225F8, symSize: 0x28 }
  - { offset: 0x1C1345, size: 0x8, addend: 0x0, symName: __ZNSt3__110__function6__funcIZN7httplib6Server19handle_file_requestERNS2_7RequestERNS2_8ResponseEEUlmmRNS2_8DataSinkEE_NS_9allocatorISA_EEFbmmS9_EE7destroyEv, symObjAddr: 0x22044, symBinAddr: 0x100022620, symSize: 0x50 }
  - { offset: 0x1C146C, size: 0x8, addend: 0x0, symName: __ZNSt3__110__function6__funcIZN7httplib6Server19handle_file_requestERNS2_7RequestERNS2_8ResponseEEUlmmRNS2_8DataSinkEE_NS_9allocatorISA_EEFbmmS9_EE18destroy_deallocateEv, symObjAddr: 0x22094, symBinAddr: 0x100022670, symSize: 0x5C }
  - { offset: 0x1C16CC, size: 0x8, addend: 0x0, symName: __ZNSt3__110__function6__funcIZN7httplib6Server19handle_file_requestERNS2_7RequestERNS2_8ResponseEEUlmmRNS2_8DataSinkEE_NS_9allocatorISA_EEFbmmS9_EEclEOmSF_S9_, symObjAddr: 0x220F0, symBinAddr: 0x1000226CC, symSize: 0x68 }
  - { offset: 0x1C1898, size: 0x8, addend: 0x0, symName: __ZNKSt3__110__function6__funcIZN7httplib6Server19handle_file_requestERNS2_7RequestERNS2_8ResponseEEUlmmRNS2_8DataSinkEE_NS_9allocatorISA_EEFbmmS9_EE6targetERKSt9type_info, symObjAddr: 0x22158, symBinAddr: 0x100022734, symSize: 0x64 }
  - { offset: 0x1C18A3, size: 0x8, addend: 0x0, symName: __ZNKSt3__110__function6__funcIZN7httplib6Server19handle_file_requestERNS2_7RequestERNS2_8ResponseEEUlmmRNS2_8DataSinkEE_NS_9allocatorISA_EEFbmmS9_EE6targetERKSt9type_info, symObjAddr: 0x22158, symBinAddr: 0x100022734, symSize: 0x64 }
  - { offset: 0x1C1956, size: 0x8, addend: 0x0, symName: __ZNKSt3__110__function6__funcIZN7httplib6Server19handle_file_requestERNS2_7RequestERNS2_8ResponseEEUlmmRNS2_8DataSinkEE_NS_9allocatorISA_EEFbmmS9_EE11target_typeEv, symObjAddr: 0x221BC, symBinAddr: 0x100022798, symSize: 0xC }
  - { offset: 0x1C19D6, size: 0x8, addend: 0x0, symName: __ZNSt3__110__function6__funcIZN7httplib6Server7routingERNS2_7RequestERNS2_8ResponseERNS2_6StreamEEUlNS_8functionIFbPKcmEEEE_NS_9allocatorISF_EEFbSE_EED1Ev, symObjAddr: 0x225A4, symBinAddr: 0x100022B80, symSize: 0x4 }
  - { offset: 0x1C1A02, size: 0x8, addend: 0x0, symName: __ZNSt3__110__function6__funcIZN7httplib6Server7routingERNS2_7RequestERNS2_8ResponseERNS2_6StreamEEUlNS_8functionIFbPKcmEEEE_NS_9allocatorISF_EEFbSE_EED0Ev, symObjAddr: 0x225A8, symBinAddr: 0x100022B84, symSize: 0x4 }
  - { offset: 0x1C1AF2, size: 0x8, addend: 0x0, symName: __ZNKSt3__110__function6__funcIZN7httplib6Server7routingERNS2_7RequestERNS2_8ResponseERNS2_6StreamEEUlNS_8functionIFbPKcmEEEE_NS_9allocatorISF_EEFbSE_EE7__cloneEv, symObjAddr: 0x225AC, symBinAddr: 0x100022B88, symSize: 0x40 }
  - { offset: 0x1C1D03, size: 0x8, addend: 0x0, symName: __ZNKSt3__110__function6__funcIZN7httplib6Server7routingERNS2_7RequestERNS2_8ResponseERNS2_6StreamEEUlNS_8functionIFbPKcmEEEE_NS_9allocatorISF_EEFbSE_EE7__cloneEPNS0_6__baseISI_EE, symObjAddr: 0x225EC, symBinAddr: 0x100022BC8, symSize: 0x20 }
  - { offset: 0x1C1D39, size: 0x8, addend: 0x0, symName: __ZNKSt3__110__function6__funcIZN7httplib6Server7routingERNS2_7RequestERNS2_8ResponseERNS2_6StreamEEUlNS_8functionIFbPKcmEEEE_NS_9allocatorISF_EEFbSE_EE7__cloneEPNS0_6__baseISI_EE, symObjAddr: 0x225EC, symBinAddr: 0x100022BC8, symSize: 0x20 }
  - { offset: 0x1C1D67, size: 0x8, addend: 0x0, symName: __ZNKSt3__110__function6__funcIZN7httplib6Server7routingERNS2_7RequestERNS2_8ResponseERNS2_6StreamEEUlNS_8functionIFbPKcmEEEE_NS_9allocatorISF_EEFbSE_EE7__cloneEPNS0_6__baseISI_EE, symObjAddr: 0x225EC, symBinAddr: 0x100022BC8, symSize: 0x20 }
  - { offset: 0x1C1DF6, size: 0x8, addend: 0x0, symName: __ZNSt3__110__function6__funcIZN7httplib6Server7routingERNS2_7RequestERNS2_8ResponseERNS2_6StreamEEUlNS_8functionIFbPKcmEEEE_NS_9allocatorISF_EEFbSE_EE7destroyEv, symObjAddr: 0x2260C, symBinAddr: 0x100022BE8, symSize: 0x4 }
  - { offset: 0x1C1E1B, size: 0x8, addend: 0x0, symName: __ZNSt3__110__function6__funcIZN7httplib6Server7routingERNS2_7RequestERNS2_8ResponseERNS2_6StreamEEUlNS_8functionIFbPKcmEEEE_NS_9allocatorISF_EEFbSE_EE18destroy_deallocateEv, symObjAddr: 0x22610, symBinAddr: 0x100022BEC, symSize: 0x4 }
  - { offset: 0x1C1E43, size: 0x8, addend: 0x0, symName: __ZNSt3__110__function6__funcIZN7httplib6Server7routingERNS2_7RequestERNS2_8ResponseERNS2_6StreamEEUlNS_8functionIFbPKcmEEEE_NS_9allocatorISF_EEFbSE_EE18destroy_deallocateEv, symObjAddr: 0x22610, symBinAddr: 0x100022BEC, symSize: 0x4 }
  - { offset: 0x1C1E66, size: 0x8, addend: 0x0, symName: __ZNSt3__110__function6__funcIZN7httplib6Server7routingERNS2_7RequestERNS2_8ResponseERNS2_6StreamEEUlNS_8functionIFbPKcmEEEE_NS_9allocatorISF_EEFbSE_EE18destroy_deallocateEv, symObjAddr: 0x22610, symBinAddr: 0x100022BEC, symSize: 0x4 }
  - { offset: 0x1C1E9A, size: 0x8, addend: 0x0, symName: __ZNSt3__110__function6__funcIZN7httplib6Server7routingERNS2_7RequestERNS2_8ResponseERNS2_6StreamEEUlNS_8functionIFbPKcmEEEE_NS_9allocatorISF_EEFbSE_EE18destroy_deallocateEv, symObjAddr: 0x22610, symBinAddr: 0x100022BEC, symSize: 0x4 }
  - { offset: 0x1C1FA6, size: 0x8, addend: 0x0, symName: __ZNSt3__110__function6__funcIZN7httplib6Server7routingERNS2_7RequestERNS2_8ResponseERNS2_6StreamEEUlNS_8functionIFbPKcmEEEE_NS_9allocatorISF_EEFbSE_EEclEOSE_, symObjAddr: 0x22614, symBinAddr: 0x100022BF0, symSize: 0x124 }
  - { offset: 0x1C21F1, size: 0x8, addend: 0x0, symName: __ZZN7httplib6Server7routingERNS_7RequestERNS_8ResponseERNS_6StreamEENKUlNSt3__18functionIFbPKcmEEEE_clESC_, symObjAddr: 0x227A8, symBinAddr: 0x100022D84, symSize: 0x24C }
  - { offset: 0x1C281B, size: 0x8, addend: 0x0, symName: __ZNKSt3__110__function6__funcIZN7httplib6Server7routingERNS2_7RequestERNS2_8ResponseERNS2_6StreamEEUlNS_8functionIFbPKcmEEEE_NS_9allocatorISF_EEFbSE_EE6targetERKSt9type_info, symObjAddr: 0x22738, symBinAddr: 0x100022D14, symSize: 0x64 }
  - { offset: 0x1C28CE, size: 0x8, addend: 0x0, symName: __ZNKSt3__110__function6__funcIZN7httplib6Server7routingERNS2_7RequestERNS2_8ResponseERNS2_6StreamEEUlNS_8functionIFbPKcmEEEE_NS_9allocatorISF_EEFbSE_EE11target_typeEv, symObjAddr: 0x2279C, symBinAddr: 0x100022D78, symSize: 0xC }
  - { offset: 0x1C29B1, size: 0x8, addend: 0x0, symName: __ZN7httplib6Server34read_content_with_content_receiverERNS_6StreamERNS_7RequestERNS_8ResponseENSt3__18functionIFbPKcmEEENS8_IFbRKNS_8FormDataEEEESC_, symObjAddr: 0x229F4, symBinAddr: 0x100022FD0, symSize: 0x2A8 }
  - { offset: 0x1C2F0C, size: 0x8, addend: 0x0, symName: __ZZN7httplib6Server7routingERNS_7RequestERNS_8ResponseERNS_6StreamEENKUlNSt3__18functionIFbPKcmEEEE_clESC_.cold.1, symObjAddr: 0x45E18, symBinAddr: 0x1000B3094, symSize: 0x6C }
  - { offset: 0x1C306D, size: 0x8, addend: 0x0, symName: __ZN7httplib6Server34read_content_with_content_receiverERNS_6StreamERNS_7RequestERNS_8ResponseENSt3__18functionIFbPKcmEEENS8_IFbRKNS_8FormDataEEEESC_.cold.1, symObjAddr: 0x45E84, symBinAddr: 0x1000B3100, symSize: 0x60 }
  - { offset: 0x1C37FA, size: 0x8, addend: 0x0, symName: __ZNK7httplib7Request22is_multipart_form_dataEv, symObjAddr: 0x235B8, symBinAddr: 0x100023B94, symSize: 0x42C }
  - { offset: 0x1C400D, size: 0x8, addend: 0x0, symName: __ZN7httplib6detail14FormDataParser12set_boundaryEONSt3__112basic_stringIcNS2_11char_traitsIcEENS2_9allocatorIcEEEE, symObjAddr: 0x23D08, symBinAddr: 0x1000242E4, symSize: 0x348 }
  - { offset: 0x1C4F8D, size: 0x8, addend: 0x0, symName: __ZNSt3__110__function12__value_funcIFbPKcmmmEE4swapB8ne200100ERS5_, symObjAddr: 0x32E4C, symBinAddr: 0x100033050, symSize: 0x198 }
  - { offset: 0x1C50C1, size: 0x8, addend: 0x0, symName: __ZNSt3__18functionIFbPKcmmmEEaSIZNK7httplib6Server17read_content_coreERNS6_6StreamERNS6_7RequestERNS6_8ResponseENS0_IFbS2_mEEENS0_IFbRKNS6_8FormDataEEEESF_EUlS2_mmmE0_vEERS4_OT_, symObjAddr: 0x24050, symBinAddr: 0x10002462C, symSize: 0x1B0 }
  - { offset: 0x1C5734, size: 0x8, addend: 0x0, symName: __ZN7httplib6detail14FormDataParserD2Ev, symObjAddr: 0x36578, symBinAddr: 0x100036568, symSize: 0xC8 }
  - { offset: 0x1C6008, size: 0x8, addend: 0x0, symName: __ZNSt3__110__function6__funcIZNK7httplib6Server17read_content_coreERNS2_6StreamERNS2_7RequestERNS2_8ResponseENS_8functionIFbPKcmEEENSA_IFbRKNS2_8FormDataEEEESE_EUlSC_mmmE_NS_9allocatorISK_EEFbSC_mmmEED1Ev, symObjAddr: 0x24200, symBinAddr: 0x1000247DC, symSize: 0x4 }
  - { offset: 0x1C6034, size: 0x8, addend: 0x0, symName: __ZNSt3__110__function6__funcIZNK7httplib6Server17read_content_coreERNS2_6StreamERNS2_7RequestERNS2_8ResponseENS_8functionIFbPKcmEEENSA_IFbRKNS2_8FormDataEEEESE_EUlSC_mmmE_NS_9allocatorISK_EEFbSC_mmmEED0Ev, symObjAddr: 0x24204, symBinAddr: 0x1000247E0, symSize: 0x4 }
  - { offset: 0x1C6124, size: 0x8, addend: 0x0, symName: __ZNKSt3__110__function6__funcIZNK7httplib6Server17read_content_coreERNS2_6StreamERNS2_7RequestERNS2_8ResponseENS_8functionIFbPKcmEEENSA_IFbRKNS2_8FormDataEEEESE_EUlSC_mmmE_NS_9allocatorISK_EEFbSC_mmmEE7__cloneEv, symObjAddr: 0x24208, symBinAddr: 0x1000247E4, symSize: 0x40 }
  - { offset: 0x1C6335, size: 0x8, addend: 0x0, symName: __ZNKSt3__110__function6__funcIZNK7httplib6Server17read_content_coreERNS2_6StreamERNS2_7RequestERNS2_8ResponseENS_8functionIFbPKcmEEENSA_IFbRKNS2_8FormDataEEEESE_EUlSC_mmmE_NS_9allocatorISK_EEFbSC_mmmEE7__cloneEPNS0_6__baseISN_EE, symObjAddr: 0x24248, symBinAddr: 0x100024824, symSize: 0x20 }
  - { offset: 0x1C636B, size: 0x8, addend: 0x0, symName: __ZNKSt3__110__function6__funcIZNK7httplib6Server17read_content_coreERNS2_6StreamERNS2_7RequestERNS2_8ResponseENS_8functionIFbPKcmEEENSA_IFbRKNS2_8FormDataEEEESE_EUlSC_mmmE_NS_9allocatorISK_EEFbSC_mmmEE7__cloneEPNS0_6__baseISN_EE, symObjAddr: 0x24248, symBinAddr: 0x100024824, symSize: 0x20 }
  - { offset: 0x1C6399, size: 0x8, addend: 0x0, symName: __ZNKSt3__110__function6__funcIZNK7httplib6Server17read_content_coreERNS2_6StreamERNS2_7RequestERNS2_8ResponseENS_8functionIFbPKcmEEENSA_IFbRKNS2_8FormDataEEEESE_EUlSC_mmmE_NS_9allocatorISK_EEFbSC_mmmEE7__cloneEPNS0_6__baseISN_EE, symObjAddr: 0x24248, symBinAddr: 0x100024824, symSize: 0x20 }
  - { offset: 0x1C6428, size: 0x8, addend: 0x0, symName: __ZNSt3__110__function6__funcIZNK7httplib6Server17read_content_coreERNS2_6StreamERNS2_7RequestERNS2_8ResponseENS_8functionIFbPKcmEEENSA_IFbRKNS2_8FormDataEEEESE_EUlSC_mmmE_NS_9allocatorISK_EEFbSC_mmmEE7destroyEv, symObjAddr: 0x24268, symBinAddr: 0x100024844, symSize: 0x4 }
  - { offset: 0x1C647F, size: 0x8, addend: 0x0, symName: __ZNSt3__110__function6__funcIZNK7httplib6Server17read_content_coreERNS2_6StreamERNS2_7RequestERNS2_8ResponseENS_8functionIFbPKcmEEENSA_IFbRKNS2_8FormDataEEEESE_EUlSC_mmmE_NS_9allocatorISK_EEFbSC_mmmEE18destroy_deallocateEv, symObjAddr: 0x2426C, symBinAddr: 0x100024848, symSize: 0x4 }
  - { offset: 0x1C64B2, size: 0x8, addend: 0x0, symName: __ZNSt3__110__function6__funcIZNK7httplib6Server17read_content_coreERNS2_6StreamERNS2_7RequestERNS2_8ResponseENS_8functionIFbPKcmEEENSA_IFbRKNS2_8FormDataEEEESE_EUlSC_mmmE_NS_9allocatorISK_EEFbSC_mmmEE18destroy_deallocateEv, symObjAddr: 0x2426C, symBinAddr: 0x100024848, symSize: 0x4 }
  - { offset: 0x1C64D5, size: 0x8, addend: 0x0, symName: __ZNSt3__110__function6__funcIZNK7httplib6Server17read_content_coreERNS2_6StreamERNS2_7RequestERNS2_8ResponseENS_8functionIFbPKcmEEENSA_IFbRKNS2_8FormDataEEEESE_EUlSC_mmmE_NS_9allocatorISK_EEFbSC_mmmEE18destroy_deallocateEv, symObjAddr: 0x2426C, symBinAddr: 0x100024848, symSize: 0x4 }
  - { offset: 0x1C6509, size: 0x8, addend: 0x0, symName: __ZNSt3__110__function6__funcIZNK7httplib6Server17read_content_coreERNS2_6StreamERNS2_7RequestERNS2_8ResponseENS_8functionIFbPKcmEEENSA_IFbRKNS2_8FormDataEEEESE_EUlSC_mmmE_NS_9allocatorISK_EEFbSC_mmmEE18destroy_deallocateEv, symObjAddr: 0x2426C, symBinAddr: 0x100024848, symSize: 0x4 }
  - { offset: 0x1C662B, size: 0x8, addend: 0x0, symName: __ZNSt3__110__function6__funcIZNK7httplib6Server17read_content_coreERNS2_6StreamERNS2_7RequestERNS2_8ResponseENS_8functionIFbPKcmEEENSA_IFbRKNS2_8FormDataEEEESE_EUlSC_mmmE_NS_9allocatorISK_EEFbSC_mmmEEclEOSC_OmSQ_SQ_, symObjAddr: 0x24270, symBinAddr: 0x10002484C, symSize: 0x18 }
  - { offset: 0x1C6694, size: 0x8, addend: 0x0, symName: __ZNSt3__110__function6__funcIZNK7httplib6Server17read_content_coreERNS2_6StreamERNS2_7RequestERNS2_8ResponseENS_8functionIFbPKcmEEENSA_IFbRKNS2_8FormDataEEEESE_EUlSC_mmmE_NS_9allocatorISK_EEFbSC_mmmEEclEOSC_OmSQ_SQ_, symObjAddr: 0x24270, symBinAddr: 0x10002484C, symSize: 0x18 }
  - { offset: 0x1C66C4, size: 0x8, addend: 0x0, symName: __ZNSt3__110__function6__funcIZNK7httplib6Server17read_content_coreERNS2_6StreamERNS2_7RequestERNS2_8ResponseENS_8functionIFbPKcmEEENSA_IFbRKNS2_8FormDataEEEESE_EUlSC_mmmE_NS_9allocatorISK_EEFbSC_mmmEEclEOSC_OmSQ_SQ_, symObjAddr: 0x24270, symBinAddr: 0x10002484C, symSize: 0x18 }
  - { offset: 0x1C66F3, size: 0x8, addend: 0x0, symName: __ZNSt3__110__function6__funcIZNK7httplib6Server17read_content_coreERNS2_6StreamERNS2_7RequestERNS2_8ResponseENS_8functionIFbPKcmEEENSA_IFbRKNS2_8FormDataEEEESE_EUlSC_mmmE_NS_9allocatorISK_EEFbSC_mmmEEclEOSC_OmSQ_SQ_, symObjAddr: 0x24270, symBinAddr: 0x10002484C, symSize: 0x18 }
  - { offset: 0x1C6723, size: 0x8, addend: 0x0, symName: __ZNSt3__110__function6__funcIZNK7httplib6Server17read_content_coreERNS2_6StreamERNS2_7RequestERNS2_8ResponseENS_8functionIFbPKcmEEENSA_IFbRKNS2_8FormDataEEEESE_EUlSC_mmmE_NS_9allocatorISK_EEFbSC_mmmEEclEOSC_OmSQ_SQ_, symObjAddr: 0x24270, symBinAddr: 0x10002484C, symSize: 0x18 }
  - { offset: 0x1C678E, size: 0x8, addend: 0x0, symName: __ZNKSt3__110__function6__funcIZNK7httplib6Server17read_content_coreERNS2_6StreamERNS2_7RequestERNS2_8ResponseENS_8functionIFbPKcmEEENSA_IFbRKNS2_8FormDataEEEESE_EUlSC_mmmE_NS_9allocatorISK_EEFbSC_mmmEE6targetERKSt9type_info, symObjAddr: 0x24288, symBinAddr: 0x100024864, symSize: 0x64 }
  - { offset: 0x1C6841, size: 0x8, addend: 0x0, symName: __ZNKSt3__110__function6__funcIZNK7httplib6Server17read_content_coreERNS2_6StreamERNS2_7RequestERNS2_8ResponseENS_8functionIFbPKcmEEENSA_IFbRKNS2_8FormDataEEEESE_EUlSC_mmmE_NS_9allocatorISK_EEFbSC_mmmEE11target_typeEv, symObjAddr: 0x242EC, symBinAddr: 0x1000248C8, symSize: 0xC }
  - { offset: 0x1C70E8, size: 0x8, addend: 0x0, symName: __ZN7httplib6detail14FormDataParser10buf_appendEPKcm, symObjAddr: 0x2581C, symBinAddr: 0x100025DF8, symSize: 0x288 }
  - { offset: 0x1C72F2, size: 0x8, addend: 0x0, symName: __ZN7httplib6detail14FormDataParser15clear_file_infoEv, symObjAddr: 0x25AA4, symBinAddr: 0x100026080, symSize: 0x110 }
  - { offset: 0x1C79F4, size: 0x8, addend: 0x0, symName: __ZNKSt3__111basic_regexIcNS_12regex_traitsIcEEE8__searchINS_9allocatorINS_9sub_matchIPKcEEEEEEbS8_S8_RNS_13match_resultsIS8_T_EENS_15regex_constants15match_flag_typeE, symObjAddr: 0x2FB7C, symBinAddr: 0x100030098, symSize: 0x308 }
  - { offset: 0x1C7F4F, size: 0x8, addend: 0x0, symName: __ZNSt3__113match_resultsINS_11__wrap_iterIPKcEENS_9allocatorINS_9sub_matchIS4_EEEEE8__assignB8ne200100IS3_NS5_INS6_IS3_EEEEEEvS4_S4_RKNS0_IT_T0_EEb, symObjAddr: 0x2FE84, symBinAddr: 0x1000303A0, symSize: 0x168 }
  - { offset: 0x1C81CA, size: 0x8, addend: 0x0, symName: __ZNSt3__111basic_regexIcNS_12regex_traitsIcEEEC2B8ne200100EPKcNS_15regex_constants18syntax_option_typeE, symObjAddr: 0x26BC8, symBinAddr: 0x1000271A4, symSize: 0xC8 }
  - { offset: 0x1C8383, size: 0x8, addend: 0x0, symName: __ZN7httplib6detail14FormDataParser5parseEPKcmRKNSt3__18functionIFbRKNS_8FormDataEEEERKNS5_IFbS3_mEEE.cold.1, symObjAddr: 0x45EE4, symBinAddr: 0x1000B3160, symSize: 0x48 }
  - { offset: 0x1C84E5, size: 0x8, addend: 0x0, symName: __ZNSt3__111basic_regexIcNS_12regex_traitsIcEEED1Ev, symObjAddr: 0x26A04, symBinAddr: 0x100026FE0, symSize: 0x5C }
  - { offset: 0x1C89B7, size: 0x8, addend: 0x0, symName: __ZNSt3__111basic_regexIcNS_12regex_traitsIcEEE7__parseIPKcEET_S7_S7_, symObjAddr: 0x26CEC, symBinAddr: 0x10002726C, symSize: 0x340 }
  - { offset: 0x1C9914, size: 0x8, addend: 0x0, symName: __ZNSt3__111basic_regexIcNS_12regex_traitsIcEEE13__parse_egrepIPKcEET_S7_S7_, symObjAddr: 0x27698, symBinAddr: 0x100027C18, symSize: 0x1A0 }
  - { offset: 0x1C9E5A, size: 0x8, addend: 0x0, symName: __ZNSt3__111basic_regexIcNS_12regex_traitsIcEEE24__parse_extended_reg_expIPKcEET_S7_S7_, symObjAddr: 0x2739C, symBinAddr: 0x10002791C, symSize: 0x15C }
  - { offset: 0x1CA17C, size: 0x8, addend: 0x0, symName: __ZNSt3__111basic_regexIcNS_12regex_traitsIcEEE12__parse_grepIPKcEET_S7_S7_, symObjAddr: 0x274F8, symBinAddr: 0x100027A78, symSize: 0x1A0 }
  - { offset: 0x1CA190, size: 0x8, addend: 0x0, symName: __ZNSt3__111basic_regexIcNS_12regex_traitsIcEEE21__parse_basic_reg_expIPKcEET_S7_S7_, symObjAddr: 0x27224, symBinAddr: 0x1000277A4, symSize: 0x178 }
  - { offset: 0x1CA4EA, size: 0x8, addend: 0x0, symName: __ZNSt3__111basic_regexIcNS_12regex_traitsIcEEE24__parse_extended_reg_expIPKcEET_S7_S7_, symObjAddr: 0x2739C, symBinAddr: 0x10002791C, symSize: 0x15C }
  - { offset: 0x1CA4FE, size: 0x8, addend: 0x0, symName: __ZNSt3__111basic_regexIcNS_12regex_traitsIcEEE12__parse_grepIPKcEET_S7_S7_, symObjAddr: 0x274F8, symBinAddr: 0x100027A78, symSize: 0x1A0 }
  - { offset: 0x1CAA44, size: 0x8, addend: 0x0, symName: __ZNSt3__111basic_regexIcNS_12regex_traitsIcEEE19__parse_alternativeIPKcEET_S7_S7_, symObjAddr: 0x27A6C, symBinAddr: 0x100027FEC, symSize: 0xA0 }
  - { offset: 0x1CAB89, size: 0x8, addend: 0x0, symName: __ZNSt3__111basic_regexIcNS_12regex_traitsIcEEE16__parse_ecma_expIPKcEET_S7_S7_, symObjAddr: 0x27078, symBinAddr: 0x1000275F8, symSize: 0x1AC }
  - { offset: 0x1CAF7B, size: 0x8, addend: 0x0, symName: __ZNSt3__111basic_regexIcNS_12regex_traitsIcEEE12__parse_termIPKcEET_S7_S7_, symObjAddr: 0x27B0C, symBinAddr: 0x10002808C, symSize: 0x94 }
  - { offset: 0x1CB216, size: 0x8, addend: 0x0, symName: __ZNSt3__111basic_regexIcNS_12regex_traitsIcEEE18__parse_nondupl_REIPKcEET_S7_S7_, symObjAddr: 0x2F0C0, symBinAddr: 0x10002F5DC, symSize: 0x2F8 }
  - { offset: 0x1CB89C, size: 0x8, addend: 0x0, symName: __ZNSt3__111basic_regexIcNS_12regex_traitsIcEEE22__parse_RE_dupl_symbolIPKcEET_S7_S7_PNS_16__owns_one_stateIcEEjj, symObjAddr: 0x2F3B8, symBinAddr: 0x10002F8D4, symSize: 0x274 }
  - { offset: 0x1CB8B0, size: 0x8, addend: 0x0, symName: __ZNSt3__111basic_regexIcNS_12regex_traitsIcEEE22__parse_RE_dupl_symbolIPKcEET_S7_S7_PNS_16__owns_one_stateIcEEjj, symObjAddr: 0x2F3B8, symBinAddr: 0x10002F8D4, symSize: 0x274 }
  - { offset: 0x1CBE06, size: 0x8, addend: 0x0, symName: __ZNSt3__111__match_anyIcED1Ev, symObjAddr: 0x2F62C, symBinAddr: 0x10002FB48, symSize: 0x48 }
  - { offset: 0x1CBE5D, size: 0x8, addend: 0x0, symName: __ZNSt3__111basic_regexIcNS_12regex_traitsIcEEE22__parse_ERE_expressionIPKcEET_S7_S7_, symObjAddr: 0x2F75C, symBinAddr: 0x10002FC78, symSize: 0x1F0 }
  - { offset: 0x1CC1E8, size: 0x8, addend: 0x0, symName: __ZNSt3__111basic_regexIcNS_12regex_traitsIcEEE33__parse_one_char_or_coll_elem_EREIPKcEET_S7_S7_, symObjAddr: 0x2F94C, symBinAddr: 0x10002FE68, symSize: 0x158 }
  - { offset: 0x1CC1FC, size: 0x8, addend: 0x0, symName: __ZNSt3__111__end_stateIcED1Ev, symObjAddr: 0x27884, symBinAddr: 0x100027E04, symSize: 0x4 }
  - { offset: 0x1CC228, size: 0x8, addend: 0x0, symName: __ZNSt3__111__end_stateIcED0Ev, symObjAddr: 0x27888, symBinAddr: 0x100027E08, symSize: 0x4 }
  - { offset: 0x1CC248, size: 0x8, addend: 0x0, symName: __ZNKSt3__111__end_stateIcE6__execERNS_7__stateIcEE, symObjAddr: 0x2788C, symBinAddr: 0x100027E0C, symSize: 0xC }
  - { offset: 0x1CC27C, size: 0x8, addend: 0x0, symName: __ZNKSt3__16__nodeIcE12__exec_splitEbRNS_7__stateIcEE, symObjAddr: 0x27898, symBinAddr: 0x100027E18, symSize: 0x4 }
  - { offset: 0x1CC2BC, size: 0x8, addend: 0x0, symName: __ZNKSt3__16__nodeIcE6__execERNS_7__stateIcEE, symObjAddr: 0x2789C, symBinAddr: 0x100027E1C, symSize: 0x4 }
  - { offset: 0x1CC308, size: 0x8, addend: 0x0, symName: __ZNSt3__120__shared_ptr_pointerIPNS_13__empty_stateIcEENS_10shared_ptrIS2_E27__shared_ptr_default_deleteIS2_S2_EENS_9allocatorIS2_EEED1Ev, symObjAddr: 0x278A0, symBinAddr: 0x100027E20, symSize: 0x4 }
  - { offset: 0x1CC32A, size: 0x8, addend: 0x0, symName: __ZNSt3__120__shared_ptr_pointerIPNS_13__empty_stateIcEENS_10shared_ptrIS2_E27__shared_ptr_default_deleteIS2_S2_EENS_9allocatorIS2_EEED1Ev, symObjAddr: 0x278A0, symBinAddr: 0x100027E20, symSize: 0x4 }
  - { offset: 0x1CC360, size: 0x8, addend: 0x0, symName: __ZNSt3__120__shared_ptr_pointerIPNS_13__empty_stateIcEENS_10shared_ptrIS2_E27__shared_ptr_default_deleteIS2_S2_EENS_9allocatorIS2_EEED0Ev, symObjAddr: 0x278A4, symBinAddr: 0x100027E24, symSize: 0x14 }
  - { offset: 0x1CC3C3, size: 0x8, addend: 0x0, symName: __ZNSt3__120__shared_ptr_pointerIPNS_13__empty_stateIcEENS_10shared_ptrIS2_E27__shared_ptr_default_deleteIS2_S2_EENS_9allocatorIS2_EEE16__on_zero_sharedEv, symObjAddr: 0x278B8, symBinAddr: 0x100027E38, symSize: 0x18 }
  - { offset: 0x1CC412, size: 0x8, addend: 0x0, symName: __ZNKSt3__120__shared_ptr_pointerIPNS_13__empty_stateIcEENS_10shared_ptrIS2_E27__shared_ptr_default_deleteIS2_S2_EENS_9allocatorIS2_EEE13__get_deleterERKSt9type_info, symObjAddr: 0x278D0, symBinAddr: 0x100027E50, symSize: 0x64 }
  - { offset: 0x1CC44B, size: 0x8, addend: 0x0, symName: __ZNKSt3__120__shared_ptr_pointerIPNS_13__empty_stateIcEENS_10shared_ptrIS2_E27__shared_ptr_default_deleteIS2_S2_EENS_9allocatorIS2_EEE13__get_deleterERKSt9type_info, symObjAddr: 0x278D0, symBinAddr: 0x100027E50, symSize: 0x64 }
  - { offset: 0x1CC512, size: 0x8, addend: 0x0, symName: __ZNSt3__120__shared_ptr_pointerIPNS_13__empty_stateIcEENS_10shared_ptrIS2_E27__shared_ptr_default_deleteIS2_S2_EENS_9allocatorIS2_EEE21__on_zero_shared_weakEv, symObjAddr: 0x27934, symBinAddr: 0x100027EB4, symSize: 0x4 }
  - { offset: 0x1CC544, size: 0x8, addend: 0x0, symName: __ZNSt3__120__shared_ptr_pointerIPNS_13__empty_stateIcEENS_10shared_ptrIS2_E27__shared_ptr_default_deleteIS2_S2_EENS_9allocatorIS2_EEE21__on_zero_shared_weakEv, symObjAddr: 0x27934, symBinAddr: 0x100027EB4, symSize: 0x4 }
  - { offset: 0x1CC566, size: 0x8, addend: 0x0, symName: __ZNSt3__120__shared_ptr_pointerIPNS_13__empty_stateIcEENS_10shared_ptrIS2_E27__shared_ptr_default_deleteIS2_S2_EENS_9allocatorIS2_EEE21__on_zero_shared_weakEv, symObjAddr: 0x27934, symBinAddr: 0x100027EB4, symSize: 0x4 }
  - { offset: 0x1CC59A, size: 0x8, addend: 0x0, symName: __ZNSt3__120__shared_ptr_pointerIPNS_13__empty_stateIcEENS_10shared_ptrIS2_E27__shared_ptr_default_deleteIS2_S2_EENS_9allocatorIS2_EEE21__on_zero_shared_weakEv, symObjAddr: 0x27934, symBinAddr: 0x100027EB4, symSize: 0x4 }
  - { offset: 0x1CC5C1, size: 0x8, addend: 0x0, symName: __ZNSt3__113__empty_stateIcED1Ev, symObjAddr: 0x27938, symBinAddr: 0x100027EB8, symSize: 0x48 }
  - { offset: 0x1CC5E5, size: 0x8, addend: 0x0, symName: __ZNSt3__113__empty_stateIcED1Ev, symObjAddr: 0x27938, symBinAddr: 0x100027EB8, symSize: 0x48 }
  - { offset: 0x1CC603, size: 0x8, addend: 0x0, symName: __ZNSt3__113__empty_stateIcED1Ev, symObjAddr: 0x27938, symBinAddr: 0x100027EB8, symSize: 0x48 }
  - { offset: 0x1CC62D, size: 0x8, addend: 0x0, symName: __ZNSt3__113__empty_stateIcED0Ev, symObjAddr: 0x27980, symBinAddr: 0x100027F00, symSize: 0x48 }
  - { offset: 0x1CC651, size: 0x8, addend: 0x0, symName: __ZNSt3__113__empty_stateIcED0Ev, symObjAddr: 0x27980, symBinAddr: 0x100027F00, symSize: 0x48 }
  - { offset: 0x1CC66F, size: 0x8, addend: 0x0, symName: __ZNSt3__113__empty_stateIcED0Ev, symObjAddr: 0x27980, symBinAddr: 0x100027F00, symSize: 0x48 }
  - { offset: 0x1CC68D, size: 0x8, addend: 0x0, symName: __ZNSt3__113__empty_stateIcED0Ev, symObjAddr: 0x27980, symBinAddr: 0x100027F00, symSize: 0x48 }
  - { offset: 0x1CC6D4, size: 0x8, addend: 0x0, symName: __ZNKSt3__113__empty_stateIcE6__execERNS_7__stateIcEE, symObjAddr: 0x279C8, symBinAddr: 0x100027F48, symSize: 0x14 }
  - { offset: 0x1CC725, size: 0x8, addend: 0x0, symName: __ZNSt3__116__owns_one_stateIcED1Ev, symObjAddr: 0x279DC, symBinAddr: 0x100027F5C, symSize: 0x48 }
  - { offset: 0x1CC749, size: 0x8, addend: 0x0, symName: __ZNSt3__116__owns_one_stateIcED1Ev, symObjAddr: 0x279DC, symBinAddr: 0x100027F5C, symSize: 0x48 }
  - { offset: 0x1CC78C, size: 0x8, addend: 0x0, symName: __ZNSt3__116__owns_one_stateIcED0Ev, symObjAddr: 0x27A24, symBinAddr: 0x100027FA4, symSize: 0x48 }
  - { offset: 0x1CC7B9, size: 0x8, addend: 0x0, symName: __ZNSt3__116__owns_one_stateIcED0Ev, symObjAddr: 0x27A24, symBinAddr: 0x100027FA4, symSize: 0x48 }
  - { offset: 0x1CC7D7, size: 0x8, addend: 0x0, symName: __ZNSt3__116__owns_one_stateIcED0Ev, symObjAddr: 0x27A24, symBinAddr: 0x100027FA4, symSize: 0x48 }
  - { offset: 0x1CC85E, size: 0x8, addend: 0x0, symName: __ZNSt3__111basic_regexIcNS_12regex_traitsIcEEE23__parse_ERE_dupl_symbolIPKcEET_S7_S7_PNS_16__owns_one_stateIcEEjj, symObjAddr: 0x2813C, symBinAddr: 0x1000286BC, symSize: 0x3E4 }
  - { offset: 0x1CCDE8, size: 0x8, addend: 0x0, symName: __ZNSt3__111basic_regexIcNS_12regex_traitsIcEEE20__push_word_boundaryEb, symObjAddr: 0x28520, symBinAddr: 0x100028AA0, symSize: 0x6C }
  - { offset: 0x1CCDFC, size: 0x8, addend: 0x0, symName: __ZNSt3__111basic_regexIcNS_12regex_traitsIcEEE17__parse_assertionIPKcEET_S7_S7_, symObjAddr: 0x27BA0, symBinAddr: 0x100028120, symSize: 0x364 }
  - { offset: 0x1CD40E, size: 0x8, addend: 0x0, symName: __ZNSt3__111basic_regexIcNS_12regex_traitsIcEEE12__parse_atomIPKcEET_S7_S7_, symObjAddr: 0x27F04, symBinAddr: 0x100028484, symSize: 0x238 }
  - { offset: 0x1CD76C, size: 0x8, addend: 0x0, symName: __ZNSt3__111basic_regexIcNS_12regex_traitsIcEEE23__parse_ERE_dupl_symbolIPKcEET_S7_S7_PNS_16__owns_one_stateIcEEjj, symObjAddr: 0x2813C, symBinAddr: 0x1000286BC, symSize: 0x3E4 }
  - { offset: 0x1CD87F, size: 0x8, addend: 0x0, symName: __ZNSt3__111basic_regexIcNS_12regex_traitsIcEEEC1B8ne200100Ev, symObjAddr: 0x2858C, symBinAddr: 0x100028B0C, symSize: 0x6C }
  - { offset: 0x1CD946, size: 0x8, addend: 0x0, symName: __ZNSt3__111basic_regexIcNS_12regex_traitsIcEEE16__push_lookaheadERKS3_bj, symObjAddr: 0x285F8, symBinAddr: 0x100028B78, symSize: 0xA8 }
  - { offset: 0x1CDD15, size: 0x8, addend: 0x0, symName: __ZNSt3__111basic_regexIcNS_12regex_traitsIcEEE26__parse_bracket_expressionIPKcEET_S7_S7_, symObjAddr: 0x29E1C, symBinAddr: 0x10002A360, symSize: 0x160 }
  - { offset: 0x1CDEEA, size: 0x8, addend: 0x0, symName: __ZNSt3__111basic_regexIcNS_12regex_traitsIcEEE19__parse_atom_escapeIPKcEET_S7_S7_, symObjAddr: 0x29C9C, symBinAddr: 0x10002A1E0, symSize: 0x180 }
  - { offset: 0x1CE073, size: 0x8, addend: 0x0, symName: __ZNSt3__111basic_regexIcNS_12regex_traitsIcEEE26__parse_bracket_expressionIPKcEET_S7_S7_, symObjAddr: 0x29E1C, symBinAddr: 0x10002A360, symSize: 0x160 }
  - { offset: 0x1CE087, size: 0x8, addend: 0x0, symName: __ZNSt3__111basic_regexIcNS_12regex_traitsIcEEE25__parse_pattern_characterIPKcEET_S7_S7_, symObjAddr: 0x29FC8, symBinAddr: 0x10002A50C, symSize: 0x7C }
  - { offset: 0x1CE243, size: 0x8, addend: 0x0, symName: __ZNSt3__111basic_regexIcNS_12regex_traitsIcEEE11__push_loopEmmPNS_16__owns_one_stateIcEEmmb, symObjAddr: 0x2E8F8, symBinAddr: 0x10002EE14, symSize: 0x13C }
  - { offset: 0x1CE660, size: 0x8, addend: 0x0, symName: __ZNSt3__111basic_regexIcNS_12regex_traitsIcEEE20__push_word_boundaryEb, symObjAddr: 0x28520, symBinAddr: 0x100028AA0, symSize: 0x6C }
  - { offset: 0x1CE8F7, size: 0x8, addend: 0x0, symName: __ZNSt3__120__l_anchor_multilineIcED1Ev, symObjAddr: 0x286EC, symBinAddr: 0x100028C6C, symSize: 0x48 }
  - { offset: 0x1CE91B, size: 0x8, addend: 0x0, symName: __ZNSt3__120__l_anchor_multilineIcED1Ev, symObjAddr: 0x286EC, symBinAddr: 0x100028C6C, symSize: 0x48 }
  - { offset: 0x1CE939, size: 0x8, addend: 0x0, symName: __ZNSt3__120__l_anchor_multilineIcED1Ev, symObjAddr: 0x286EC, symBinAddr: 0x100028C6C, symSize: 0x48 }
  - { offset: 0x1CE980, size: 0x8, addend: 0x0, symName: __ZNSt3__120__l_anchor_multilineIcED0Ev, symObjAddr: 0x28734, symBinAddr: 0x100028CB4, symSize: 0x48 }
  - { offset: 0x1CE9B0, size: 0x8, addend: 0x0, symName: __ZNSt3__120__l_anchor_multilineIcED0Ev, symObjAddr: 0x28734, symBinAddr: 0x100028CB4, symSize: 0x48 }
  - { offset: 0x1CE9CE, size: 0x8, addend: 0x0, symName: __ZNSt3__120__l_anchor_multilineIcED0Ev, symObjAddr: 0x28734, symBinAddr: 0x100028CB4, symSize: 0x48 }
  - { offset: 0x1CE9EC, size: 0x8, addend: 0x0, symName: __ZNSt3__120__l_anchor_multilineIcED0Ev, symObjAddr: 0x28734, symBinAddr: 0x100028CB4, symSize: 0x48 }
  - { offset: 0x1CEA17, size: 0x8, addend: 0x0, symName: __ZNKSt3__120__l_anchor_multilineIcE6__execERNS_7__stateIcEE, symObjAddr: 0x2877C, symBinAddr: 0x100028CFC, symSize: 0x68 }
  - { offset: 0x1CEA7C, size: 0x8, addend: 0x0, symName: __ZNSt3__120__r_anchor_multilineIcED1Ev, symObjAddr: 0x287E4, symBinAddr: 0x100028D64, symSize: 0x48 }
  - { offset: 0x1CEAA0, size: 0x8, addend: 0x0, symName: __ZNSt3__120__r_anchor_multilineIcED1Ev, symObjAddr: 0x287E4, symBinAddr: 0x100028D64, symSize: 0x48 }
  - { offset: 0x1CEABE, size: 0x8, addend: 0x0, symName: __ZNSt3__120__r_anchor_multilineIcED1Ev, symObjAddr: 0x287E4, symBinAddr: 0x100028D64, symSize: 0x48 }
  - { offset: 0x1CEB05, size: 0x8, addend: 0x0, symName: __ZNSt3__120__r_anchor_multilineIcED0Ev, symObjAddr: 0x2882C, symBinAddr: 0x100028DAC, symSize: 0x48 }
  - { offset: 0x1CEB35, size: 0x8, addend: 0x0, symName: __ZNSt3__120__r_anchor_multilineIcED0Ev, symObjAddr: 0x2882C, symBinAddr: 0x100028DAC, symSize: 0x48 }
  - { offset: 0x1CEB53, size: 0x8, addend: 0x0, symName: __ZNSt3__120__r_anchor_multilineIcED0Ev, symObjAddr: 0x2882C, symBinAddr: 0x100028DAC, symSize: 0x48 }
  - { offset: 0x1CEB71, size: 0x8, addend: 0x0, symName: __ZNSt3__120__r_anchor_multilineIcED0Ev, symObjAddr: 0x2882C, symBinAddr: 0x100028DAC, symSize: 0x48 }
  - { offset: 0x1CEB9C, size: 0x8, addend: 0x0, symName: __ZNKSt3__120__r_anchor_multilineIcE6__execERNS_7__stateIcEE, symObjAddr: 0x28874, symBinAddr: 0x100028DF4, symSize: 0x54 }
  - { offset: 0x1CEC01, size: 0x8, addend: 0x0, symName: __ZNSt3__115__word_boundaryIcNS_12regex_traitsIcEEED1Ev, symObjAddr: 0x288C8, symBinAddr: 0x100028E48, symSize: 0x58 }
  - { offset: 0x1CECB2, size: 0x8, addend: 0x0, symName: __ZNSt3__115__word_boundaryIcNS_12regex_traitsIcEEED0Ev, symObjAddr: 0x28920, symBinAddr: 0x100028EA0, symSize: 0x58 }
  - { offset: 0x1CEDCB, size: 0x8, addend: 0x0, symName: __ZNKSt3__115__word_boundaryIcNS_12regex_traitsIcEEE6__execERNS_7__stateIcEE, symObjAddr: 0x28978, symBinAddr: 0x100028EF8, symSize: 0x154 }
  - { offset: 0x1CEFA9, size: 0x8, addend: 0x0, symName: __ZNSt3__111__lookaheadIcNS_12regex_traitsIcEEED1Ev, symObjAddr: 0x28ACC, symBinAddr: 0x10002904C, symSize: 0x8C }
  - { offset: 0x1CF10A, size: 0x8, addend: 0x0, symName: __ZNSt3__111__lookaheadIcNS_12regex_traitsIcEEED0Ev, symObjAddr: 0x28B58, symBinAddr: 0x1000290D8, symSize: 0x8C }
  - { offset: 0x1CF340, size: 0x8, addend: 0x0, symName: __ZNKSt3__111__lookaheadIcNS_12regex_traitsIcEEE6__execERNS_7__stateIcEE, symObjAddr: 0x28BE4, symBinAddr: 0x100029164, symSize: 0x184 }
  - { offset: 0x1CF8A5, size: 0x8, addend: 0x0, symName: __ZNSt3__16vectorINS_9sub_matchIPKcEENS_9allocatorIS4_EEE6assignEmRKS4_, symObjAddr: 0x291DC, symBinAddr: 0x10002975C, symSize: 0x1E0 }
  - { offset: 0x1CFE35, size: 0x8, addend: 0x0, symName: __ZNKSt3__111basic_regexIcNS_12regex_traitsIcEEE21__match_at_start_ecmaINS_9allocatorINS_9sub_matchIPKcEEEEEEbS8_S8_RNS_13match_resultsIS8_T_EENS_15regex_constants15match_flag_typeEb, symObjAddr: 0x28D68, symBinAddr: 0x1000292E8, symSize: 0x474 }
  - { offset: 0x1D162A, size: 0x8, addend: 0x0, symName: __ZNSt3__16vectorINS_7__stateIcEENS_9allocatorIS2_EEE24__emplace_back_slow_pathIJS2_EEEPS2_DpOT_, symObjAddr: 0x29528, symBinAddr: 0x100029A94, symSize: 0x178 }
  - { offset: 0x1D1CC5, size: 0x8, addend: 0x0, symName: __ZNSt3__16vectorINS_9sub_matchIPKcEENS_9allocatorIS4_EEE8__appendEmRKS4_, symObjAddr: 0x2984C, symBinAddr: 0x100029DA4, symSize: 0x1B0 }
  - { offset: 0x1D221B, size: 0x8, addend: 0x0, symName: __ZNSt3__16vectorINS_4pairImPKcEENS_9allocatorIS4_EEE8__appendEm, symObjAddr: 0x299FC, symBinAddr: 0x100029F54, symSize: 0x120 }
  - { offset: 0x1D2226, size: 0x8, addend: 0x0, symName: __ZNSt3__16vectorINS_4pairImPKcEENS_9allocatorIS4_EEE8__appendEm, symObjAddr: 0x299FC, symBinAddr: 0x100029F54, symSize: 0x120 }
  - { offset: 0x1D2689, size: 0x8, addend: 0x0, symName: __ZNSt3__17__stateIcEC2ERKS1_, symObjAddr: 0x29B30, symBinAddr: 0x10002A074, symSize: 0x16C }
  - { offset: 0x1D2CE7, size: 0x8, addend: 0x0, symName: __ZNSt3__16vectorINS_7__stateIcEENS_9allocatorIS2_EEED1B8ne200100Ev, symObjAddr: 0x294A8, symBinAddr: 0x100029A14, symSize: 0x80 }
  - { offset: 0x1D30C3, size: 0x8, addend: 0x0, symName: __ZNSt3__17__stateIcED1Ev, symObjAddr: 0x293D0, symBinAddr: 0x10002993C, symSize: 0x40 }
  - { offset: 0x1D355E, size: 0x8, addend: 0x0, symName: __ZNSt3__17__stateIcED1Ev, symObjAddr: 0x293D0, symBinAddr: 0x10002993C, symSize: 0x40 }
  - { offset: 0x1D36FD, size: 0x8, addend: 0x0, symName: __ZNSt3__16vectorINS_7__stateIcEENS_9allocatorIS2_EEE26__swap_out_circular_bufferERNS_14__split_bufferIS2_RS4_EE, symObjAddr: 0x296A0, symBinAddr: 0x100029C0C, symSize: 0x124 }
  - { offset: 0x1D3C77, size: 0x8, addend: 0x0, symName: __ZNSt3__16vectorINS_9sub_matchIPKcEENS_9allocatorIS4_EEE8__appendEmRKS4_, symObjAddr: 0x2984C, symBinAddr: 0x100029DA4, symSize: 0x1B0 }
  - { offset: 0x1D3C82, size: 0x8, addend: 0x0, symName: __ZNSt3__114__split_bufferINS_7__stateIcEERNS_9allocatorIS2_EEED1Ev, symObjAddr: 0x297C4, symBinAddr: 0x100029D30, symSize: 0x74 }
  - { offset: 0x1D44E5, size: 0x8, addend: 0x0, symName: __ZNSt3__17__stateIcEC2ERKS1_, symObjAddr: 0x29B30, symBinAddr: 0x10002A074, symSize: 0x16C }
  - { offset: 0x1D48A1, size: 0x8, addend: 0x0, symName: __ZNSt3__111basic_regexIcNS_12regex_traitsIcEEE11__push_charEc, symObjAddr: 0x2A86C, symBinAddr: 0x10002ADB0, symSize: 0x144 }
  - { offset: 0x1D4C0B, size: 0x8, addend: 0x0, symName: __ZNSt3__111basic_regexIcNS_12regex_traitsIcEEE15__push_back_refEi, symObjAddr: 0x2A9FC, symBinAddr: 0x10002AF40, symSize: 0xD4 }
  - { offset: 0x1D4DBD, size: 0x8, addend: 0x0, symName: __ZNSt3__111basic_regexIcNS_12regex_traitsIcEEE30__parse_character_class_escapeIPKcEET_S7_S7_, symObjAddr: 0x2A120, symBinAddr: 0x10002A664, symSize: 0x25C }
  - { offset: 0x1D5219, size: 0x8, addend: 0x0, symName: __ZNSt3__111basic_regexIcNS_12regex_traitsIcEEE24__parse_character_escapeIPKcEET_S7_S7_PNS_12basic_stringIcNS_11char_traitsIcEENS_9allocatorIcEEEE, symObjAddr: 0x2A37C, symBinAddr: 0x10002A8C0, symSize: 0x4F0 }
  - { offset: 0x1D5E2C, size: 0x8, addend: 0x0, symName: __ZNSt3__111basic_regexIcNS_12regex_traitsIcEEE11__push_charEc, symObjAddr: 0x2A86C, symBinAddr: 0x10002ADB0, symSize: 0x144 }
  - { offset: 0x1D5F15, size: 0x8, addend: 0x0, symName: __ZNSt3__120__bracket_expressionIcNS_12regex_traitsIcEEEC2B8ne200100ERKS2_PNS_6__nodeIcEEbbb, symObjAddr: 0x2B3A8, symBinAddr: 0x10002B8EC, symSize: 0x19C }
  - { offset: 0x1D652F, size: 0x8, addend: 0x0, symName: __ZNSt3__120__bracket_expressionIcNS_12regex_traitsIcEEE10__add_charB8ne200100Ec, symObjAddr: 0x2B21C, symBinAddr: 0x10002B760, symSize: 0x18C }
  - { offset: 0x1D687F, size: 0x8, addend: 0x0, symName: __ZNSt3__120__bracket_expressionIcNS_12regex_traitsIcEEEC2B8ne200100ERKS2_PNS_6__nodeIcEEbbb, symObjAddr: 0x2B3A8, symBinAddr: 0x10002B8EC, symSize: 0x19C }
  - { offset: 0x1D688A, size: 0x8, addend: 0x0, symName: __ZNSt3__111basic_regexIcNS_12regex_traitsIcEEE23__parse_expression_termIPKcEET_S7_S7_PNS_20__bracket_expressionIcS2_EE, symObjAddr: 0x2C59C, symBinAddr: 0x10002CAE0, symSize: 0x5CC }
  - { offset: 0x1D7BE4, size: 0x8, addend: 0x0, symName: __ZNSt3__123__match_any_but_newlineIcED1Ev, symObjAddr: 0x2A044, symBinAddr: 0x10002A588, symSize: 0x48 }
  - { offset: 0x1D7C08, size: 0x8, addend: 0x0, symName: __ZNSt3__123__match_any_but_newlineIcED1Ev, symObjAddr: 0x2A044, symBinAddr: 0x10002A588, symSize: 0x48 }
  - { offset: 0x1D7C26, size: 0x8, addend: 0x0, symName: __ZNSt3__123__match_any_but_newlineIcED1Ev, symObjAddr: 0x2A044, symBinAddr: 0x10002A588, symSize: 0x48 }
  - { offset: 0x1D7C6D, size: 0x8, addend: 0x0, symName: __ZNSt3__123__match_any_but_newlineIcED0Ev, symObjAddr: 0x2A08C, symBinAddr: 0x10002A5D0, symSize: 0x48 }
  - { offset: 0x1D7C9D, size: 0x8, addend: 0x0, symName: __ZNSt3__123__match_any_but_newlineIcED0Ev, symObjAddr: 0x2A08C, symBinAddr: 0x10002A5D0, symSize: 0x48 }
  - { offset: 0x1D7CBB, size: 0x8, addend: 0x0, symName: __ZNSt3__123__match_any_but_newlineIcED0Ev, symObjAddr: 0x2A08C, symBinAddr: 0x10002A5D0, symSize: 0x48 }
  - { offset: 0x1D7CD9, size: 0x8, addend: 0x0, symName: __ZNSt3__123__match_any_but_newlineIcED0Ev, symObjAddr: 0x2A08C, symBinAddr: 0x10002A5D0, symSize: 0x48 }
  - { offset: 0x1D8161, size: 0x8, addend: 0x0, symName: __ZNSt3__118__match_char_icaseIcNS_12regex_traitsIcEEED1Ev, symObjAddr: 0x2AAD0, symBinAddr: 0x10002B014, symSize: 0x58 }
  - { offset: 0x1D8212, size: 0x8, addend: 0x0, symName: __ZNSt3__118__match_char_icaseIcNS_12regex_traitsIcEEED0Ev, symObjAddr: 0x2AB28, symBinAddr: 0x10002B06C, symSize: 0x58 }
  - { offset: 0x1D82CF, size: 0x8, addend: 0x0, symName: __ZNKSt3__118__match_char_icaseIcNS_12regex_traitsIcEEE6__execERNS_7__stateIcEE, symObjAddr: 0x2AB80, symBinAddr: 0x10002B0C4, symSize: 0x84 }
  - { offset: 0x1D8388, size: 0x8, addend: 0x0, symName: __ZNSt3__120__match_char_collateIcNS_12regex_traitsIcEEED1Ev, symObjAddr: 0x2AC04, symBinAddr: 0x10002B148, symSize: 0x58 }
  - { offset: 0x1D8439, size: 0x8, addend: 0x0, symName: __ZNSt3__120__match_char_collateIcNS_12regex_traitsIcEEED0Ev, symObjAddr: 0x2AC5C, symBinAddr: 0x10002B1A0, symSize: 0x58 }
  - { offset: 0x1D84F6, size: 0x8, addend: 0x0, symName: __ZNKSt3__120__match_char_collateIcNS_12regex_traitsIcEEE6__execERNS_7__stateIcEE, symObjAddr: 0x2ACB4, symBinAddr: 0x10002B1F8, symSize: 0x48 }
  - { offset: 0x1D8564, size: 0x8, addend: 0x0, symName: __ZNSt3__112__match_charIcED1Ev, symObjAddr: 0x2ACFC, symBinAddr: 0x10002B240, symSize: 0x48 }
  - { offset: 0x1D8588, size: 0x8, addend: 0x0, symName: __ZNSt3__112__match_charIcED1Ev, symObjAddr: 0x2ACFC, symBinAddr: 0x10002B240, symSize: 0x48 }
  - { offset: 0x1D85A6, size: 0x8, addend: 0x0, symName: __ZNSt3__112__match_charIcED1Ev, symObjAddr: 0x2ACFC, symBinAddr: 0x10002B240, symSize: 0x48 }
  - { offset: 0x1D85ED, size: 0x8, addend: 0x0, symName: __ZNSt3__112__match_charIcED0Ev, symObjAddr: 0x2AD44, symBinAddr: 0x10002B288, symSize: 0x48 }
  - { offset: 0x1D861D, size: 0x8, addend: 0x0, symName: __ZNSt3__112__match_charIcED0Ev, symObjAddr: 0x2AD44, symBinAddr: 0x10002B288, symSize: 0x48 }
  - { offset: 0x1D863B, size: 0x8, addend: 0x0, symName: __ZNSt3__112__match_charIcED0Ev, symObjAddr: 0x2AD44, symBinAddr: 0x10002B288, symSize: 0x48 }
  - { offset: 0x1D8659, size: 0x8, addend: 0x0, symName: __ZNSt3__112__match_charIcED0Ev, symObjAddr: 0x2AD44, symBinAddr: 0x10002B288, symSize: 0x48 }
  - { offset: 0x1D8684, size: 0x8, addend: 0x0, symName: __ZNKSt3__112__match_charIcE6__execERNS_7__stateIcEE, symObjAddr: 0x2AD8C, symBinAddr: 0x10002B2D0, symSize: 0x48 }
  - { offset: 0x1D86F2, size: 0x8, addend: 0x0, symName: __ZNSt3__116__back_ref_icaseIcNS_12regex_traitsIcEEED1Ev, symObjAddr: 0x2ADD4, symBinAddr: 0x10002B318, symSize: 0x58 }
  - { offset: 0x1D87A3, size: 0x8, addend: 0x0, symName: __ZNSt3__116__back_ref_icaseIcNS_12regex_traitsIcEEED0Ev, symObjAddr: 0x2AE2C, symBinAddr: 0x10002B370, symSize: 0x58 }
  - { offset: 0x1D8860, size: 0x8, addend: 0x0, symName: __ZNKSt3__116__back_ref_icaseIcNS_12regex_traitsIcEEE6__execERNS_7__stateIcEE, symObjAddr: 0x2AE84, symBinAddr: 0x10002B3C8, symSize: 0xFC }
  - { offset: 0x1D89CA, size: 0x8, addend: 0x0, symName: __ZNSt3__118__back_ref_collateIcNS_12regex_traitsIcEEED1Ev, symObjAddr: 0x2AF80, symBinAddr: 0x10002B4C4, symSize: 0x58 }
  - { offset: 0x1D8A7B, size: 0x8, addend: 0x0, symName: __ZNSt3__118__back_ref_collateIcNS_12regex_traitsIcEEED0Ev, symObjAddr: 0x2AFD8, symBinAddr: 0x10002B51C, symSize: 0x58 }
  - { offset: 0x1D8B38, size: 0x8, addend: 0x0, symName: __ZNKSt3__118__back_ref_collateIcNS_12regex_traitsIcEEE6__execERNS_7__stateIcEE, symObjAddr: 0x2B030, symBinAddr: 0x10002B574, symSize: 0x8C }
  - { offset: 0x1D8C0D, size: 0x8, addend: 0x0, symName: __ZNSt3__110__back_refIcED1Ev, symObjAddr: 0x2B0BC, symBinAddr: 0x10002B600, symSize: 0x48 }
  - { offset: 0x1D8C31, size: 0x8, addend: 0x0, symName: __ZNSt3__110__back_refIcED1Ev, symObjAddr: 0x2B0BC, symBinAddr: 0x10002B600, symSize: 0x48 }
  - { offset: 0x1D8C4F, size: 0x8, addend: 0x0, symName: __ZNSt3__110__back_refIcED1Ev, symObjAddr: 0x2B0BC, symBinAddr: 0x10002B600, symSize: 0x48 }
  - { offset: 0x1D8C96, size: 0x8, addend: 0x0, symName: __ZNSt3__110__back_refIcED0Ev, symObjAddr: 0x2B104, symBinAddr: 0x10002B648, symSize: 0x48 }
  - { offset: 0x1D8CC6, size: 0x8, addend: 0x0, symName: __ZNSt3__110__back_refIcED0Ev, symObjAddr: 0x2B104, symBinAddr: 0x10002B648, symSize: 0x48 }
  - { offset: 0x1D8CE4, size: 0x8, addend: 0x0, symName: __ZNSt3__110__back_refIcED0Ev, symObjAddr: 0x2B104, symBinAddr: 0x10002B648, symSize: 0x48 }
  - { offset: 0x1D8D02, size: 0x8, addend: 0x0, symName: __ZNSt3__110__back_refIcED0Ev, symObjAddr: 0x2B104, symBinAddr: 0x10002B648, symSize: 0x48 }
  - { offset: 0x1D8D2D, size: 0x8, addend: 0x0, symName: __ZNKSt3__110__back_refIcE6__execERNS_7__stateIcEE, symObjAddr: 0x2B14C, symBinAddr: 0x10002B690, symSize: 0xD0 }
  - { offset: 0x1D8EAC, size: 0x8, addend: 0x0, symName: __ZNSt3__120__bracket_expressionIcNS_12regex_traitsIcEEE10__add_charB8ne200100Ec, symObjAddr: 0x2B21C, symBinAddr: 0x10002B760, symSize: 0x18C }
  - { offset: 0x1D9226, size: 0x8, addend: 0x0, symName: __ZNSt3__16vectorINS_4pairINS_12basic_stringIcNS_11char_traitsIcEENS_9allocatorIcEEEES7_EENS5_IS8_EEED1B8ne200100Ev, symObjAddr: 0x2B544, symBinAddr: 0x10002BA88, symSize: 0x94 }
  - { offset: 0x1D9708, size: 0x8, addend: 0x0, symName: __ZNSt3__120__bracket_expressionIcNS_12regex_traitsIcEEED1Ev, symObjAddr: 0x2B5D8, symBinAddr: 0x10002BB1C, symSize: 0x4 }
  - { offset: 0x1D972B, size: 0x8, addend: 0x0, symName: __ZNSt3__120__bracket_expressionIcNS_12regex_traitsIcEEED1Ev, symObjAddr: 0x2B5D8, symBinAddr: 0x10002BB1C, symSize: 0x4 }
  - { offset: 0x1D973E, size: 0x8, addend: 0x0, symName: __ZNSt3__120__bracket_expressionIcNS_12regex_traitsIcEEED2Ev, symObjAddr: 0x2BEC0, symBinAddr: 0x10002C404, symSize: 0x148 }
  - { offset: 0x1DA123, size: 0x8, addend: 0x0, symName: __ZNSt3__120__bracket_expressionIcNS_12regex_traitsIcEEED0Ev, symObjAddr: 0x2B5DC, symBinAddr: 0x10002BB20, symSize: 0x14 }
  - { offset: 0x1DA4A2, size: 0x8, addend: 0x0, symName: __ZNKSt3__120__bracket_expressionIcNS_12regex_traitsIcEEE6__execERNS_7__stateIcEE, symObjAddr: 0x2B5F0, symBinAddr: 0x10002BB34, symSize: 0x878 }
  - { offset: 0x1DBC72, size: 0x8, addend: 0x0, symName: __ZNKSt3__112regex_traitsIcE20__lookup_collatenameIPcEENS_12basic_stringIcNS_11char_traitsIcEENS_9allocatorIcEEEET_SA_c, symObjAddr: 0x2C134, symBinAddr: 0x10002C678, symSize: 0x28C }
  - { offset: 0x1DC856, size: 0x8, addend: 0x0, symName: __ZNKSt3__112regex_traitsIcE9transformIPcEENS_12basic_stringIcNS_11char_traitsIcEENS_9allocatorIcEEEET_SA_, symObjAddr: 0x2C008, symBinAddr: 0x10002C54C, symSize: 0x12C }
  - { offset: 0x1DCE12, size: 0x8, addend: 0x0, symName: __ZNKSt3__112regex_traitsIcE19__transform_primaryIPcEENS_12basic_stringIcNS_11char_traitsIcEENS_9allocatorIcEEEET_SA_c, symObjAddr: 0x2C3C0, symBinAddr: 0x10002C904, symSize: 0x190 }
  - { offset: 0x1DD54F, size: 0x8, addend: 0x0, symName: __ZNSt3__14pairINS_12basic_stringIcNS_11char_traitsIcEENS_9allocatorIcEEEES6_ED1Ev, symObjAddr: 0x2BE68, symBinAddr: 0x10002C3AC, symSize: 0x58 }
  - { offset: 0x1DD922, size: 0x8, addend: 0x0, symName: __ZNSt3__111basic_regexIcNS_12regex_traitsIcEEE25__parse_equivalence_classIPKcEET_S7_S7_PNS_20__bracket_expressionIcS2_EE, symObjAddr: 0x2CB68, symBinAddr: 0x10002D0AC, symSize: 0x258 }
  - { offset: 0x1DE3B4, size: 0x8, addend: 0x0, symName: __ZNKSt3__112regex_traitsIcE20__lookup_collatenameIPKcEENS_12basic_stringIcNS_11char_traitsIcEENS_9allocatorIcEEEET_SB_c, symObjAddr: 0x2DBCC, symBinAddr: 0x10002E110, symSize: 0x28C }
  - { offset: 0x1DEF98, size: 0x8, addend: 0x0, symName: __ZNSt3__111basic_regexIcNS_12regex_traitsIcEEE18__parse_awk_escapeIPKcEET_S7_S7_PNS_12basic_stringIcNS_11char_traitsIcEENS_9allocatorIcEEEE, symObjAddr: 0x2D06C, symBinAddr: 0x10002D5B0, symSize: 0x4BC }
  - { offset: 0x1DF8BC, size: 0x8, addend: 0x0, symName: __ZNSt3__120__bracket_expressionIcNS_12regex_traitsIcEEE11__add_rangeB8ne200100ENS_12basic_stringIcNS_11char_traitsIcEENS_9allocatorIcEEEES9_, symObjAddr: 0x2D528, symBinAddr: 0x10002DA6C, symSize: 0x438 }
  - { offset: 0x1DF8D0, size: 0x8, addend: 0x0, symName: __ZNKSt3__112regex_traitsIcE18__lookup_classnameIPKcEEjT_S5_bc, symObjAddr: 0x2E184, symBinAddr: 0x10002E6C8, symSize: 0x14C }
  - { offset: 0x1DFF63, size: 0x8, addend: 0x0, symName: __ZNSt3__111basic_regexIcNS_12regex_traitsIcEEE20__parse_class_escapeIPKcEET_S7_S7_RNS_12basic_stringIcNS_11char_traitsIcEENS_9allocatorIcEEEEPNS_20__bracket_expressionIcS2_EE, symObjAddr: 0x2CE90, symBinAddr: 0x10002D3D4, symSize: 0x1DC }
  - { offset: 0x1E02B1, size: 0x8, addend: 0x0, symName: __ZNSt3__111basic_regexIcNS_12regex_traitsIcEEE18__parse_awk_escapeIPKcEET_S7_S7_PNS_12basic_stringIcNS_11char_traitsIcEENS_9allocatorIcEEEE, symObjAddr: 0x2D06C, symBinAddr: 0x10002D5B0, symSize: 0x4BC }
  - { offset: 0x1E02C5, size: 0x8, addend: 0x0, symName: __ZNSt3__111basic_regexIcNS_12regex_traitsIcEEE24__parse_collating_symbolIPKcEET_S7_S7_RNS_12basic_stringIcNS_11char_traitsIcEENS_9allocatorIcEEEE, symObjAddr: 0x2CDC0, symBinAddr: 0x10002D304, symSize: 0xD0 }
  - { offset: 0x1E063E, size: 0x8, addend: 0x0, symName: __ZNSt3__111basic_regexIcNS_12regex_traitsIcEEE20__parse_class_escapeIPKcEET_S7_S7_RNS_12basic_stringIcNS_11char_traitsIcEENS_9allocatorIcEEEEPNS_20__bracket_expressionIcS2_EE, symObjAddr: 0x2CE90, symBinAddr: 0x10002D3D4, symSize: 0x1DC }
  - { offset: 0x1E0649, size: 0x8, addend: 0x0, symName: __ZNSt3__120__bracket_expressionIcNS_12regex_traitsIcEEE13__add_digraphB8ne200100Ecc, symObjAddr: 0x2D960, symBinAddr: 0x10002DEA4, symSize: 0x220 }
  - { offset: 0x1E1131, size: 0x8, addend: 0x0, symName: __ZNSt3__119__throw_regex_errorB8ne200100ILNS_15regex_constants10error_typeE1EEEvv, symObjAddr: 0x2DB80, symBinAddr: 0x10002E0C4, symSize: 0x4C }
  - { offset: 0x1E113C, size: 0x8, addend: 0x0, symName: __ZNSt3__120__bracket_expressionIcNS_12regex_traitsIcEEE11__add_rangeB8ne200100ENS_12basic_stringIcNS_11char_traitsIcEENS_9allocatorIcEEEES9_, symObjAddr: 0x2D528, symBinAddr: 0x10002DA6C, symSize: 0x438 }
  - { offset: 0x1E23CD, size: 0x8, addend: 0x0, symName: __ZNKSt3__112regex_traitsIcE19__transform_primaryINS_11__wrap_iterIPcEEEENS_12basic_stringIcNS_11char_traitsIcEENS_9allocatorIcEEEET_SC_c, symObjAddr: 0x2DE58, symBinAddr: 0x10002E39C, symSize: 0x190 }
  - { offset: 0x1E2B1E, size: 0x8, addend: 0x0, symName: __ZNSt3__16vectorINS_12basic_stringIcNS_11char_traitsIcEENS_9allocatorIcEEEENS4_IS6_EEE24__emplace_back_slow_pathIJRKS6_EEEPS6_DpOT_, symObjAddr: 0x2DFE8, symBinAddr: 0x10002E52C, symSize: 0x150 }
  - { offset: 0x1E2F83, size: 0x8, addend: 0x0, symName: __ZNSt3__120__bracket_expressionIcNS_12regex_traitsIcEEE14__add_neg_charB8ne200100Ec, symObjAddr: 0x2E2D0, symBinAddr: 0x10002E814, symSize: 0x18C }
  - { offset: 0x1E32DB, size: 0x8, addend: 0x0, symName: __ZNSt3__16vectorINS_4pairINS_12basic_stringIcNS_11char_traitsIcEENS_9allocatorIcEEEES7_EENS5_IS8_EEE9push_backB8ne200100EOS8_, symObjAddr: 0x2E45C, symBinAddr: 0x10002E9A0, symSize: 0x174 }
  - { offset: 0x1E3378, size: 0x8, addend: 0x0, symName: __ZNKSt3__112regex_traitsIcE9transformINS_11__wrap_iterIPcEEEENS_12basic_stringIcNS_11char_traitsIcEENS_9allocatorIcEEEET_SC_, symObjAddr: 0x2E5D0, symBinAddr: 0x10002EB14, symSize: 0x12C }
  - { offset: 0x1E396B, size: 0x8, addend: 0x0, symName: __ZNSt3__16vectorINS_4pairINS_12basic_stringIcNS_11char_traitsIcEENS_9allocatorIcEEEES7_EENS5_IS8_EEE9push_backB8ne200100EOS8_, symObjAddr: 0x2E45C, symBinAddr: 0x10002E9A0, symSize: 0x174 }
  - { offset: 0x1E3F28, size: 0x8, addend: 0x0, symName: __ZNKSt3__112regex_traitsIcE9transformINS_11__wrap_iterIPcEEEENS_12basic_stringIcNS_11char_traitsIcEENS_9allocatorIcEEEET_SC_, symObjAddr: 0x2E5D0, symBinAddr: 0x10002EB14, symSize: 0x12C }
  - { offset: 0x1E41F6, size: 0x8, addend: 0x0, symName: __ZNSt3__128__begin_marked_subexpressionIcED1Ev, symObjAddr: 0x2E770, symBinAddr: 0x10002EC8C, symSize: 0x48 }
  - { offset: 0x1E46A6, size: 0x8, addend: 0x0, symName: __ZNSt3__128__begin_marked_subexpressionIcED1Ev, symObjAddr: 0x2E770, symBinAddr: 0x10002EC8C, symSize: 0x48 }
  - { offset: 0x1E46CA, size: 0x8, addend: 0x0, symName: __ZNSt3__128__begin_marked_subexpressionIcED1Ev, symObjAddr: 0x2E770, symBinAddr: 0x10002EC8C, symSize: 0x48 }
  - { offset: 0x1E46E8, size: 0x8, addend: 0x0, symName: __ZNSt3__128__begin_marked_subexpressionIcED1Ev, symObjAddr: 0x2E770, symBinAddr: 0x10002EC8C, symSize: 0x48 }
  - { offset: 0x1E472F, size: 0x8, addend: 0x0, symName: __ZNSt3__128__begin_marked_subexpressionIcED0Ev, symObjAddr: 0x2E7B8, symBinAddr: 0x10002ECD4, symSize: 0x48 }
  - { offset: 0x1E475F, size: 0x8, addend: 0x0, symName: __ZNSt3__128__begin_marked_subexpressionIcED0Ev, symObjAddr: 0x2E7B8, symBinAddr: 0x10002ECD4, symSize: 0x48 }
  - { offset: 0x1E477D, size: 0x8, addend: 0x0, symName: __ZNSt3__128__begin_marked_subexpressionIcED0Ev, symObjAddr: 0x2E7B8, symBinAddr: 0x10002ECD4, symSize: 0x48 }
  - { offset: 0x1E479B, size: 0x8, addend: 0x0, symName: __ZNSt3__128__begin_marked_subexpressionIcED0Ev, symObjAddr: 0x2E7B8, symBinAddr: 0x10002ECD4, symSize: 0x48 }
  - { offset: 0x1E47C6, size: 0x8, addend: 0x0, symName: __ZNKSt3__128__begin_marked_subexpressionIcE6__execERNS_7__stateIcEE, symObjAddr: 0x2E800, symBinAddr: 0x10002ED1C, symSize: 0x30 }
  - { offset: 0x1E4853, size: 0x8, addend: 0x0, symName: __ZNSt3__126__end_marked_subexpressionIcED1Ev, symObjAddr: 0x2E830, symBinAddr: 0x10002ED4C, symSize: 0x48 }
  - { offset: 0x1E4877, size: 0x8, addend: 0x0, symName: __ZNSt3__126__end_marked_subexpressionIcED1Ev, symObjAddr: 0x2E830, symBinAddr: 0x10002ED4C, symSize: 0x48 }
  - { offset: 0x1E4895, size: 0x8, addend: 0x0, symName: __ZNSt3__126__end_marked_subexpressionIcED1Ev, symObjAddr: 0x2E830, symBinAddr: 0x10002ED4C, symSize: 0x48 }
  - { offset: 0x1E48DC, size: 0x8, addend: 0x0, symName: __ZNSt3__126__end_marked_subexpressionIcED0Ev, symObjAddr: 0x2E878, symBinAddr: 0x10002ED94, symSize: 0x48 }
  - { offset: 0x1E490C, size: 0x8, addend: 0x0, symName: __ZNSt3__126__end_marked_subexpressionIcED0Ev, symObjAddr: 0x2E878, symBinAddr: 0x10002ED94, symSize: 0x48 }
  - { offset: 0x1E492A, size: 0x8, addend: 0x0, symName: __ZNSt3__126__end_marked_subexpressionIcED0Ev, symObjAddr: 0x2E878, symBinAddr: 0x10002ED94, symSize: 0x48 }
  - { offset: 0x1E4948, size: 0x8, addend: 0x0, symName: __ZNSt3__126__end_marked_subexpressionIcED0Ev, symObjAddr: 0x2E878, symBinAddr: 0x10002ED94, symSize: 0x48 }
  - { offset: 0x1E4973, size: 0x8, addend: 0x0, symName: __ZNKSt3__126__end_marked_subexpressionIcE6__execERNS_7__stateIcEE, symObjAddr: 0x2E8C0, symBinAddr: 0x10002EDDC, symSize: 0x38 }
  - { offset: 0x1E4C31, size: 0x8, addend: 0x0, symName: __ZNSt3__16__loopIcED0Ev, symObjAddr: 0x2EB34, symBinAddr: 0x10002F050, symSize: 0x68 }
  - { offset: 0x1E4D22, size: 0x8, addend: 0x0, symName: __ZNSt3__16__loopIcED1Ev, symObjAddr: 0x2EACC, symBinAddr: 0x10002EFE8, symSize: 0x68 }
  - { offset: 0x1E4E44, size: 0x8, addend: 0x0, symName: __ZNKSt3__16__loopIcE6__execERNS_7__stateIcEE, symObjAddr: 0x2EB9C, symBinAddr: 0x10002F0B8, symSize: 0x1F8 }
  - { offset: 0x1E4F79, size: 0x8, addend: 0x0, symName: __ZNKSt3__16__loopIcE12__exec_splitEbRNS_7__stateIcEE, symObjAddr: 0x2ED94, symBinAddr: 0x10002F2B0, symSize: 0xD8 }
  - { offset: 0x1E504D, size: 0x8, addend: 0x0, symName: __ZNSt3__117__owns_two_statesIcED1Ev, symObjAddr: 0x2EE6C, symBinAddr: 0x10002F388, symSize: 0x68 }
  - { offset: 0x1E50DB, size: 0x8, addend: 0x0, symName: __ZNSt3__117__owns_two_statesIcED0Ev, symObjAddr: 0x2EED4, symBinAddr: 0x10002F3F0, symSize: 0x68 }
  - { offset: 0x1E5175, size: 0x8, addend: 0x0, symName: __ZNSt3__117__repeat_one_loopIcED1Ev, symObjAddr: 0x2EF3C, symBinAddr: 0x10002F458, symSize: 0x4 }
  - { offset: 0x1E51A1, size: 0x8, addend: 0x0, symName: __ZNSt3__117__repeat_one_loopIcED0Ev, symObjAddr: 0x2EF40, symBinAddr: 0x10002F45C, symSize: 0x4 }
  - { offset: 0x1E51CD, size: 0x8, addend: 0x0, symName: __ZNKSt3__117__repeat_one_loopIcE6__execERNS_7__stateIcEE, symObjAddr: 0x2EF44, symBinAddr: 0x10002F460, symSize: 0x14 }
  - { offset: 0x1E523B, size: 0x8, addend: 0x0, symName: __ZNSt3__111__alternateIcED1Ev, symObjAddr: 0x2EF58, symBinAddr: 0x10002F474, symSize: 0x68 }
  - { offset: 0x1E52E9, size: 0x8, addend: 0x0, symName: __ZNSt3__111__alternateIcED0Ev, symObjAddr: 0x2EFC0, symBinAddr: 0x10002F4DC, symSize: 0x68 }
  - { offset: 0x1E53A3, size: 0x8, addend: 0x0, symName: __ZNKSt3__111__alternateIcE6__execERNS_7__stateIcEE, symObjAddr: 0x2F028, symBinAddr: 0x10002F544, symSize: 0xC }
  - { offset: 0x1E53D7, size: 0x8, addend: 0x0, symName: __ZNKSt3__111__alternateIcE12__exec_splitEbRNS_7__stateIcEE, symObjAddr: 0x2F034, symBinAddr: 0x10002F550, symSize: 0x24 }
  - { offset: 0x1E541F, size: 0x8, addend: 0x0, symName: __ZNSt3__121__empty_non_own_stateIcED1Ev, symObjAddr: 0x2F058, symBinAddr: 0x10002F574, symSize: 0x4 }
  - { offset: 0x1E544B, size: 0x8, addend: 0x0, symName: __ZNSt3__121__empty_non_own_stateIcED0Ev, symObjAddr: 0x2F05C, symBinAddr: 0x10002F578, symSize: 0x4 }
  - { offset: 0x1E5477, size: 0x8, addend: 0x0, symName: __ZNKSt3__121__empty_non_own_stateIcE6__execERNS_7__stateIcEE, symObjAddr: 0x2F060, symBinAddr: 0x10002F57C, symSize: 0x14 }
  - { offset: 0x1E57B8, size: 0x8, addend: 0x0, symName: __ZNSt3__111__match_anyIcED1Ev, symObjAddr: 0x2F62C, symBinAddr: 0x10002FB48, symSize: 0x48 }
  - { offset: 0x1E57DC, size: 0x8, addend: 0x0, symName: __ZNSt3__111__match_anyIcED1Ev, symObjAddr: 0x2F62C, symBinAddr: 0x10002FB48, symSize: 0x48 }
  - { offset: 0x1E57FA, size: 0x8, addend: 0x0, symName: __ZNSt3__111__match_anyIcED1Ev, symObjAddr: 0x2F62C, symBinAddr: 0x10002FB48, symSize: 0x48 }
  - { offset: 0x1E5841, size: 0x8, addend: 0x0, symName: __ZNSt3__111__match_anyIcED0Ev, symObjAddr: 0x2F674, symBinAddr: 0x10002FB90, symSize: 0x48 }
  - { offset: 0x1E5871, size: 0x8, addend: 0x0, symName: __ZNSt3__111__match_anyIcED0Ev, symObjAddr: 0x2F674, symBinAddr: 0x10002FB90, symSize: 0x48 }
  - { offset: 0x1E588F, size: 0x8, addend: 0x0, symName: __ZNSt3__111__match_anyIcED0Ev, symObjAddr: 0x2F674, symBinAddr: 0x10002FB90, symSize: 0x48 }
  - { offset: 0x1E58AD, size: 0x8, addend: 0x0, symName: __ZNSt3__111__match_anyIcED0Ev, symObjAddr: 0x2F674, symBinAddr: 0x10002FB90, symSize: 0x48 }
  - { offset: 0x1E58D8, size: 0x8, addend: 0x0, symName: __ZNKSt3__111__match_anyIcE6__execERNS_7__stateIcEE, symObjAddr: 0x2F6BC, symBinAddr: 0x10002FBD8, symSize: 0x40 }
  - { offset: 0x1E5929, size: 0x8, addend: 0x0, symName: __ZNSt3__111basic_regexIcNS_12regex_traitsIcEEE15__test_back_refEc, symObjAddr: 0x2F6FC, symBinAddr: 0x10002FC18, symSize: 0x60 }
  - { offset: 0x1E5A1D, size: 0x8, addend: 0x0, symName: __ZNSt3__111basic_regexIcNS_12regex_traitsIcEEE22__parse_ERE_expressionIPKcEET_S7_S7_, symObjAddr: 0x2F75C, symBinAddr: 0x10002FC78, symSize: 0x1F0 }
  - { offset: 0x1E5A28, size: 0x8, addend: 0x0, symName: __ZNSt3__111basic_regexIcNS_12regex_traitsIcEEE33__parse_one_char_or_coll_elem_EREIPKcEET_S7_S7_, symObjAddr: 0x2F94C, symBinAddr: 0x10002FE68, symSize: 0x158 }
  - { offset: 0x1E5C12, size: 0x8, addend: 0x0, symName: __ZNSt3__111basic_regexIcNS_12regex_traitsIcEEE23__parse_QUOTED_CHAR_EREIPKcEET_S7_S7_, symObjAddr: 0x2FAA4, symBinAddr: 0x10002FFC0, symSize: 0xD8 }
  - { offset: 0x1E5DC6, size: 0x8, addend: 0x0, symName: __ZNKSt3__111basic_regexIcNS_12regex_traitsIcEEE27__match_at_start_posix_subsINS_9allocatorINS_9sub_matchIPKcEEEEEEbS8_S8_RNS_13match_resultsIS8_T_EENS_15regex_constants15match_flag_typeEb, symObjAddr: 0x3088C, symBinAddr: 0x100030DA8, symSize: 0x5BC }
  - { offset: 0x1E7A32, size: 0x8, addend: 0x0, symName: __ZNKSt3__111basic_regexIcNS_12regex_traitsIcEEE29__match_at_start_posix_nosubsINS_9allocatorINS_9sub_matchIPKcEEEEEEbS8_S8_RNS_13match_resultsIS8_T_EENS_15regex_constants15match_flag_typeEb, symObjAddr: 0x2FFEC, symBinAddr: 0x100030508, symSize: 0x8A0 }
  - { offset: 0x1E97F3, size: 0x8, addend: 0x0, symName: __ZNSt3__16vectorINS_9sub_matchINS_11__wrap_iterIPKcEEEENS_9allocatorIS6_EEE8__appendEm, symObjAddr: 0x321F8, symBinAddr: 0x100032410, symSize: 0x1A0 }
  - { offset: 0x1EA1DA, size: 0x8, addend: 0x0, symName: __ZNSt3__15dequeINS_7__stateIcEENS_9allocatorIS2_EEE19__add_back_capacityEv, symObjAddr: 0x31018, symBinAddr: 0x100031534, symSize: 0x35C }
  - { offset: 0x1EAE64, size: 0x8, addend: 0x0, symName: __ZNSt3__15dequeINS_7__stateIcEENS_9allocatorIS2_EEE20__add_front_capacityEv, symObjAddr: 0x317F4, symBinAddr: 0x100031B94, symSize: 0x380 }
  - { offset: 0x1EBBFC, size: 0x8, addend: 0x0, symName: __ZNSt3__15dequeINS_7__stateIcEENS_9allocatorIS2_EEED1B8ne200100Ev, symObjAddr: 0x30FA4, symBinAddr: 0x1000314C0, symSize: 0x74 }
  - { offset: 0x1EBF3E, size: 0x8, addend: 0x0, symName: __ZNSt3__16vectorINS_9sub_matchIPKcEENS_9allocatorIS4_EEE18__assign_with_sizeB8ne200100IPS4_S9_EEvT_T0_l, symObjAddr: 0x31CFC, symBinAddr: 0x100031F14, symSize: 0x200 }
  - { offset: 0x1EC6EA, size: 0x8, addend: 0x0, symName: __ZNSt3__16vectorINS_4pairImPKcEENS_9allocatorIS4_EEE18__assign_with_sizeB8ne200100IPS4_S9_EEvT_T0_l, symObjAddr: 0x31EFC, symBinAddr: 0x100032114, symSize: 0x2FC }
  - { offset: 0x1EC707, size: 0x8, addend: 0x0, symName: __ZNSt3__16vectorINS_4pairImPKcEENS_9allocatorIS4_EEE18__assign_with_sizeB8ne200100IPS4_S9_EEvT_T0_l, symObjAddr: 0x31EFC, symBinAddr: 0x100032114, symSize: 0x2FC }
  - { offset: 0x1ECE74, size: 0x8, addend: 0x0, symName: __ZNSt3__16vectorINS_9sub_matchINS_11__wrap_iterIPKcEEEENS_9allocatorIS6_EEE8__appendEm, symObjAddr: 0x321F8, symBinAddr: 0x100032410, symSize: 0x1A0 }
  - { offset: 0x1ECEA7, size: 0x8, addend: 0x0, symName: __ZNSt3__15dequeINS_7__stateIcEENS_9allocatorIS2_EEE5clearEv, symObjAddr: 0x30E48, symBinAddr: 0x100031364, symSize: 0x15C }
  - { offset: 0x1ED7CB, size: 0x8, addend: 0x0, symName: __ZNSt3__114__split_bufferIPNS_7__stateIcEENS_9allocatorIS3_EEE12emplace_backIJRS3_EEEvDpOT_, symObjAddr: 0x31374, symBinAddr: 0x100031890, symSize: 0x17C }
  - { offset: 0x1EDF6E, size: 0x8, addend: 0x0, symName: __ZNSt3__114__split_bufferIPNS_7__stateIcEENS_9allocatorIS3_EEE13emplace_frontIJS3_EEEvDpOT_, symObjAddr: 0x3166C, symBinAddr: 0x100031A0C, symSize: 0x188 }
  - { offset: 0x1EDF86, size: 0x8, addend: 0x0, symName: __ZNSt3__114__split_bufferIPNS_7__stateIcEENS_9allocatorIS3_EEE13emplace_frontIJS3_EEEvDpOT_, symObjAddr: 0x3166C, symBinAddr: 0x100031A0C, symSize: 0x188 }
  - { offset: 0x1EE43B, size: 0x8, addend: 0x0, symName: __ZNSt3__15dequeINS_7__stateIcEENS_9allocatorIS2_EEE20__add_front_capacityEv, symObjAddr: 0x317F4, symBinAddr: 0x100031B94, symSize: 0x380 }
  - { offset: 0x1EE81D, size: 0x8, addend: 0x0, symName: __ZNSt3__16vectorINS_9sub_matchIPKcEENS_9allocatorIS4_EEE18__assign_with_sizeB8ne200100IPS4_S9_EEvT_T0_l, symObjAddr: 0x31CFC, symBinAddr: 0x100031F14, symSize: 0x200 }
  - { offset: 0x1EEC3D, size: 0x8, addend: 0x0, symName: __ZNSt3__110__function6__funcIZN7httplib6detail24parse_disposition_paramsERKNS_12basic_stringIcNS_11char_traitsIcEENS_9allocatorIcEEEERNS_8multimapIS9_S9_NS_4lessIS9_EENS7_INS_4pairISA_S9_EEEEEEEUlPKcSL_E_NS7_ISM_EEFvSL_SL_EED1Ev, symObjAddr: 0x323AC, symBinAddr: 0x1000325B0, symSize: 0x4 }
  - { offset: 0x1EEC48, size: 0x8, addend: 0x0, symName: __ZNSt3__110__function6__funcIZN7httplib6detail24parse_disposition_paramsERKNS_12basic_stringIcNS_11char_traitsIcEENS_9allocatorIcEEEERNS_8multimapIS9_S9_NS_4lessIS9_EENS7_INS_4pairISA_S9_EEEEEEEUlPKcSL_E_NS7_ISM_EEFvSL_SL_EED1Ev, symObjAddr: 0x323AC, symBinAddr: 0x1000325B0, symSize: 0x4 }
  - { offset: 0x1EEC74, size: 0x8, addend: 0x0, symName: __ZNSt3__110__function6__funcIZN7httplib6detail24parse_disposition_paramsERKNS_12basic_stringIcNS_11char_traitsIcEENS_9allocatorIcEEEERNS_8multimapIS9_S9_NS_4lessIS9_EENS7_INS_4pairISA_S9_EEEEEEEUlPKcSL_E_NS7_ISM_EEFvSL_SL_EED0Ev, symObjAddr: 0x323B0, symBinAddr: 0x1000325B4, symSize: 0x4 }
  - { offset: 0x1EED8B, size: 0x8, addend: 0x0, symName: __ZNKSt3__110__function6__funcIZN7httplib6detail24parse_disposition_paramsERKNS_12basic_stringIcNS_11char_traitsIcEENS_9allocatorIcEEEERNS_8multimapIS9_S9_NS_4lessIS9_EENS7_INS_4pairISA_S9_EEEEEEEUlPKcSL_E_NS7_ISM_EEFvSL_SL_EE7__cloneEv, symObjAddr: 0x323B4, symBinAddr: 0x1000325B8, symSize: 0x38 }
  - { offset: 0x1EEED8, size: 0x8, addend: 0x0, symName: __ZNKSt3__110__function6__funcIZN7httplib6detail24parse_disposition_paramsERKNS_12basic_stringIcNS_11char_traitsIcEENS_9allocatorIcEEEERNS_8multimapIS9_S9_NS_4lessIS9_EENS7_INS_4pairISA_S9_EEEEEEEUlPKcSL_E_NS7_ISM_EEFvSL_SL_EE7__cloneEPNS0_6__baseISO_EE, symObjAddr: 0x323EC, symBinAddr: 0x1000325F0, symSize: 0x18 }
  - { offset: 0x1EEF01, size: 0x8, addend: 0x0, symName: __ZNKSt3__110__function6__funcIZN7httplib6detail24parse_disposition_paramsERKNS_12basic_stringIcNS_11char_traitsIcEENS_9allocatorIcEEEERNS_8multimapIS9_S9_NS_4lessIS9_EENS7_INS_4pairISA_S9_EEEEEEEUlPKcSL_E_NS7_ISM_EEFvSL_SL_EE7__cloneEPNS0_6__baseISO_EE, symObjAddr: 0x323EC, symBinAddr: 0x1000325F0, symSize: 0x18 }
  - { offset: 0x1EEF2F, size: 0x8, addend: 0x0, symName: __ZNKSt3__110__function6__funcIZN7httplib6detail24parse_disposition_paramsERKNS_12basic_stringIcNS_11char_traitsIcEENS_9allocatorIcEEEERNS_8multimapIS9_S9_NS_4lessIS9_EENS7_INS_4pairISA_S9_EEEEEEEUlPKcSL_E_NS7_ISM_EEFvSL_SL_EE7__cloneEPNS0_6__baseISO_EE, symObjAddr: 0x323EC, symBinAddr: 0x1000325F0, symSize: 0x18 }
  - { offset: 0x1EEFBE, size: 0x8, addend: 0x0, symName: __ZNSt3__110__function6__funcIZN7httplib6detail24parse_disposition_paramsERKNS_12basic_stringIcNS_11char_traitsIcEENS_9allocatorIcEEEERNS_8multimapIS9_S9_NS_4lessIS9_EENS7_INS_4pairISA_S9_EEEEEEEUlPKcSL_E_NS7_ISM_EEFvSL_SL_EE7destroyEv, symObjAddr: 0x32404, symBinAddr: 0x100032608, symSize: 0x4 }
  - { offset: 0x1EF015, size: 0x8, addend: 0x0, symName: __ZNSt3__110__function6__funcIZN7httplib6detail24parse_disposition_paramsERKNS_12basic_stringIcNS_11char_traitsIcEENS_9allocatorIcEEEERNS_8multimapIS9_S9_NS_4lessIS9_EENS7_INS_4pairISA_S9_EEEEEEEUlPKcSL_E_NS7_ISM_EEFvSL_SL_EE18destroy_deallocateEv, symObjAddr: 0x32408, symBinAddr: 0x10003260C, symSize: 0x4 }
  - { offset: 0x1EF048, size: 0x8, addend: 0x0, symName: __ZNSt3__110__function6__funcIZN7httplib6detail24parse_disposition_paramsERKNS_12basic_stringIcNS_11char_traitsIcEENS_9allocatorIcEEEERNS_8multimapIS9_S9_NS_4lessIS9_EENS7_INS_4pairISA_S9_EEEEEEEUlPKcSL_E_NS7_ISM_EEFvSL_SL_EE18destroy_deallocateEv, symObjAddr: 0x32408, symBinAddr: 0x10003260C, symSize: 0x4 }
  - { offset: 0x1EF06B, size: 0x8, addend: 0x0, symName: __ZNSt3__110__function6__funcIZN7httplib6detail24parse_disposition_paramsERKNS_12basic_stringIcNS_11char_traitsIcEENS_9allocatorIcEEEERNS_8multimapIS9_S9_NS_4lessIS9_EENS7_INS_4pairISA_S9_EEEEEEEUlPKcSL_E_NS7_ISM_EEFvSL_SL_EE18destroy_deallocateEv, symObjAddr: 0x32408, symBinAddr: 0x10003260C, symSize: 0x4 }
  - { offset: 0x1EF09E, size: 0x8, addend: 0x0, symName: __ZNSt3__110__function6__funcIZN7httplib6detail24parse_disposition_paramsERKNS_12basic_stringIcNS_11char_traitsIcEENS_9allocatorIcEEEERNS_8multimapIS9_S9_NS_4lessIS9_EENS7_INS_4pairISA_S9_EEEEEEEUlPKcSL_E_NS7_ISM_EEFvSL_SL_EE18destroy_deallocateEv, symObjAddr: 0x32408, symBinAddr: 0x10003260C, symSize: 0x4 }
  - { offset: 0x1EF13A, size: 0x8, addend: 0x0, symName: __ZNSt3__110__function6__funcIZN7httplib6detail24parse_disposition_paramsERKNS_12basic_stringIcNS_11char_traitsIcEENS_9allocatorIcEEEERNS_8multimapIS9_S9_NS_4lessIS9_EENS7_INS_4pairISA_S9_EEEEEEEUlPKcSL_E_NS7_ISM_EEFvSL_SL_EEclEOSL_SQ_, symObjAddr: 0x3240C, symBinAddr: 0x100032610, symSize: 0x10 }
  - { offset: 0x1EF20D, size: 0x8, addend: 0x0, symName: __ZNKSt3__110__function6__funcIZN7httplib6detail24parse_disposition_paramsERKNS_12basic_stringIcNS_11char_traitsIcEENS_9allocatorIcEEEERNS_8multimapIS9_S9_NS_4lessIS9_EENS7_INS_4pairISA_S9_EEEEEEEUlPKcSL_E_NS7_ISM_EEFvSL_SL_EE6targetERKSt9type_info, symObjAddr: 0x3241C, symBinAddr: 0x100032620, symSize: 0x64 }
  - { offset: 0x1EF2C0, size: 0x8, addend: 0x0, symName: __ZNKSt3__110__function6__funcIZN7httplib6detail24parse_disposition_paramsERKNS_12basic_stringIcNS_11char_traitsIcEENS_9allocatorIcEEEERNS_8multimapIS9_S9_NS_4lessIS9_EENS7_INS_4pairISA_S9_EEEEEEEUlPKcSL_E_NS7_ISM_EEFvSL_SL_EE11target_typeEv, symObjAddr: 0x32480, symBinAddr: 0x100032684, symSize: 0xC }
  - { offset: 0x1EF627, size: 0x8, addend: 0x0, symName: __ZNSt3__16__treeINS_12basic_stringIcNS_11char_traitsIcEENS_9allocatorIcEEEENS_4lessIS6_EENS4_IS6_EEE25__emplace_unique_key_argsIS6_JRKS6_EEENS_4pairINS_15__tree_iteratorIS6_PNS_11__tree_nodeIS6_PvEElEEbEERKT_DpOT0_, symObjAddr: 0x329D4, symBinAddr: 0x100032BD8, symSize: 0x190 }
  - { offset: 0x1EFBBC, size: 0x8, addend: 0x0, symName: __ZNSt3__110__function6__funcIZZN7httplib6detail24parse_disposition_paramsERKNS_12basic_stringIcNS_11char_traitsIcEENS_9allocatorIcEEEERNS_8multimapIS9_S9_NS_4lessIS9_EENS7_INS_4pairISA_S9_EEEEEEENKUlPKcSL_E_clESL_SL_EUlSL_SL_E_NS7_ISN_EEFvSL_SL_EED1Ev, symObjAddr: 0x32B64, symBinAddr: 0x100032D68, symSize: 0x4 }
  - { offset: 0x1EFBE8, size: 0x8, addend: 0x0, symName: __ZNSt3__110__function6__funcIZZN7httplib6detail24parse_disposition_paramsERKNS_12basic_stringIcNS_11char_traitsIcEENS_9allocatorIcEEEERNS_8multimapIS9_S9_NS_4lessIS9_EENS7_INS_4pairISA_S9_EEEEEEENKUlPKcSL_E_clESL_SL_EUlSL_SL_E_NS7_ISN_EEFvSL_SL_EED0Ev, symObjAddr: 0x32B68, symBinAddr: 0x100032D6C, symSize: 0x4 }
  - { offset: 0x1EFCFF, size: 0x8, addend: 0x0, symName: __ZNKSt3__110__function6__funcIZZN7httplib6detail24parse_disposition_paramsERKNS_12basic_stringIcNS_11char_traitsIcEENS_9allocatorIcEEEERNS_8multimapIS9_S9_NS_4lessIS9_EENS7_INS_4pairISA_S9_EEEEEEENKUlPKcSL_E_clESL_SL_EUlSL_SL_E_NS7_ISN_EEFvSL_SL_EE7__cloneEv, symObjAddr: 0x32B6C, symBinAddr: 0x100032D70, symSize: 0x38 }
  - { offset: 0x1EFE4C, size: 0x8, addend: 0x0, symName: __ZNKSt3__110__function6__funcIZZN7httplib6detail24parse_disposition_paramsERKNS_12basic_stringIcNS_11char_traitsIcEENS_9allocatorIcEEEERNS_8multimapIS9_S9_NS_4lessIS9_EENS7_INS_4pairISA_S9_EEEEEEENKUlPKcSL_E_clESL_SL_EUlSL_SL_E_NS7_ISN_EEFvSL_SL_EE7__cloneEPNS0_6__baseISP_EE, symObjAddr: 0x32BA4, symBinAddr: 0x100032DA8, symSize: 0x18 }
  - { offset: 0x1EFE75, size: 0x8, addend: 0x0, symName: __ZNKSt3__110__function6__funcIZZN7httplib6detail24parse_disposition_paramsERKNS_12basic_stringIcNS_11char_traitsIcEENS_9allocatorIcEEEERNS_8multimapIS9_S9_NS_4lessIS9_EENS7_INS_4pairISA_S9_EEEEEEENKUlPKcSL_E_clESL_SL_EUlSL_SL_E_NS7_ISN_EEFvSL_SL_EE7__cloneEPNS0_6__baseISP_EE, symObjAddr: 0x32BA4, symBinAddr: 0x100032DA8, symSize: 0x18 }
  - { offset: 0x1EFEA3, size: 0x8, addend: 0x0, symName: __ZNKSt3__110__function6__funcIZZN7httplib6detail24parse_disposition_paramsERKNS_12basic_stringIcNS_11char_traitsIcEENS_9allocatorIcEEEERNS_8multimapIS9_S9_NS_4lessIS9_EENS7_INS_4pairISA_S9_EEEEEEENKUlPKcSL_E_clESL_SL_EUlSL_SL_E_NS7_ISN_EEFvSL_SL_EE7__cloneEPNS0_6__baseISP_EE, symObjAddr: 0x32BA4, symBinAddr: 0x100032DA8, symSize: 0x18 }
  - { offset: 0x1EFF32, size: 0x8, addend: 0x0, symName: __ZNSt3__110__function6__funcIZZN7httplib6detail24parse_disposition_paramsERKNS_12basic_stringIcNS_11char_traitsIcEENS_9allocatorIcEEEERNS_8multimapIS9_S9_NS_4lessIS9_EENS7_INS_4pairISA_S9_EEEEEEENKUlPKcSL_E_clESL_SL_EUlSL_SL_E_NS7_ISN_EEFvSL_SL_EE7destroyEv, symObjAddr: 0x32BBC, symBinAddr: 0x100032DC0, symSize: 0x4 }
  - { offset: 0x1EFF89, size: 0x8, addend: 0x0, symName: __ZNSt3__110__function6__funcIZZN7httplib6detail24parse_disposition_paramsERKNS_12basic_stringIcNS_11char_traitsIcEENS_9allocatorIcEEEERNS_8multimapIS9_S9_NS_4lessIS9_EENS7_INS_4pairISA_S9_EEEEEEENKUlPKcSL_E_clESL_SL_EUlSL_SL_E_NS7_ISN_EEFvSL_SL_EE18destroy_deallocateEv, symObjAddr: 0x32BC0, symBinAddr: 0x100032DC4, symSize: 0x4 }
  - { offset: 0x1EFFBC, size: 0x8, addend: 0x0, symName: __ZNSt3__110__function6__funcIZZN7httplib6detail24parse_disposition_paramsERKNS_12basic_stringIcNS_11char_traitsIcEENS_9allocatorIcEEEERNS_8multimapIS9_S9_NS_4lessIS9_EENS7_INS_4pairISA_S9_EEEEEEENKUlPKcSL_E_clESL_SL_EUlSL_SL_E_NS7_ISN_EEFvSL_SL_EE18destroy_deallocateEv, symObjAddr: 0x32BC0, symBinAddr: 0x100032DC4, symSize: 0x4 }
  - { offset: 0x1EFFDF, size: 0x8, addend: 0x0, symName: __ZNSt3__110__function6__funcIZZN7httplib6detail24parse_disposition_paramsERKNS_12basic_stringIcNS_11char_traitsIcEENS_9allocatorIcEEEERNS_8multimapIS9_S9_NS_4lessIS9_EENS7_INS_4pairISA_S9_EEEEEEENKUlPKcSL_E_clESL_SL_EUlSL_SL_E_NS7_ISN_EEFvSL_SL_EE18destroy_deallocateEv, symObjAddr: 0x32BC0, symBinAddr: 0x100032DC4, symSize: 0x4 }
  - { offset: 0x1F0012, size: 0x8, addend: 0x0, symName: __ZNSt3__110__function6__funcIZZN7httplib6detail24parse_disposition_paramsERKNS_12basic_stringIcNS_11char_traitsIcEENS_9allocatorIcEEEERNS_8multimapIS9_S9_NS_4lessIS9_EENS7_INS_4pairISA_S9_EEEEEEENKUlPKcSL_E_clESL_SL_EUlSL_SL_E_NS7_ISN_EEFvSL_SL_EE18destroy_deallocateEv, symObjAddr: 0x32BC0, symBinAddr: 0x100032DC4, symSize: 0x4 }
  - { offset: 0x1F0138, size: 0x8, addend: 0x0, symName: __ZNSt3__110__function6__funcIZZN7httplib6detail24parse_disposition_paramsERKNS_12basic_stringIcNS_11char_traitsIcEENS_9allocatorIcEEEERNS_8multimapIS9_S9_NS_4lessIS9_EENS7_INS_4pairISA_S9_EEEEEEENKUlPKcSL_E_clESL_SL_EUlSL_SL_E_NS7_ISN_EEFvSL_SL_EEclEOSL_SR_, symObjAddr: 0x32BC4, symBinAddr: 0x100032DC8, symSize: 0x38 }
  - { offset: 0x1F0181, size: 0x8, addend: 0x0, symName: __ZNSt3__110__function6__funcIZZN7httplib6detail24parse_disposition_paramsERKNS_12basic_stringIcNS_11char_traitsIcEENS_9allocatorIcEEEERNS_8multimapIS9_S9_NS_4lessIS9_EENS7_INS_4pairISA_S9_EEEEEEENKUlPKcSL_E_clESL_SL_EUlSL_SL_E_NS7_ISN_EEFvSL_SL_EEclEOSL_SR_, symObjAddr: 0x32BC4, symBinAddr: 0x100032DC8, symSize: 0x38 }
  - { offset: 0x1F01B1, size: 0x8, addend: 0x0, symName: __ZNSt3__110__function6__funcIZZN7httplib6detail24parse_disposition_paramsERKNS_12basic_stringIcNS_11char_traitsIcEENS_9allocatorIcEEEERNS_8multimapIS9_S9_NS_4lessIS9_EENS7_INS_4pairISA_S9_EEEEEEENKUlPKcSL_E_clESL_SL_EUlSL_SL_E_NS7_ISN_EEFvSL_SL_EEclEOSL_SR_, symObjAddr: 0x32BC4, symBinAddr: 0x100032DC8, symSize: 0x38 }
  - { offset: 0x1F01E0, size: 0x8, addend: 0x0, symName: __ZNSt3__110__function6__funcIZZN7httplib6detail24parse_disposition_paramsERKNS_12basic_stringIcNS_11char_traitsIcEENS_9allocatorIcEEEERNS_8multimapIS9_S9_NS_4lessIS9_EENS7_INS_4pairISA_S9_EEEEEEENKUlPKcSL_E_clESL_SL_EUlSL_SL_E_NS7_ISN_EEFvSL_SL_EEclEOSL_SR_, symObjAddr: 0x32BC4, symBinAddr: 0x100032DC8, symSize: 0x38 }
  - { offset: 0x1F0210, size: 0x8, addend: 0x0, symName: __ZNSt3__110__function6__funcIZZN7httplib6detail24parse_disposition_paramsERKNS_12basic_stringIcNS_11char_traitsIcEENS_9allocatorIcEEEERNS_8multimapIS9_S9_NS_4lessIS9_EENS7_INS_4pairISA_S9_EEEEEEENKUlPKcSL_E_clESL_SL_EUlSL_SL_E_NS7_ISN_EEFvSL_SL_EEclEOSL_SR_, symObjAddr: 0x32BC4, symBinAddr: 0x100032DC8, symSize: 0x38 }
  - { offset: 0x1F0405, size: 0x8, addend: 0x0, symName: __ZNSt3__112basic_stringIcNS_11char_traitsIcEENS_9allocatorIcEEE16__assign_trivialB8ne200100IPKcS8_EEvT_T0_m, symObjAddr: 0x32C6C, symBinAddr: 0x100032E70, symSize: 0x1E0 }
  - { offset: 0x1F0848, size: 0x8, addend: 0x0, symName: __ZNSt3__110__function12__value_funcIFbPKcmmmEE4swapB8ne200100ERS5_, symObjAddr: 0x32E4C, symBinAddr: 0x100033050, symSize: 0x198 }
  - { offset: 0x1F0865, size: 0x8, addend: 0x0, symName: __ZNKSt3__110__function6__funcIZZN7httplib6detail24parse_disposition_paramsERKNS_12basic_stringIcNS_11char_traitsIcEENS_9allocatorIcEEEERNS_8multimapIS9_S9_NS_4lessIS9_EENS7_INS_4pairISA_S9_EEEEEEENKUlPKcSL_E_clESL_SL_EUlSL_SL_E_NS7_ISN_EEFvSL_SL_EE6targetERKSt9type_info, symObjAddr: 0x32BFC, symBinAddr: 0x100032E00, symSize: 0x64 }
  - { offset: 0x1F0918, size: 0x8, addend: 0x0, symName: __ZNKSt3__110__function6__funcIZZN7httplib6detail24parse_disposition_paramsERKNS_12basic_stringIcNS_11char_traitsIcEENS_9allocatorIcEEEERNS_8multimapIS9_S9_NS_4lessIS9_EENS7_INS_4pairISA_S9_EEEEEEENKUlPKcSL_E_clESL_SL_EUlSL_SL_E_NS7_ISN_EEFvSL_SL_EE11target_typeEv, symObjAddr: 0x32C60, symBinAddr: 0x100032E64, symSize: 0xC }
  - { offset: 0x1F099A, size: 0x8, addend: 0x0, symName: __ZNSt3__110__function6__funcIZNK7httplib6Server17read_content_coreERNS2_6StreamERNS2_7RequestERNS2_8ResponseENS_8functionIFbPKcmEEENSA_IFbRKNS2_8FormDataEEEESE_EUlSC_mmmE0_NS_9allocatorISK_EEFbSC_mmmEED1Ev, symObjAddr: 0x32FE4, symBinAddr: 0x1000331E8, symSize: 0x58 }
  - { offset: 0x1F0AF8, size: 0x8, addend: 0x0, symName: __ZNSt3__110__function6__funcIZNK7httplib6Server17read_content_coreERNS2_6StreamERNS2_7RequestERNS2_8ResponseENS_8functionIFbPKcmEEENSA_IFbRKNS2_8FormDataEEEESE_EUlSC_mmmE0_NS_9allocatorISK_EEFbSC_mmmEED0Ev, symObjAddr: 0x3303C, symBinAddr: 0x100033240, symSize: 0x58 }
  - { offset: 0x1F0E8B, size: 0x8, addend: 0x0, symName: __ZNKSt3__110__function6__funcIZNK7httplib6Server17read_content_coreERNS2_6StreamERNS2_7RequestERNS2_8ResponseENS_8functionIFbPKcmEEENSA_IFbRKNS2_8FormDataEEEESE_EUlSC_mmmE0_NS_9allocatorISK_EEFbSC_mmmEE7__cloneEv, symObjAddr: 0x33094, symBinAddr: 0x100033298, symSize: 0x94 }
  - { offset: 0x1F123C, size: 0x8, addend: 0x0, symName: __ZNKSt3__110__function6__funcIZNK7httplib6Server17read_content_coreERNS2_6StreamERNS2_7RequestERNS2_8ResponseENS_8functionIFbPKcmEEENSA_IFbRKNS2_8FormDataEEEESE_EUlSC_mmmE0_NS_9allocatorISK_EEFbSC_mmmEE7__cloneEPNS0_6__baseISN_EE, symObjAddr: 0x33128, symBinAddr: 0x10003332C, symSize: 0x7C }
  - { offset: 0x1F1403, size: 0x8, addend: 0x0, symName: __ZNSt3__110__function6__funcIZNK7httplib6Server17read_content_coreERNS2_6StreamERNS2_7RequestERNS2_8ResponseENS_8functionIFbPKcmEEENSA_IFbRKNS2_8FormDataEEEESE_EUlSC_mmmE0_NS_9allocatorISK_EEFbSC_mmmEE7destroyEv, symObjAddr: 0x331A4, symBinAddr: 0x1000333A8, symSize: 0x38 }
  - { offset: 0x1F151A, size: 0x8, addend: 0x0, symName: __ZNSt3__110__function6__funcIZNK7httplib6Server17read_content_coreERNS2_6StreamERNS2_7RequestERNS2_8ResponseENS_8functionIFbPKcmEEENSA_IFbRKNS2_8FormDataEEEESE_EUlSC_mmmE0_NS_9allocatorISK_EEFbSC_mmmEE18destroy_deallocateEv, symObjAddr: 0x331DC, symBinAddr: 0x1000333E0, symSize: 0x4C }
  - { offset: 0x1F17B2, size: 0x8, addend: 0x0, symName: __ZNSt3__110__function6__funcIZNK7httplib6Server17read_content_coreERNS2_6StreamERNS2_7RequestERNS2_8ResponseENS_8functionIFbPKcmEEENSA_IFbRKNS2_8FormDataEEEESE_EUlSC_mmmE0_NS_9allocatorISK_EEFbSC_mmmEEclEOSC_OmSQ_SQ_, symObjAddr: 0x33228, symBinAddr: 0x10003342C, symSize: 0x44 }
  - { offset: 0x1F1950, size: 0x8, addend: 0x0, symName: __ZNKSt3__110__function6__funcIZNK7httplib6Server17read_content_coreERNS2_6StreamERNS2_7RequestERNS2_8ResponseENS_8functionIFbPKcmEEENSA_IFbRKNS2_8FormDataEEEESE_EUlSC_mmmE0_NS_9allocatorISK_EEFbSC_mmmEE6targetERKSt9type_info, symObjAddr: 0x3326C, symBinAddr: 0x100033470, symSize: 0x64 }
  - { offset: 0x1F195B, size: 0x8, addend: 0x0, symName: __ZNKSt3__110__function6__funcIZNK7httplib6Server17read_content_coreERNS2_6StreamERNS2_7RequestERNS2_8ResponseENS_8functionIFbPKcmEEENSA_IFbRKNS2_8FormDataEEEESE_EUlSC_mmmE0_NS_9allocatorISK_EEFbSC_mmmEE6targetERKSt9type_info, symObjAddr: 0x3326C, symBinAddr: 0x100033470, symSize: 0x64 }
  - { offset: 0x1F1A0E, size: 0x8, addend: 0x0, symName: __ZNKSt3__110__function6__funcIZNK7httplib6Server17read_content_coreERNS2_6StreamERNS2_7RequestERNS2_8ResponseENS_8functionIFbPKcmEEENSA_IFbRKNS2_8FormDataEEEESE_EUlSC_mmmE0_NS_9allocatorISK_EEFbSC_mmmEE11target_typeEv, symObjAddr: 0x332D0, symBinAddr: 0x1000334D4, symSize: 0xC }
  - { offset: 0x1F1EE3, size: 0x8, addend: 0x0, symName: __ZZN7httplib6detail12read_contentINS_7RequestEEEbRNS_6StreamERT_mRiNSt3__18functionIFbmmEEENS9_IFbPKcmmmEEEbENKUlRKSF_E_clESH_, symObjAddr: 0x33650, symBinAddr: 0x100033854, symSize: 0x6F8 }
  - { offset: 0x1F32A7, size: 0x8, addend: 0x0, symName: __ZNSt3__110__function6__funcIZN7httplib6detail24prepare_content_receiverINS2_7RequestEZNS3_12read_contentIS5_EEbRNS2_6StreamERT_mRiNS_8functionIFbmmEEENSC_IFbPKcmmmEEEbEUlRKSI_E_EEbSA_SB_SI_bT0_EUlSG_mmmE_NS_9allocatorISN_EESH_ED1Ev, symObjAddr: 0x33D48, symBinAddr: 0x100033F4C, symSize: 0x4 }
  - { offset: 0x1F32D3, size: 0x8, addend: 0x0, symName: __ZNSt3__110__function6__funcIZN7httplib6detail24prepare_content_receiverINS2_7RequestEZNS3_12read_contentIS5_EEbRNS2_6StreamERT_mRiNS_8functionIFbmmEEENSC_IFbPKcmmmEEEbEUlRKSI_E_EEbSA_SB_SI_bT0_EUlSG_mmmE_NS_9allocatorISN_EESH_ED0Ev, symObjAddr: 0x33D4C, symBinAddr: 0x100033F50, symSize: 0x4 }
  - { offset: 0x1F33EA, size: 0x8, addend: 0x0, symName: __ZNKSt3__110__function6__funcIZN7httplib6detail24prepare_content_receiverINS2_7RequestEZNS3_12read_contentIS5_EEbRNS2_6StreamERT_mRiNS_8functionIFbmmEEENSC_IFbPKcmmmEEEbEUlRKSI_E_EEbSA_SB_SI_bT0_EUlSG_mmmE_NS_9allocatorISN_EESH_E7__cloneEv, symObjAddr: 0x33D50, symBinAddr: 0x100033F54, symSize: 0x38 }
  - { offset: 0x1F35FB, size: 0x8, addend: 0x0, symName: __ZNKSt3__110__function6__funcIZN7httplib6detail24prepare_content_receiverINS2_7RequestEZNS3_12read_contentIS5_EEbRNS2_6StreamERT_mRiNS_8functionIFbmmEEENSC_IFbPKcmmmEEEbEUlRKSI_E_EEbSA_SB_SI_bT0_EUlSG_mmmE_NS_9allocatorISN_EESH_E7__cloneEPNS0_6__baseISH_EE, symObjAddr: 0x33D88, symBinAddr: 0x100033F8C, symSize: 0x18 }
  - { offset: 0x1F3631, size: 0x8, addend: 0x0, symName: __ZNKSt3__110__function6__funcIZN7httplib6detail24prepare_content_receiverINS2_7RequestEZNS3_12read_contentIS5_EEbRNS2_6StreamERT_mRiNS_8functionIFbmmEEENSC_IFbPKcmmmEEEbEUlRKSI_E_EEbSA_SB_SI_bT0_EUlSG_mmmE_NS_9allocatorISN_EESH_E7__cloneEPNS0_6__baseISH_EE, symObjAddr: 0x33D88, symBinAddr: 0x100033F8C, symSize: 0x18 }
  - { offset: 0x1F365F, size: 0x8, addend: 0x0, symName: __ZNKSt3__110__function6__funcIZN7httplib6detail24prepare_content_receiverINS2_7RequestEZNS3_12read_contentIS5_EEbRNS2_6StreamERT_mRiNS_8functionIFbmmEEENSC_IFbPKcmmmEEEbEUlRKSI_E_EEbSA_SB_SI_bT0_EUlSG_mmmE_NS_9allocatorISN_EESH_E7__cloneEPNS0_6__baseISH_EE, symObjAddr: 0x33D88, symBinAddr: 0x100033F8C, symSize: 0x18 }
  - { offset: 0x1F36EE, size: 0x8, addend: 0x0, symName: __ZNSt3__110__function6__funcIZN7httplib6detail24prepare_content_receiverINS2_7RequestEZNS3_12read_contentIS5_EEbRNS2_6StreamERT_mRiNS_8functionIFbmmEEENSC_IFbPKcmmmEEEbEUlRKSI_E_EEbSA_SB_SI_bT0_EUlSG_mmmE_NS_9allocatorISN_EESH_E7destroyEv, symObjAddr: 0x33DA0, symBinAddr: 0x100033FA4, symSize: 0x4 }
  - { offset: 0x1F3745, size: 0x8, addend: 0x0, symName: __ZNSt3__110__function6__funcIZN7httplib6detail24prepare_content_receiverINS2_7RequestEZNS3_12read_contentIS5_EEbRNS2_6StreamERT_mRiNS_8functionIFbmmEEENSC_IFbPKcmmmEEEbEUlRKSI_E_EEbSA_SB_SI_bT0_EUlSG_mmmE_NS_9allocatorISN_EESH_E18destroy_deallocateEv, symObjAddr: 0x33DA4, symBinAddr: 0x100033FA8, symSize: 0x4 }
  - { offset: 0x1F3778, size: 0x8, addend: 0x0, symName: __ZNSt3__110__function6__funcIZN7httplib6detail24prepare_content_receiverINS2_7RequestEZNS3_12read_contentIS5_EEbRNS2_6StreamERT_mRiNS_8functionIFbmmEEENSC_IFbPKcmmmEEEbEUlRKSI_E_EEbSA_SB_SI_bT0_EUlSG_mmmE_NS_9allocatorISN_EESH_E18destroy_deallocateEv, symObjAddr: 0x33DA4, symBinAddr: 0x100033FA8, symSize: 0x4 }
  - { offset: 0x1F379B, size: 0x8, addend: 0x0, symName: __ZNSt3__110__function6__funcIZN7httplib6detail24prepare_content_receiverINS2_7RequestEZNS3_12read_contentIS5_EEbRNS2_6StreamERT_mRiNS_8functionIFbmmEEENSC_IFbPKcmmmEEEbEUlRKSI_E_EEbSA_SB_SI_bT0_EUlSG_mmmE_NS_9allocatorISN_EESH_E18destroy_deallocateEv, symObjAddr: 0x33DA4, symBinAddr: 0x100033FA8, symSize: 0x4 }
  - { offset: 0x1F37CE, size: 0x8, addend: 0x0, symName: __ZNSt3__110__function6__funcIZN7httplib6detail24prepare_content_receiverINS2_7RequestEZNS3_12read_contentIS5_EEbRNS2_6StreamERT_mRiNS_8functionIFbmmEEENSC_IFbPKcmmmEEEbEUlRKSI_E_EEbSA_SB_SI_bT0_EUlSG_mmmE_NS_9allocatorISN_EESH_E18destroy_deallocateEv, symObjAddr: 0x33DA4, symBinAddr: 0x100033FA8, symSize: 0x4 }
  - { offset: 0x1F3B93, size: 0x8, addend: 0x0, symName: __ZNSt3__110__function6__funcIZN7httplib6detail24prepare_content_receiverINS2_7RequestEZNS3_12read_contentIS5_EEbRNS2_6StreamERT_mRiNS_8functionIFbmmEEENSC_IFbPKcmmmEEEbEUlRKSI_E_EEbSA_SB_SI_bT0_EUlSG_mmmE_NS_9allocatorISN_EESH_EclEOSG_OmSS_SS_, symObjAddr: 0x33DA8, symBinAddr: 0x100033FAC, symSize: 0x118 }
  - { offset: 0x1F400E, size: 0x8, addend: 0x0, symName: __ZNKSt3__110__function6__funcIZN7httplib6detail24prepare_content_receiverINS2_7RequestEZNS3_12read_contentIS5_EEbRNS2_6StreamERT_mRiNS_8functionIFbmmEEENSC_IFbPKcmmmEEEbEUlRKSI_E_EEbSA_SB_SI_bT0_EUlSG_mmmE_NS_9allocatorISN_EESH_E6targetERKSt9type_info, symObjAddr: 0x33EC0, symBinAddr: 0x1000340C4, symSize: 0x64 }
  - { offset: 0x1F40C1, size: 0x8, addend: 0x0, symName: __ZNKSt3__110__function6__funcIZN7httplib6detail24prepare_content_receiverINS2_7RequestEZNS3_12read_contentIS5_EEbRNS2_6StreamERT_mRiNS_8functionIFbmmEEENSC_IFbPKcmmmEEEbEUlRKSI_E_EEbSA_SB_SI_bT0_EUlSG_mmmE_NS_9allocatorISN_EESH_E11target_typeEv, symObjAddr: 0x33F24, symBinAddr: 0x100034128, symSize: 0xC }
  - { offset: 0x1F40E8, size: 0x8, addend: 0x0, symName: __ZNSt3__110__function6__funcIZZN7httplib6detail24prepare_content_receiverINS2_7RequestEZNS3_12read_contentIS5_EEbRNS2_6StreamERT_mRiNS_8functionIFbmmEEENSC_IFbPKcmmmEEEbEUlRKSI_E_EEbSA_SB_SI_bT0_ENKUlSG_mmmE_clESG_mmmEUlSG_mE_NS_9allocatorISO_EEFbSG_mEED1Ev, symObjAddr: 0x33F30, symBinAddr: 0x100034134, symSize: 0x4 }
  - { offset: 0x1F4114, size: 0x8, addend: 0x0, symName: __ZNSt3__110__function6__funcIZZN7httplib6detail24prepare_content_receiverINS2_7RequestEZNS3_12read_contentIS5_EEbRNS2_6StreamERT_mRiNS_8functionIFbmmEEENSC_IFbPKcmmmEEEbEUlRKSI_E_EEbSA_SB_SI_bT0_ENKUlSG_mmmE_clESG_mmmEUlSG_mE_NS_9allocatorISO_EEFbSG_mEED0Ev, symObjAddr: 0x33F34, symBinAddr: 0x100034138, symSize: 0x4 }
  - { offset: 0x1F4204, size: 0x8, addend: 0x0, symName: __ZNKSt3__110__function6__funcIZZN7httplib6detail24prepare_content_receiverINS2_7RequestEZNS3_12read_contentIS5_EEbRNS2_6StreamERT_mRiNS_8functionIFbmmEEENSC_IFbPKcmmmEEEbEUlRKSI_E_EEbSA_SB_SI_bT0_ENKUlSG_mmmE_clESG_mmmEUlSG_mE_NS_9allocatorISO_EEFbSG_mEE7__cloneEv, symObjAddr: 0x33F38, symBinAddr: 0x10003413C, symSize: 0x40 }
  - { offset: 0x1F4415, size: 0x8, addend: 0x0, symName: __ZNKSt3__110__function6__funcIZZN7httplib6detail24prepare_content_receiverINS2_7RequestEZNS3_12read_contentIS5_EEbRNS2_6StreamERT_mRiNS_8functionIFbmmEEENSC_IFbPKcmmmEEEbEUlRKSI_E_EEbSA_SB_SI_bT0_ENKUlSG_mmmE_clESG_mmmEUlSG_mE_NS_9allocatorISO_EEFbSG_mEE7__cloneEPNS0_6__baseISR_EE, symObjAddr: 0x33F78, symBinAddr: 0x10003417C, symSize: 0x20 }
  - { offset: 0x1F444B, size: 0x8, addend: 0x0, symName: __ZNKSt3__110__function6__funcIZZN7httplib6detail24prepare_content_receiverINS2_7RequestEZNS3_12read_contentIS5_EEbRNS2_6StreamERT_mRiNS_8functionIFbmmEEENSC_IFbPKcmmmEEEbEUlRKSI_E_EEbSA_SB_SI_bT0_ENKUlSG_mmmE_clESG_mmmEUlSG_mE_NS_9allocatorISO_EEFbSG_mEE7__cloneEPNS0_6__baseISR_EE, symObjAddr: 0x33F78, symBinAddr: 0x10003417C, symSize: 0x20 }
  - { offset: 0x1F4479, size: 0x8, addend: 0x0, symName: __ZNKSt3__110__function6__funcIZZN7httplib6detail24prepare_content_receiverINS2_7RequestEZNS3_12read_contentIS5_EEbRNS2_6StreamERT_mRiNS_8functionIFbmmEEENSC_IFbPKcmmmEEEbEUlRKSI_E_EEbSA_SB_SI_bT0_ENKUlSG_mmmE_clESG_mmmEUlSG_mE_NS_9allocatorISO_EEFbSG_mEE7__cloneEPNS0_6__baseISR_EE, symObjAddr: 0x33F78, symBinAddr: 0x10003417C, symSize: 0x20 }
  - { offset: 0x1F4508, size: 0x8, addend: 0x0, symName: __ZNSt3__110__function6__funcIZZN7httplib6detail24prepare_content_receiverINS2_7RequestEZNS3_12read_contentIS5_EEbRNS2_6StreamERT_mRiNS_8functionIFbmmEEENSC_IFbPKcmmmEEEbEUlRKSI_E_EEbSA_SB_SI_bT0_ENKUlSG_mmmE_clESG_mmmEUlSG_mE_NS_9allocatorISO_EEFbSG_mEE7destroyEv, symObjAddr: 0x33F98, symBinAddr: 0x10003419C, symSize: 0x4 }
  - { offset: 0x1F455F, size: 0x8, addend: 0x0, symName: __ZNSt3__110__function6__funcIZZN7httplib6detail24prepare_content_receiverINS2_7RequestEZNS3_12read_contentIS5_EEbRNS2_6StreamERT_mRiNS_8functionIFbmmEEENSC_IFbPKcmmmEEEbEUlRKSI_E_EEbSA_SB_SI_bT0_ENKUlSG_mmmE_clESG_mmmEUlSG_mE_NS_9allocatorISO_EEFbSG_mEE18destroy_deallocateEv, symObjAddr: 0x33F9C, symBinAddr: 0x1000341A0, symSize: 0x4 }
  - { offset: 0x1F4592, size: 0x8, addend: 0x0, symName: __ZNSt3__110__function6__funcIZZN7httplib6detail24prepare_content_receiverINS2_7RequestEZNS3_12read_contentIS5_EEbRNS2_6StreamERT_mRiNS_8functionIFbmmEEENSC_IFbPKcmmmEEEbEUlRKSI_E_EEbSA_SB_SI_bT0_ENKUlSG_mmmE_clESG_mmmEUlSG_mE_NS_9allocatorISO_EEFbSG_mEE18destroy_deallocateEv, symObjAddr: 0x33F9C, symBinAddr: 0x1000341A0, symSize: 0x4 }
  - { offset: 0x1F45B5, size: 0x8, addend: 0x0, symName: __ZNSt3__110__function6__funcIZZN7httplib6detail24prepare_content_receiverINS2_7RequestEZNS3_12read_contentIS5_EEbRNS2_6StreamERT_mRiNS_8functionIFbmmEEENSC_IFbPKcmmmEEEbEUlRKSI_E_EEbSA_SB_SI_bT0_ENKUlSG_mmmE_clESG_mmmEUlSG_mE_NS_9allocatorISO_EEFbSG_mEE18destroy_deallocateEv, symObjAddr: 0x33F9C, symBinAddr: 0x1000341A0, symSize: 0x4 }
  - { offset: 0x1F45E9, size: 0x8, addend: 0x0, symName: __ZNSt3__110__function6__funcIZZN7httplib6detail24prepare_content_receiverINS2_7RequestEZNS3_12read_contentIS5_EEbRNS2_6StreamERT_mRiNS_8functionIFbmmEEENSC_IFbPKcmmmEEEbEUlRKSI_E_EEbSA_SB_SI_bT0_ENKUlSG_mmmE_clESG_mmmEUlSG_mE_NS_9allocatorISO_EEFbSG_mEE18destroy_deallocateEv, symObjAddr: 0x33F9C, symBinAddr: 0x1000341A0, symSize: 0x4 }
  - { offset: 0x1F46C3, size: 0x8, addend: 0x0, symName: __ZNSt3__110__function6__funcIZZN7httplib6detail24prepare_content_receiverINS2_7RequestEZNS3_12read_contentIS5_EEbRNS2_6StreamERT_mRiNS_8functionIFbmmEEENSC_IFbPKcmmmEEEbEUlRKSI_E_EEbSA_SB_SI_bT0_ENKUlSG_mmmE_clESG_mmmEUlSG_mE_NS_9allocatorISO_EEFbSG_mEEclEOSG_Om, symObjAddr: 0x33FA0, symBinAddr: 0x1000341A4, symSize: 0x64 }
  - { offset: 0x1F4870, size: 0x8, addend: 0x0, symName: __ZNKSt3__110__function6__funcIZZN7httplib6detail24prepare_content_receiverINS2_7RequestEZNS3_12read_contentIS5_EEbRNS2_6StreamERT_mRiNS_8functionIFbmmEEENSC_IFbPKcmmmEEEbEUlRKSI_E_EEbSA_SB_SI_bT0_ENKUlSG_mmmE_clESG_mmmEUlSG_mE_NS_9allocatorISO_EEFbSG_mEE6targetERKSt9type_info, symObjAddr: 0x34004, symBinAddr: 0x100034208, symSize: 0x64 }
  - { offset: 0x1F487B, size: 0x8, addend: 0x0, symName: __ZNKSt3__110__function6__funcIZZN7httplib6detail24prepare_content_receiverINS2_7RequestEZNS3_12read_contentIS5_EEbRNS2_6StreamERT_mRiNS_8functionIFbmmEEENSC_IFbPKcmmmEEEbEUlRKSI_E_EEbSA_SB_SI_bT0_ENKUlSG_mmmE_clESG_mmmEUlSG_mE_NS_9allocatorISO_EEFbSG_mEE6targetERKSt9type_info, symObjAddr: 0x34004, symBinAddr: 0x100034208, symSize: 0x64 }
  - { offset: 0x1F492E, size: 0x8, addend: 0x0, symName: __ZNKSt3__110__function6__funcIZZN7httplib6detail24prepare_content_receiverINS2_7RequestEZNS3_12read_contentIS5_EEbRNS2_6StreamERT_mRiNS_8functionIFbmmEEENSC_IFbPKcmmmEEEbEUlRKSI_E_EEbSA_SB_SI_bT0_ENKUlSG_mmmE_clESG_mmmEUlSG_mE_NS_9allocatorISO_EEFbSG_mEE11target_typeEv, symObjAddr: 0x34068, symBinAddr: 0x10003426C, symSize: 0xC }
  - { offset: 0x1F49E1, size: 0x8, addend: 0x0, symName: __ZN7httplib6detail14ChunkedDecoder12read_payloadEPcmRmS3_, symObjAddr: 0x34268, symBinAddr: 0x10003446C, symSize: 0x300 }
  - { offset: 0x1F5685, size: 0x8, addend: 0x0, symName: __ZNSt3__113unordered_setINS_12basic_stringIcNS_11char_traitsIcEENS_9allocatorIcEEEEN7httplib6detail11case_ignore4hashENS9_8equal_toENS4_IS6_EEEC1ESt16initializer_listIS6_E, symObjAddr: 0x35090, symBinAddr: 0x100035294, symSize: 0x78 }
  - { offset: 0x1F57DA, size: 0x8, addend: 0x0, symName: __ZNSt3__113unordered_setINS_12basic_stringIcNS_11char_traitsIcEENS_9allocatorIcEEEEN7httplib6detail11case_ignore4hashENS9_8equal_toENS4_IS6_EEED1B8ne200100Ev, symObjAddr: 0x35108, symBinAddr: 0x10003530C, symSize: 0x68 }
  - { offset: 0x1F5C13, size: 0x8, addend: 0x0, symName: __ZNSt3__112__hash_tableINS_12basic_stringIcNS_11char_traitsIcEENS_9allocatorIcEEEEN7httplib6detail11case_ignore4hashENS9_8equal_toENS4_IS6_EEE25__emplace_unique_key_argsIS6_JRKS6_EEENS_4pairINS_15__hash_iteratorIPNS_11__hash_nodeIS6_PvEEEEbEERKT_DpOT0_, symObjAddr: 0x3598C, symBinAddr: 0x100035B90, symSize: 0x480 }
  - { offset: 0x1F647C, size: 0x8, addend: 0x0, symName: __ZNSt3__112__hash_tableINS_12basic_stringIcNS_11char_traitsIcEENS_9allocatorIcEEEEN7httplib6detail11case_ignore4hashENS9_8equal_toENS4_IS6_EEED1Ev, symObjAddr: 0x35924, symBinAddr: 0x100035B28, symSize: 0x68 }
  - { offset: 0x1F6D9D, size: 0x8, addend: 0x0, symName: __ZNSt3__112__hash_tableINS_12basic_stringIcNS_11char_traitsIcEENS_9allocatorIcEEEEN7httplib6detail11case_ignore4hashENS9_8equal_toENS4_IS6_EEE11__do_rehashILb1EEEvm, symObjAddr: 0x35E6C, symBinAddr: 0x100036070, symSize: 0x180 }
  - { offset: 0x1F7130, size: 0x8, addend: 0x0, symName: __ZNSt3__110__function6__funcIZN7httplib6detail14parse_trailersERNS3_18stream_line_readerERNS_18unordered_multimapINS_12basic_stringIcNS_11char_traitsIcEENS_9allocatorIcEEEESC_NS3_11case_ignore4hashENSD_8equal_toENSA_INS_4pairIKSC_SC_EEEEEERKSK_EUlPKcSP_E_NSA_ISQ_EEFvSP_SP_EED1Ev, symObjAddr: 0x35FEC, symBinAddr: 0x1000361F0, symSize: 0x4 }
  - { offset: 0x1F7145, size: 0x8, addend: 0x0, symName: __ZNSt3__110unique_ptrINS_11__hash_nodeINS_12basic_stringIcNS_11char_traitsIcEENS_9allocatorIcEEEEPvEENS_22__hash_node_destructorINS5_IS9_EEEEED1B8ne200100Ev, symObjAddr: 0x35E0C, symBinAddr: 0x100036010, symSize: 0x60 }
  - { offset: 0x1F74C2, size: 0x8, addend: 0x0, symName: __ZNSt3__110__function6__funcIZN7httplib6detail14parse_trailersERNS3_18stream_line_readerERNS_18unordered_multimapINS_12basic_stringIcNS_11char_traitsIcEENS_9allocatorIcEEEESC_NS3_11case_ignore4hashENSD_8equal_toENSA_INS_4pairIKSC_SC_EEEEEERKSK_EUlPKcSP_E_NSA_ISQ_EEFvSP_SP_EED1Ev, symObjAddr: 0x35FEC, symBinAddr: 0x1000361F0, symSize: 0x4 }
  - { offset: 0x1F74EE, size: 0x8, addend: 0x0, symName: __ZNSt3__110__function6__funcIZN7httplib6detail14parse_trailersERNS3_18stream_line_readerERNS_18unordered_multimapINS_12basic_stringIcNS_11char_traitsIcEENS_9allocatorIcEEEESC_NS3_11case_ignore4hashENSD_8equal_toENSA_INS_4pairIKSC_SC_EEEEEERKSK_EUlPKcSP_E_NSA_ISQ_EEFvSP_SP_EED0Ev, symObjAddr: 0x35FF0, symBinAddr: 0x1000361F4, symSize: 0x4 }
  - { offset: 0x1F7605, size: 0x8, addend: 0x0, symName: __ZNKSt3__110__function6__funcIZN7httplib6detail14parse_trailersERNS3_18stream_line_readerERNS_18unordered_multimapINS_12basic_stringIcNS_11char_traitsIcEENS_9allocatorIcEEEESC_NS3_11case_ignore4hashENSD_8equal_toENSA_INS_4pairIKSC_SC_EEEEEERKSK_EUlPKcSP_E_NSA_ISQ_EEFvSP_SP_EE7__cloneEv, symObjAddr: 0x35FF4, symBinAddr: 0x1000361F8, symSize: 0x34 }
  - { offset: 0x1F77A0, size: 0x8, addend: 0x0, symName: __ZNKSt3__110__function6__funcIZN7httplib6detail14parse_trailersERNS3_18stream_line_readerERNS_18unordered_multimapINS_12basic_stringIcNS_11char_traitsIcEENS_9allocatorIcEEEESC_NS3_11case_ignore4hashENSD_8equal_toENSA_INS_4pairIKSC_SC_EEEEEERKSK_EUlPKcSP_E_NSA_ISQ_EEFvSP_SP_EE7__cloneEPNS0_6__baseISS_EE, symObjAddr: 0x36028, symBinAddr: 0x10003622C, symSize: 0x14 }
  - { offset: 0x1F77C9, size: 0x8, addend: 0x0, symName: __ZNKSt3__110__function6__funcIZN7httplib6detail14parse_trailersERNS3_18stream_line_readerERNS_18unordered_multimapINS_12basic_stringIcNS_11char_traitsIcEENS_9allocatorIcEEEESC_NS3_11case_ignore4hashENSD_8equal_toENSA_INS_4pairIKSC_SC_EEEEEERKSK_EUlPKcSP_E_NSA_ISQ_EEFvSP_SP_EE7__cloneEPNS0_6__baseISS_EE, symObjAddr: 0x36028, symBinAddr: 0x10003622C, symSize: 0x14 }
  - { offset: 0x1F77F7, size: 0x8, addend: 0x0, symName: __ZNKSt3__110__function6__funcIZN7httplib6detail14parse_trailersERNS3_18stream_line_readerERNS_18unordered_multimapINS_12basic_stringIcNS_11char_traitsIcEENS_9allocatorIcEEEESC_NS3_11case_ignore4hashENSD_8equal_toENSA_INS_4pairIKSC_SC_EEEEEERKSK_EUlPKcSP_E_NSA_ISQ_EEFvSP_SP_EE7__cloneEPNS0_6__baseISS_EE, symObjAddr: 0x36028, symBinAddr: 0x10003622C, symSize: 0x14 }
  - { offset: 0x1F7825, size: 0x8, addend: 0x0, symName: __ZNKSt3__110__function6__funcIZN7httplib6detail14parse_trailersERNS3_18stream_line_readerERNS_18unordered_multimapINS_12basic_stringIcNS_11char_traitsIcEENS_9allocatorIcEEEESC_NS3_11case_ignore4hashENSD_8equal_toENSA_INS_4pairIKSC_SC_EEEEEERKSK_EUlPKcSP_E_NSA_ISQ_EEFvSP_SP_EE7__cloneEPNS0_6__baseISS_EE, symObjAddr: 0x36028, symBinAddr: 0x10003622C, symSize: 0x14 }
  - { offset: 0x1F783A, size: 0x8, addend: 0x0, symName: __ZNKSt3__110__function6__funcIZN7httplib6detail14parse_trailersERNS3_18stream_line_readerERNS_18unordered_multimapINS_12basic_stringIcNS_11char_traitsIcEENS_9allocatorIcEEEESC_NS3_11case_ignore4hashENSD_8equal_toENSA_INS_4pairIKSC_SC_EEEEEERKSK_EUlPKcSP_E_NSA_ISQ_EEFvSP_SP_EE7__cloneEPNS0_6__baseISS_EE, symObjAddr: 0x36028, symBinAddr: 0x10003622C, symSize: 0x14 }
  - { offset: 0x1F784F, size: 0x8, addend: 0x0, symName: __ZNSt3__110__function6__funcIZN7httplib6detail14parse_trailersERNS3_18stream_line_readerERNS_18unordered_multimapINS_12basic_stringIcNS_11char_traitsIcEENS_9allocatorIcEEEESC_NS3_11case_ignore4hashENSD_8equal_toENSA_INS_4pairIKSC_SC_EEEEEERKSK_EUlPKcSP_E_NSA_ISQ_EEFvSP_SP_EE7destroyEv, symObjAddr: 0x3603C, symBinAddr: 0x100036240, symSize: 0x4 }
  - { offset: 0x1F78A6, size: 0x8, addend: 0x0, symName: __ZNSt3__110__function6__funcIZN7httplib6detail14parse_trailersERNS3_18stream_line_readerERNS_18unordered_multimapINS_12basic_stringIcNS_11char_traitsIcEENS_9allocatorIcEEEESC_NS3_11case_ignore4hashENSD_8equal_toENSA_INS_4pairIKSC_SC_EEEEEERKSK_EUlPKcSP_E_NSA_ISQ_EEFvSP_SP_EE18destroy_deallocateEv, symObjAddr: 0x36040, symBinAddr: 0x100036244, symSize: 0x4 }
  - { offset: 0x1F78D9, size: 0x8, addend: 0x0, symName: __ZNSt3__110__function6__funcIZN7httplib6detail14parse_trailersERNS3_18stream_line_readerERNS_18unordered_multimapINS_12basic_stringIcNS_11char_traitsIcEENS_9allocatorIcEEEESC_NS3_11case_ignore4hashENSD_8equal_toENSA_INS_4pairIKSC_SC_EEEEEERKSK_EUlPKcSP_E_NSA_ISQ_EEFvSP_SP_EE18destroy_deallocateEv, symObjAddr: 0x36040, symBinAddr: 0x100036244, symSize: 0x4 }
  - { offset: 0x1F78FC, size: 0x8, addend: 0x0, symName: __ZNSt3__110__function6__funcIZN7httplib6detail14parse_trailersERNS3_18stream_line_readerERNS_18unordered_multimapINS_12basic_stringIcNS_11char_traitsIcEENS_9allocatorIcEEEESC_NS3_11case_ignore4hashENSD_8equal_toENSA_INS_4pairIKSC_SC_EEEEEERKSK_EUlPKcSP_E_NSA_ISQ_EEFvSP_SP_EE18destroy_deallocateEv, symObjAddr: 0x36040, symBinAddr: 0x100036244, symSize: 0x4 }
  - { offset: 0x1F792F, size: 0x8, addend: 0x0, symName: __ZNSt3__110__function6__funcIZN7httplib6detail14parse_trailersERNS3_18stream_line_readerERNS_18unordered_multimapINS_12basic_stringIcNS_11char_traitsIcEENS_9allocatorIcEEEESC_NS3_11case_ignore4hashENSD_8equal_toENSA_INS_4pairIKSC_SC_EEEEEERKSK_EUlPKcSP_E_NSA_ISQ_EEFvSP_SP_EE18destroy_deallocateEv, symObjAddr: 0x36040, symBinAddr: 0x100036244, symSize: 0x4 }
  - { offset: 0x1F79CB, size: 0x8, addend: 0x0, symName: __ZNSt3__110__function6__funcIZN7httplib6detail14parse_trailersERNS3_18stream_line_readerERNS_18unordered_multimapINS_12basic_stringIcNS_11char_traitsIcEENS_9allocatorIcEEEESC_NS3_11case_ignore4hashENSD_8equal_toENSA_INS_4pairIKSC_SC_EEEEEERKSK_EUlPKcSP_E_NSA_ISQ_EEFvSP_SP_EEclEOSP_SU_, symObjAddr: 0x36044, symBinAddr: 0x100036248, symSize: 0x10 }
  - { offset: 0x1F7AA4, size: 0x8, addend: 0x0, symName: __ZZN7httplib6detail14parse_trailersERNS0_18stream_line_readerERNSt3__118unordered_multimapINS3_12basic_stringIcNS3_11char_traitsIcEENS3_9allocatorIcEEEESA_NS0_11case_ignore4hashENSB_8equal_toENS8_INS3_4pairIKSA_SA_EEEEEERKSI_ENKUlPKcSN_E_clESN_SN_, symObjAddr: 0x360C4, symBinAddr: 0x1000362C8, symSize: 0x178 }
  - { offset: 0x1F8063, size: 0x8, addend: 0x0, symName: __ZNKSt3__110__function6__funcIZN7httplib6detail14parse_trailersERNS3_18stream_line_readerERNS_18unordered_multimapINS_12basic_stringIcNS_11char_traitsIcEENS_9allocatorIcEEEESC_NS3_11case_ignore4hashENSD_8equal_toENSA_INS_4pairIKSC_SC_EEEEEERKSK_EUlPKcSP_E_NSA_ISQ_EEFvSP_SP_EE6targetERKSt9type_info, symObjAddr: 0x36054, symBinAddr: 0x100036258, symSize: 0x64 }
  - { offset: 0x1F8116, size: 0x8, addend: 0x0, symName: __ZNKSt3__110__function6__funcIZN7httplib6detail14parse_trailersERNS3_18stream_line_readerERNS_18unordered_multimapINS_12basic_stringIcNS_11char_traitsIcEENS_9allocatorIcEEEESC_NS3_11case_ignore4hashENSD_8equal_toENSA_INS_4pairIKSC_SC_EEEEEERKSK_EUlPKcSP_E_NSA_ISQ_EEFvSP_SP_EE11target_typeEv, symObjAddr: 0x360B8, symBinAddr: 0x1000362BC, symSize: 0xC }
  - { offset: 0x1F815F, size: 0x8, addend: 0x0, symName: __ZNSt3__110__function6__funcIZN7httplib6detail24prepare_content_receiverINS2_7RequestEZNS3_12read_contentIS5_EEbRNS2_6StreamERT_mRiNS_8functionIFbmmEEENSC_IFbPKcmmmEEEbEUlRKSI_E_EEbSA_SB_SI_bT0_EUlSG_mmmE0_NS_9allocatorISN_EESH_ED1Ev, symObjAddr: 0x36450, symBinAddr: 0x100036440, symSize: 0x4 }
  - { offset: 0x1F818B, size: 0x8, addend: 0x0, symName: __ZNSt3__110__function6__funcIZN7httplib6detail24prepare_content_receiverINS2_7RequestEZNS3_12read_contentIS5_EEbRNS2_6StreamERT_mRiNS_8functionIFbmmEEENSC_IFbPKcmmmEEEbEUlRKSI_E_EEbSA_SB_SI_bT0_EUlSG_mmmE0_NS_9allocatorISN_EESH_ED0Ev, symObjAddr: 0x36454, symBinAddr: 0x100036444, symSize: 0x4 }
  - { offset: 0x1F82A2, size: 0x8, addend: 0x0, symName: __ZNKSt3__110__function6__funcIZN7httplib6detail24prepare_content_receiverINS2_7RequestEZNS3_12read_contentIS5_EEbRNS2_6StreamERT_mRiNS_8functionIFbmmEEENSC_IFbPKcmmmEEEbEUlRKSI_E_EEbSA_SB_SI_bT0_EUlSG_mmmE0_NS_9allocatorISN_EESH_E7__cloneEv, symObjAddr: 0x36458, symBinAddr: 0x100036448, symSize: 0x34 }
  - { offset: 0x1F84A1, size: 0x8, addend: 0x0, symName: __ZNKSt3__110__function6__funcIZN7httplib6detail24prepare_content_receiverINS2_7RequestEZNS3_12read_contentIS5_EEbRNS2_6StreamERT_mRiNS_8functionIFbmmEEENSC_IFbPKcmmmEEEbEUlRKSI_E_EEbSA_SB_SI_bT0_EUlSG_mmmE0_NS_9allocatorISN_EESH_E7__cloneEPNS0_6__baseISH_EE, symObjAddr: 0x3648C, symBinAddr: 0x10003647C, symSize: 0x14 }
  - { offset: 0x1F84D7, size: 0x8, addend: 0x0, symName: __ZNKSt3__110__function6__funcIZN7httplib6detail24prepare_content_receiverINS2_7RequestEZNS3_12read_contentIS5_EEbRNS2_6StreamERT_mRiNS_8functionIFbmmEEENSC_IFbPKcmmmEEEbEUlRKSI_E_EEbSA_SB_SI_bT0_EUlSG_mmmE0_NS_9allocatorISN_EESH_E7__cloneEPNS0_6__baseISH_EE, symObjAddr: 0x3648C, symBinAddr: 0x10003647C, symSize: 0x14 }
  - { offset: 0x1F8505, size: 0x8, addend: 0x0, symName: __ZNKSt3__110__function6__funcIZN7httplib6detail24prepare_content_receiverINS2_7RequestEZNS3_12read_contentIS5_EEbRNS2_6StreamERT_mRiNS_8functionIFbmmEEENSC_IFbPKcmmmEEEbEUlRKSI_E_EEbSA_SB_SI_bT0_EUlSG_mmmE0_NS_9allocatorISN_EESH_E7__cloneEPNS0_6__baseISH_EE, symObjAddr: 0x3648C, symBinAddr: 0x10003647C, symSize: 0x14 }
  - { offset: 0x1F8533, size: 0x8, addend: 0x0, symName: __ZNKSt3__110__function6__funcIZN7httplib6detail24prepare_content_receiverINS2_7RequestEZNS3_12read_contentIS5_EEbRNS2_6StreamERT_mRiNS_8functionIFbmmEEENSC_IFbPKcmmmEEEbEUlRKSI_E_EEbSA_SB_SI_bT0_EUlSG_mmmE0_NS_9allocatorISN_EESH_E7__cloneEPNS0_6__baseISH_EE, symObjAddr: 0x3648C, symBinAddr: 0x10003647C, symSize: 0x14 }
  - { offset: 0x1F8548, size: 0x8, addend: 0x0, symName: __ZNKSt3__110__function6__funcIZN7httplib6detail24prepare_content_receiverINS2_7RequestEZNS3_12read_contentIS5_EEbRNS2_6StreamERT_mRiNS_8functionIFbmmEEENSC_IFbPKcmmmEEEbEUlRKSI_E_EEbSA_SB_SI_bT0_EUlSG_mmmE0_NS_9allocatorISN_EESH_E7__cloneEPNS0_6__baseISH_EE, symObjAddr: 0x3648C, symBinAddr: 0x10003647C, symSize: 0x14 }
  - { offset: 0x1F855D, size: 0x8, addend: 0x0, symName: __ZNSt3__110__function6__funcIZN7httplib6detail24prepare_content_receiverINS2_7RequestEZNS3_12read_contentIS5_EEbRNS2_6StreamERT_mRiNS_8functionIFbmmEEENSC_IFbPKcmmmEEEbEUlRKSI_E_EEbSA_SB_SI_bT0_EUlSG_mmmE0_NS_9allocatorISN_EESH_E7destroyEv, symObjAddr: 0x364A0, symBinAddr: 0x100036490, symSize: 0x4 }
  - { offset: 0x1F85B4, size: 0x8, addend: 0x0, symName: __ZNSt3__110__function6__funcIZN7httplib6detail24prepare_content_receiverINS2_7RequestEZNS3_12read_contentIS5_EEbRNS2_6StreamERT_mRiNS_8functionIFbmmEEENSC_IFbPKcmmmEEEbEUlRKSI_E_EEbSA_SB_SI_bT0_EUlSG_mmmE0_NS_9allocatorISN_EESH_E18destroy_deallocateEv, symObjAddr: 0x364A4, symBinAddr: 0x100036494, symSize: 0x4 }
  - { offset: 0x1F85E7, size: 0x8, addend: 0x0, symName: __ZNSt3__110__function6__funcIZN7httplib6detail24prepare_content_receiverINS2_7RequestEZNS3_12read_contentIS5_EEbRNS2_6StreamERT_mRiNS_8functionIFbmmEEENSC_IFbPKcmmmEEEbEUlRKSI_E_EEbSA_SB_SI_bT0_EUlSG_mmmE0_NS_9allocatorISN_EESH_E18destroy_deallocateEv, symObjAddr: 0x364A4, symBinAddr: 0x100036494, symSize: 0x4 }
  - { offset: 0x1F860A, size: 0x8, addend: 0x0, symName: __ZNSt3__110__function6__funcIZN7httplib6detail24prepare_content_receiverINS2_7RequestEZNS3_12read_contentIS5_EEbRNS2_6StreamERT_mRiNS_8functionIFbmmEEENSC_IFbPKcmmmEEEbEUlRKSI_E_EEbSA_SB_SI_bT0_EUlSG_mmmE0_NS_9allocatorISN_EESH_E18destroy_deallocateEv, symObjAddr: 0x364A4, symBinAddr: 0x100036494, symSize: 0x4 }
  - { offset: 0x1F863D, size: 0x8, addend: 0x0, symName: __ZNSt3__110__function6__funcIZN7httplib6detail24prepare_content_receiverINS2_7RequestEZNS3_12read_contentIS5_EEbRNS2_6StreamERT_mRiNS_8functionIFbmmEEENSC_IFbPKcmmmEEEbEUlRKSI_E_EEbSA_SB_SI_bT0_EUlSG_mmmE0_NS_9allocatorISN_EESH_E18destroy_deallocateEv, symObjAddr: 0x364A4, symBinAddr: 0x100036494, symSize: 0x4 }
  - { offset: 0x1F8767, size: 0x8, addend: 0x0, symName: __ZNSt3__110__function6__funcIZN7httplib6detail24prepare_content_receiverINS2_7RequestEZNS3_12read_contentIS5_EEbRNS2_6StreamERT_mRiNS_8functionIFbmmEEENSC_IFbPKcmmmEEEbEUlRKSI_E_EEbSA_SB_SI_bT0_EUlSG_mmmE0_NS_9allocatorISN_EESH_EclEOSG_OmSS_SS_, symObjAddr: 0x364A8, symBinAddr: 0x100036498, symSize: 0x60 }
  - { offset: 0x1F898E, size: 0x8, addend: 0x0, symName: __ZNKSt3__110__function6__funcIZN7httplib6detail24prepare_content_receiverINS2_7RequestEZNS3_12read_contentIS5_EEbRNS2_6StreamERT_mRiNS_8functionIFbmmEEENSC_IFbPKcmmmEEEbEUlRKSI_E_EEbSA_SB_SI_bT0_EUlSG_mmmE0_NS_9allocatorISN_EESH_E6targetERKSt9type_info, symObjAddr: 0x36508, symBinAddr: 0x1000364F8, symSize: 0x64 }
  - { offset: 0x1F8999, size: 0x8, addend: 0x0, symName: __ZNKSt3__110__function6__funcIZN7httplib6detail24prepare_content_receiverINS2_7RequestEZNS3_12read_contentIS5_EEbRNS2_6StreamERT_mRiNS_8functionIFbmmEEENSC_IFbPKcmmmEEEbEUlRKSI_E_EEbSA_SB_SI_bT0_EUlSG_mmmE0_NS_9allocatorISN_EESH_E6targetERKSt9type_info, symObjAddr: 0x36508, symBinAddr: 0x1000364F8, symSize: 0x64 }
  - { offset: 0x1F8A4C, size: 0x8, addend: 0x0, symName: __ZNKSt3__110__function6__funcIZN7httplib6detail24prepare_content_receiverINS2_7RequestEZNS3_12read_contentIS5_EEbRNS2_6StreamERT_mRiNS_8functionIFbmmEEENSC_IFbPKcmmmEEEbEUlRKSI_E_EEbSA_SB_SI_bT0_EUlSG_mmmE0_NS_9allocatorISN_EESH_E11target_typeEv, symObjAddr: 0x3656C, symBinAddr: 0x10003655C, symSize: 0xC }
  - { offset: 0x1F8A73, size: 0x8, addend: 0x0, symName: __ZNSt3__110__function6__funcIZN7httplib6Server7routingERNS2_7RequestERNS2_8ResponseERNS2_6StreamEEUlNS_8functionIFbRKNS2_8FormDataEEEENSA_IFbPKcmEEEE_NS_9allocatorISK_EEFbSF_SJ_EED1Ev, symObjAddr: 0x36640, symBinAddr: 0x100036630, symSize: 0x4 }
  - { offset: 0x1F8A9F, size: 0x8, addend: 0x0, symName: __ZNSt3__110__function6__funcIZN7httplib6Server7routingERNS2_7RequestERNS2_8ResponseERNS2_6StreamEEUlNS_8functionIFbRKNS2_8FormDataEEEENSA_IFbPKcmEEEE_NS_9allocatorISK_EEFbSF_SJ_EED0Ev, symObjAddr: 0x36644, symBinAddr: 0x100036634, symSize: 0x4 }
  - { offset: 0x1F8B8F, size: 0x8, addend: 0x0, symName: __ZNKSt3__110__function6__funcIZN7httplib6Server7routingERNS2_7RequestERNS2_8ResponseERNS2_6StreamEEUlNS_8functionIFbRKNS2_8FormDataEEEENSA_IFbPKcmEEEE_NS_9allocatorISK_EEFbSF_SJ_EE7__cloneEv, symObjAddr: 0x36648, symBinAddr: 0x100036638, symSize: 0x40 }
  - { offset: 0x1F8DA0, size: 0x8, addend: 0x0, symName: __ZNKSt3__110__function6__funcIZN7httplib6Server7routingERNS2_7RequestERNS2_8ResponseERNS2_6StreamEEUlNS_8functionIFbRKNS2_8FormDataEEEENSA_IFbPKcmEEEE_NS_9allocatorISK_EEFbSF_SJ_EE7__cloneEPNS0_6__baseISN_EE, symObjAddr: 0x36688, symBinAddr: 0x100036678, symSize: 0x20 }
  - { offset: 0x1F8DD6, size: 0x8, addend: 0x0, symName: __ZNKSt3__110__function6__funcIZN7httplib6Server7routingERNS2_7RequestERNS2_8ResponseERNS2_6StreamEEUlNS_8functionIFbRKNS2_8FormDataEEEENSA_IFbPKcmEEEE_NS_9allocatorISK_EEFbSF_SJ_EE7__cloneEPNS0_6__baseISN_EE, symObjAddr: 0x36688, symBinAddr: 0x100036678, symSize: 0x20 }
  - { offset: 0x1F8E04, size: 0x8, addend: 0x0, symName: __ZNKSt3__110__function6__funcIZN7httplib6Server7routingERNS2_7RequestERNS2_8ResponseERNS2_6StreamEEUlNS_8functionIFbRKNS2_8FormDataEEEENSA_IFbPKcmEEEE_NS_9allocatorISK_EEFbSF_SJ_EE7__cloneEPNS0_6__baseISN_EE, symObjAddr: 0x36688, symBinAddr: 0x100036678, symSize: 0x20 }
  - { offset: 0x1F8E93, size: 0x8, addend: 0x0, symName: __ZNSt3__110__function6__funcIZN7httplib6Server7routingERNS2_7RequestERNS2_8ResponseERNS2_6StreamEEUlNS_8functionIFbRKNS2_8FormDataEEEENSA_IFbPKcmEEEE_NS_9allocatorISK_EEFbSF_SJ_EE7destroyEv, symObjAddr: 0x366A8, symBinAddr: 0x100036698, symSize: 0x4 }
  - { offset: 0x1F8EEA, size: 0x8, addend: 0x0, symName: __ZNSt3__110__function6__funcIZN7httplib6Server7routingERNS2_7RequestERNS2_8ResponseERNS2_6StreamEEUlNS_8functionIFbRKNS2_8FormDataEEEENSA_IFbPKcmEEEE_NS_9allocatorISK_EEFbSF_SJ_EE18destroy_deallocateEv, symObjAddr: 0x366AC, symBinAddr: 0x10003669C, symSize: 0x4 }
  - { offset: 0x1F8F1D, size: 0x8, addend: 0x0, symName: __ZNSt3__110__function6__funcIZN7httplib6Server7routingERNS2_7RequestERNS2_8ResponseERNS2_6StreamEEUlNS_8functionIFbRKNS2_8FormDataEEEENSA_IFbPKcmEEEE_NS_9allocatorISK_EEFbSF_SJ_EE18destroy_deallocateEv, symObjAddr: 0x366AC, symBinAddr: 0x10003669C, symSize: 0x4 }
  - { offset: 0x1F8F40, size: 0x8, addend: 0x0, symName: __ZNSt3__110__function6__funcIZN7httplib6Server7routingERNS2_7RequestERNS2_8ResponseERNS2_6StreamEEUlNS_8functionIFbRKNS2_8FormDataEEEENSA_IFbPKcmEEEE_NS_9allocatorISK_EEFbSF_SJ_EE18destroy_deallocateEv, symObjAddr: 0x366AC, symBinAddr: 0x10003669C, symSize: 0x4 }
  - { offset: 0x1F8F74, size: 0x8, addend: 0x0, symName: __ZNSt3__110__function6__funcIZN7httplib6Server7routingERNS2_7RequestERNS2_8ResponseERNS2_6StreamEEUlNS_8functionIFbRKNS2_8FormDataEEEENSA_IFbPKcmEEEE_NS_9allocatorISK_EEFbSF_SJ_EE18destroy_deallocateEv, symObjAddr: 0x366AC, symBinAddr: 0x10003669C, symSize: 0x4 }
  - { offset: 0x1F9010, size: 0x8, addend: 0x0, symName: __ZNSt3__110__function6__funcIZN7httplib6Server7routingERNS2_7RequestERNS2_8ResponseERNS2_6StreamEEUlNS_8functionIFbRKNS2_8FormDataEEEENSA_IFbPKcmEEEE_NS_9allocatorISK_EEFbSF_SJ_EEclEOSF_OSJ_, symObjAddr: 0x366B0, symBinAddr: 0x1000366A0, symSize: 0x8 }
  - { offset: 0x1F90DD, size: 0x8, addend: 0x0, symName: __ZNKSt3__110__function6__funcIZN7httplib6Server7routingERNS2_7RequestERNS2_8ResponseERNS2_6StreamEEUlNS_8functionIFbRKNS2_8FormDataEEEENSA_IFbPKcmEEEE_NS_9allocatorISK_EEFbSF_SJ_EE6targetERKSt9type_info, symObjAddr: 0x366B8, symBinAddr: 0x1000366A8, symSize: 0x64 }
  - { offset: 0x1F9190, size: 0x8, addend: 0x0, symName: __ZNKSt3__110__function6__funcIZN7httplib6Server7routingERNS2_7RequestERNS2_8ResponseERNS2_6StreamEEUlNS_8functionIFbRKNS2_8FormDataEEEENSA_IFbPKcmEEEE_NS_9allocatorISK_EEFbSF_SJ_EE11target_typeEv, symObjAddr: 0x3671C, symBinAddr: 0x10003670C, symSize: 0xC }
  - { offset: 0x1F91BD, size: 0x8, addend: 0x0, symName: __ZZN7httplib6Server7routingERNS_7RequestERNS_8ResponseERNS_6StreamEENKUlNSt3__18functionIFbRKNS_8FormDataEEEENS8_IFbPKcmEEEE_clESD_SH_, symObjAddr: 0x368E8, symBinAddr: 0x1000368D8, symSize: 0x284 }
  - { offset: 0x1F984D, size: 0x8, addend: 0x0, symName: __ZNSt3__18__invokeB8ne200100IRZN7httplib6Server7routingERNS1_7RequestERNS1_8ResponseERNS1_6StreamEEUlNS_8functionIFbRKNS1_8FormDataEEEENS9_IFbPKcmEEEE_JSE_SI_EEEDTclclsr3stdE7declvalIT_EEspclsr3stdE7declvalIT0_EEEEOSL_DpOSM_.cold.1, symObjAddr: 0x45F5C, symBinAddr: 0x1000B31A8, symSize: 0x34 }
  - { offset: 0x1F98BD, size: 0x8, addend: 0x0, symName: __ZZN7httplib6Server7routingERNS_7RequestERNS_8ResponseERNS_6StreamEENKUlNSt3__18functionIFbRKNS_8FormDataEEEENS8_IFbPKcmEEEE_clESD_SH_.cold.1, symObjAddr: 0x45F90, symBinAddr: 0x1000B31DC, symSize: 0x7C }
  - { offset: 0x1F9986, size: 0x8, addend: 0x0, symName: __ZNSt3__110__function6__funcIZN7httplib6Server12read_contentERNS2_6StreamERNS2_7RequestERNS2_8ResponseEEUlPKcmE_NS_9allocatorISC_EEFbSB_mEED1Ev, symObjAddr: 0x36B6C, symBinAddr: 0x100036B5C, symSize: 0x4 }
  - { offset: 0x1F99B2, size: 0x8, addend: 0x0, symName: __ZNSt3__110__function6__funcIZN7httplib6Server12read_contentERNS2_6StreamERNS2_7RequestERNS2_8ResponseEEUlPKcmE_NS_9allocatorISC_EEFbSB_mEED0Ev, symObjAddr: 0x36B70, symBinAddr: 0x100036B60, symSize: 0x4 }
  - { offset: 0x1F9AC9, size: 0x8, addend: 0x0, symName: __ZNKSt3__110__function6__funcIZN7httplib6Server12read_contentERNS2_6StreamERNS2_7RequestERNS2_8ResponseEEUlPKcmE_NS_9allocatorISC_EEFbSB_mEE7__cloneEv, symObjAddr: 0x36B74, symBinAddr: 0x100036B64, symSize: 0x34 }
  - { offset: 0x1F9CC8, size: 0x8, addend: 0x0, symName: __ZNKSt3__110__function6__funcIZN7httplib6Server12read_contentERNS2_6StreamERNS2_7RequestERNS2_8ResponseEEUlPKcmE_NS_9allocatorISC_EEFbSB_mEE7__cloneEPNS0_6__baseISF_EE, symObjAddr: 0x36BA8, symBinAddr: 0x100036B98, symSize: 0x14 }
  - { offset: 0x1F9CFE, size: 0x8, addend: 0x0, symName: __ZNKSt3__110__function6__funcIZN7httplib6Server12read_contentERNS2_6StreamERNS2_7RequestERNS2_8ResponseEEUlPKcmE_NS_9allocatorISC_EEFbSB_mEE7__cloneEPNS0_6__baseISF_EE, symObjAddr: 0x36BA8, symBinAddr: 0x100036B98, symSize: 0x14 }
  - { offset: 0x1F9D2C, size: 0x8, addend: 0x0, symName: __ZNKSt3__110__function6__funcIZN7httplib6Server12read_contentERNS2_6StreamERNS2_7RequestERNS2_8ResponseEEUlPKcmE_NS_9allocatorISC_EEFbSB_mEE7__cloneEPNS0_6__baseISF_EE, symObjAddr: 0x36BA8, symBinAddr: 0x100036B98, symSize: 0x14 }
  - { offset: 0x1F9D5A, size: 0x8, addend: 0x0, symName: __ZNKSt3__110__function6__funcIZN7httplib6Server12read_contentERNS2_6StreamERNS2_7RequestERNS2_8ResponseEEUlPKcmE_NS_9allocatorISC_EEFbSB_mEE7__cloneEPNS0_6__baseISF_EE, symObjAddr: 0x36BA8, symBinAddr: 0x100036B98, symSize: 0x14 }
  - { offset: 0x1F9D6F, size: 0x8, addend: 0x0, symName: __ZNKSt3__110__function6__funcIZN7httplib6Server12read_contentERNS2_6StreamERNS2_7RequestERNS2_8ResponseEEUlPKcmE_NS_9allocatorISC_EEFbSB_mEE7__cloneEPNS0_6__baseISF_EE, symObjAddr: 0x36BA8, symBinAddr: 0x100036B98, symSize: 0x14 }
  - { offset: 0x1F9D84, size: 0x8, addend: 0x0, symName: __ZNSt3__110__function6__funcIZN7httplib6Server12read_contentERNS2_6StreamERNS2_7RequestERNS2_8ResponseEEUlPKcmE_NS_9allocatorISC_EEFbSB_mEE7destroyEv, symObjAddr: 0x36BBC, symBinAddr: 0x100036BAC, symSize: 0x4 }
  - { offset: 0x1F9DDB, size: 0x8, addend: 0x0, symName: __ZNSt3__110__function6__funcIZN7httplib6Server12read_contentERNS2_6StreamERNS2_7RequestERNS2_8ResponseEEUlPKcmE_NS_9allocatorISC_EEFbSB_mEE18destroy_deallocateEv, symObjAddr: 0x36BC0, symBinAddr: 0x100036BB0, symSize: 0x4 }
  - { offset: 0x1F9E0E, size: 0x8, addend: 0x0, symName: __ZNSt3__110__function6__funcIZN7httplib6Server12read_contentERNS2_6StreamERNS2_7RequestERNS2_8ResponseEEUlPKcmE_NS_9allocatorISC_EEFbSB_mEE18destroy_deallocateEv, symObjAddr: 0x36BC0, symBinAddr: 0x100036BB0, symSize: 0x4 }
  - { offset: 0x1F9E31, size: 0x8, addend: 0x0, symName: __ZNSt3__110__function6__funcIZN7httplib6Server12read_contentERNS2_6StreamERNS2_7RequestERNS2_8ResponseEEUlPKcmE_NS_9allocatorISC_EEFbSB_mEE18destroy_deallocateEv, symObjAddr: 0x36BC0, symBinAddr: 0x100036BB0, symSize: 0x4 }
  - { offset: 0x1F9E64, size: 0x8, addend: 0x0, symName: __ZNSt3__110__function6__funcIZN7httplib6Server12read_contentERNS2_6StreamERNS2_7RequestERNS2_8ResponseEEUlPKcmE_NS_9allocatorISC_EEFbSB_mEE18destroy_deallocateEv, symObjAddr: 0x36BC0, symBinAddr: 0x100036BB0, symSize: 0x4 }
  - { offset: 0x1F9F3E, size: 0x8, addend: 0x0, symName: __ZNSt3__110__function6__funcIZN7httplib6Server12read_contentERNS2_6StreamERNS2_7RequestERNS2_8ResponseEEUlPKcmE_NS_9allocatorISC_EEFbSB_mEEclEOSB_Om, symObjAddr: 0x36BC4, symBinAddr: 0x100036BB4, symSize: 0x58 }
  - { offset: 0x1F9F87, size: 0x8, addend: 0x0, symName: __ZNSt3__110__function6__funcIZN7httplib6Server12read_contentERNS2_6StreamERNS2_7RequestERNS2_8ResponseEEUlPKcmE_NS_9allocatorISC_EEFbSB_mEEclEOSB_Om, symObjAddr: 0x36BC4, symBinAddr: 0x100036BB4, symSize: 0x58 }
  - { offset: 0x1F9FB7, size: 0x8, addend: 0x0, symName: __ZNSt3__110__function6__funcIZN7httplib6Server12read_contentERNS2_6StreamERNS2_7RequestERNS2_8ResponseEEUlPKcmE_NS_9allocatorISC_EEFbSB_mEEclEOSB_Om, symObjAddr: 0x36BC4, symBinAddr: 0x100036BB4, symSize: 0x58 }
  - { offset: 0x1F9FE6, size: 0x8, addend: 0x0, symName: __ZNSt3__110__function6__funcIZN7httplib6Server12read_contentERNS2_6StreamERNS2_7RequestERNS2_8ResponseEEUlPKcmE_NS_9allocatorISC_EEFbSB_mEEclEOSB_Om, symObjAddr: 0x36BC4, symBinAddr: 0x100036BB4, symSize: 0x58 }
  - { offset: 0x1FA016, size: 0x8, addend: 0x0, symName: __ZNSt3__110__function6__funcIZN7httplib6Server12read_contentERNS2_6StreamERNS2_7RequestERNS2_8ResponseEEUlPKcmE_NS_9allocatorISC_EEFbSB_mEEclEOSB_Om, symObjAddr: 0x36BC4, symBinAddr: 0x100036BB4, symSize: 0x58 }
  - { offset: 0x1FA0B1, size: 0x8, addend: 0x0, symName: __ZNKSt3__110__function6__funcIZN7httplib6Server12read_contentERNS2_6StreamERNS2_7RequestERNS2_8ResponseEEUlPKcmE_NS_9allocatorISC_EEFbSB_mEE6targetERKSt9type_info, symObjAddr: 0x36C1C, symBinAddr: 0x100036C0C, symSize: 0x64 }
  - { offset: 0x1FA164, size: 0x8, addend: 0x0, symName: __ZNKSt3__110__function6__funcIZN7httplib6Server12read_contentERNS2_6StreamERNS2_7RequestERNS2_8ResponseEEUlPKcmE_NS_9allocatorISC_EEFbSB_mEE11target_typeEv, symObjAddr: 0x36C80, symBinAddr: 0x100036C70, symSize: 0xC }
  - { offset: 0x1FA18B, size: 0x8, addend: 0x0, symName: __ZNSt3__110__function6__funcIZN7httplib6Server12read_contentERNS2_6StreamERNS2_7RequestERNS2_8ResponseEEUlRKNS2_8FormDataEE_NS_9allocatorISD_EEFbSC_EED1Ev, symObjAddr: 0x36C8C, symBinAddr: 0x100036C7C, symSize: 0x4 }
  - { offset: 0x1FA1B7, size: 0x8, addend: 0x0, symName: __ZNSt3__110__function6__funcIZN7httplib6Server12read_contentERNS2_6StreamERNS2_7RequestERNS2_8ResponseEEUlRKNS2_8FormDataEE_NS_9allocatorISD_EEFbSC_EED0Ev, symObjAddr: 0x36C90, symBinAddr: 0x100036C80, symSize: 0x4 }
  - { offset: 0x1FA2A7, size: 0x8, addend: 0x0, symName: __ZNKSt3__110__function6__funcIZN7httplib6Server12read_contentERNS2_6StreamERNS2_7RequestERNS2_8ResponseEEUlRKNS2_8FormDataEE_NS_9allocatorISD_EEFbSC_EE7__cloneEv, symObjAddr: 0x36C94, symBinAddr: 0x100036C84, symSize: 0x48 }
  - { offset: 0x1FA4B8, size: 0x8, addend: 0x0, symName: __ZNKSt3__110__function6__funcIZN7httplib6Server12read_contentERNS2_6StreamERNS2_7RequestERNS2_8ResponseEEUlRKNS2_8FormDataEE_NS_9allocatorISD_EEFbSC_EE7__cloneEPNS0_6__baseISG_EE, symObjAddr: 0x36CDC, symBinAddr: 0x100036CCC, symSize: 0x28 }
  - { offset: 0x1FA4EE, size: 0x8, addend: 0x0, symName: __ZNKSt3__110__function6__funcIZN7httplib6Server12read_contentERNS2_6StreamERNS2_7RequestERNS2_8ResponseEEUlRKNS2_8FormDataEE_NS_9allocatorISD_EEFbSC_EE7__cloneEPNS0_6__baseISG_EE, symObjAddr: 0x36CDC, symBinAddr: 0x100036CCC, symSize: 0x28 }
  - { offset: 0x1FA51C, size: 0x8, addend: 0x0, symName: __ZNKSt3__110__function6__funcIZN7httplib6Server12read_contentERNS2_6StreamERNS2_7RequestERNS2_8ResponseEEUlRKNS2_8FormDataEE_NS_9allocatorISD_EEFbSC_EE7__cloneEPNS0_6__baseISG_EE, symObjAddr: 0x36CDC, symBinAddr: 0x100036CCC, symSize: 0x28 }
  - { offset: 0x1FA5AB, size: 0x8, addend: 0x0, symName: __ZNSt3__110__function6__funcIZN7httplib6Server12read_contentERNS2_6StreamERNS2_7RequestERNS2_8ResponseEEUlRKNS2_8FormDataEE_NS_9allocatorISD_EEFbSC_EE7destroyEv, symObjAddr: 0x36D04, symBinAddr: 0x100036CF4, symSize: 0x4 }
  - { offset: 0x1FA602, size: 0x8, addend: 0x0, symName: __ZNSt3__110__function6__funcIZN7httplib6Server12read_contentERNS2_6StreamERNS2_7RequestERNS2_8ResponseEEUlRKNS2_8FormDataEE_NS_9allocatorISD_EEFbSC_EE18destroy_deallocateEv, symObjAddr: 0x36D08, symBinAddr: 0x100036CF8, symSize: 0x4 }
  - { offset: 0x1FA635, size: 0x8, addend: 0x0, symName: __ZNSt3__110__function6__funcIZN7httplib6Server12read_contentERNS2_6StreamERNS2_7RequestERNS2_8ResponseEEUlRKNS2_8FormDataEE_NS_9allocatorISD_EEFbSC_EE18destroy_deallocateEv, symObjAddr: 0x36D08, symBinAddr: 0x100036CF8, symSize: 0x4 }
  - { offset: 0x1FA658, size: 0x8, addend: 0x0, symName: __ZNSt3__110__function6__funcIZN7httplib6Server12read_contentERNS2_6StreamERNS2_7RequestERNS2_8ResponseEEUlRKNS2_8FormDataEE_NS_9allocatorISD_EEFbSC_EE18destroy_deallocateEv, symObjAddr: 0x36D08, symBinAddr: 0x100036CF8, symSize: 0x4 }
  - { offset: 0x1FA68C, size: 0x8, addend: 0x0, symName: __ZNSt3__110__function6__funcIZN7httplib6Server12read_contentERNS2_6StreamERNS2_7RequestERNS2_8ResponseEEUlRKNS2_8FormDataEE_NS_9allocatorISD_EEFbSC_EE18destroy_deallocateEv, symObjAddr: 0x36D08, symBinAddr: 0x100036CF8, symSize: 0x4 }
  - { offset: 0x1FA70C, size: 0x8, addend: 0x0, symName: __ZNSt3__110__function6__funcIZN7httplib6Server12read_contentERNS2_6StreamERNS2_7RequestERNS2_8ResponseEEUlRKNS2_8FormDataEE_NS_9allocatorISD_EEFbSC_EEclESC_, symObjAddr: 0x36D0C, symBinAddr: 0x100036CFC, symSize: 0x8 }
  - { offset: 0x1FA7D0, size: 0x8, addend: 0x0, symName: __ZZN7httplib6Server12read_contentERNS_6StreamERNS_7RequestERNS_8ResponseEENKUlRKNS_8FormDataEE_clES9_, symObjAddr: 0x36D84, symBinAddr: 0x100036D74, symSize: 0x254 }
  - { offset: 0x1FB41A, size: 0x8, addend: 0x0, symName: __ZNKSt3__110__function6__funcIZN7httplib6Server12read_contentERNS2_6StreamERNS2_7RequestERNS2_8ResponseEEUlRKNS2_8FormDataEE_NS_9allocatorISD_EEFbSC_EE6targetERKSt9type_info, symObjAddr: 0x36D14, symBinAddr: 0x100036D04, symSize: 0x64 }
  - { offset: 0x1FB4CD, size: 0x8, addend: 0x0, symName: __ZNKSt3__110__function6__funcIZN7httplib6Server12read_contentERNS2_6StreamERNS2_7RequestERNS2_8ResponseEEUlRKNS2_8FormDataEE_NS_9allocatorISD_EEFbSC_EE11target_typeEv, symObjAddr: 0x36D78, symBinAddr: 0x100036D68, symSize: 0xC }
  - { offset: 0x1FB5A2, size: 0x8, addend: 0x0, symName: __ZNSt3__16__treeINS_12__value_typeINS_12basic_stringIcNS_11char_traitsIcEENS_9allocatorIcEEEEN7httplib8FormDataEEENS_19__map_value_compareIS7_SA_NS_4lessIS7_EELb1EEENS5_ISA_EEE15__emplace_multiIJRKS7_RKS9_EEENS_15__tree_iteratorISA_PNS_11__tree_nodeISA_PvEElEEDpOT_, symObjAddr: 0x373AC, symBinAddr: 0x10003739C, symSize: 0x198 }
  - { offset: 0x1FBC1F, size: 0x8, addend: 0x0, symName: __ZNSt3__118unordered_multimapINS_12basic_stringIcNS_11char_traitsIcEENS_9allocatorIcEEEES6_N7httplib6detail11case_ignore4hashENS9_8equal_toENS4_INS_4pairIKS6_S6_EEEEEC2ERKSG_, symObjAddr: 0x3724C, symBinAddr: 0x10003723C, symSize: 0x160 }
  - { offset: 0x1FC014, size: 0x8, addend: 0x0, symName: __ZNSt3__16__treeINS_12__value_typeINS_12basic_stringIcNS_11char_traitsIcEENS_9allocatorIcEEEEN7httplib9FormFieldEEENS_19__map_value_compareIS7_SA_NS_4lessIS7_EELb1EEENS5_ISA_EEE15__emplace_multiIJRKS7_S9_EEENS_15__tree_iteratorISA_PNS_11__tree_nodeISA_PvEElEEDpOT_, symObjAddr: 0x36FD8, symBinAddr: 0x100036FC8, symSize: 0x120 }
  - { offset: 0x1FC42A, size: 0x8, addend: 0x0, symName: __ZNSt3__16__treeINS_12__value_typeINS_12basic_stringIcNS_11char_traitsIcEENS_9allocatorIcEEEEN7httplib9FormFieldEEENS_19__map_value_compareIS7_SA_NS_4lessIS7_EELb1EEENS5_ISA_EEE16__construct_nodeIJRKS7_S9_EEENS_10unique_ptrINS_11__tree_nodeISA_PvEENS_22__tree_node_destructorINS5_ISN_EEEEEEDpOT_, symObjAddr: 0x370F8, symBinAddr: 0x1000370E8, symSize: 0x10C }
  - { offset: 0x1FCC67, size: 0x8, addend: 0x0, symName: __ZNSt3__110unique_ptrINS_11__tree_nodeINS_12__value_typeINS_12basic_stringIcNS_11char_traitsIcEENS_9allocatorIcEEEEN7httplib9FormFieldEEEPvEENS_22__tree_node_destructorINS6_ISD_EEEEED1B8ne200100Ev, symObjAddr: 0x37204, symBinAddr: 0x1000371F4, symSize: 0x48 }
  - { offset: 0x1FD294, size: 0x8, addend: 0x0, symName: __ZN7httplib8FormDataC2ERKS0_, symObjAddr: 0x3759C, symBinAddr: 0x10003758C, symSize: 0x170 }
  - { offset: 0x1FD7AC, size: 0x8, addend: 0x0, symName: __ZNSt3__110unique_ptrINS_11__tree_nodeINS_12__value_typeINS_12basic_stringIcNS_11char_traitsIcEENS_9allocatorIcEEEEN7httplib8FormDataEEEPvEENS_22__tree_node_destructorINS6_ISD_EEEEED1B8ne200100Ev, symObjAddr: 0x37544, symBinAddr: 0x100037534, symSize: 0x58 }
  - { offset: 0x1FDAFD, size: 0x8, addend: 0x0, symName: __ZNSt3__110__function6__funcIZN7httplib6Server12read_contentERNS2_6StreamERNS2_7RequestERNS2_8ResponseEEUlPKcmE0_NS_9allocatorISC_EEFbSB_mEED1Ev, symObjAddr: 0x3770C, symBinAddr: 0x1000376FC, symSize: 0x4 }
  - { offset: 0x1FDB29, size: 0x8, addend: 0x0, symName: __ZNSt3__110__function6__funcIZN7httplib6Server12read_contentERNS2_6StreamERNS2_7RequestERNS2_8ResponseEEUlPKcmE0_NS_9allocatorISC_EEFbSB_mEED0Ev, symObjAddr: 0x37710, symBinAddr: 0x100037700, symSize: 0x4 }
  - { offset: 0x1FDC19, size: 0x8, addend: 0x0, symName: __ZNKSt3__110__function6__funcIZN7httplib6Server12read_contentERNS2_6StreamERNS2_7RequestERNS2_8ResponseEEUlPKcmE0_NS_9allocatorISC_EEFbSB_mEE7__cloneEv, symObjAddr: 0x37714, symBinAddr: 0x100037704, symSize: 0x40 }
  - { offset: 0x1FDE2A, size: 0x8, addend: 0x0, symName: __ZNKSt3__110__function6__funcIZN7httplib6Server12read_contentERNS2_6StreamERNS2_7RequestERNS2_8ResponseEEUlPKcmE0_NS_9allocatorISC_EEFbSB_mEE7__cloneEPNS0_6__baseISF_EE, symObjAddr: 0x37754, symBinAddr: 0x100037744, symSize: 0x20 }
  - { offset: 0x1FDE60, size: 0x8, addend: 0x0, symName: __ZNKSt3__110__function6__funcIZN7httplib6Server12read_contentERNS2_6StreamERNS2_7RequestERNS2_8ResponseEEUlPKcmE0_NS_9allocatorISC_EEFbSB_mEE7__cloneEPNS0_6__baseISF_EE, symObjAddr: 0x37754, symBinAddr: 0x100037744, symSize: 0x20 }
  - { offset: 0x1FDE8E, size: 0x8, addend: 0x0, symName: __ZNKSt3__110__function6__funcIZN7httplib6Server12read_contentERNS2_6StreamERNS2_7RequestERNS2_8ResponseEEUlPKcmE0_NS_9allocatorISC_EEFbSB_mEE7__cloneEPNS0_6__baseISF_EE, symObjAddr: 0x37754, symBinAddr: 0x100037744, symSize: 0x20 }
  - { offset: 0x1FDF1D, size: 0x8, addend: 0x0, symName: __ZNSt3__110__function6__funcIZN7httplib6Server12read_contentERNS2_6StreamERNS2_7RequestERNS2_8ResponseEEUlPKcmE0_NS_9allocatorISC_EEFbSB_mEE7destroyEv, symObjAddr: 0x37774, symBinAddr: 0x100037764, symSize: 0x4 }
  - { offset: 0x1FDF74, size: 0x8, addend: 0x0, symName: __ZNSt3__110__function6__funcIZN7httplib6Server12read_contentERNS2_6StreamERNS2_7RequestERNS2_8ResponseEEUlPKcmE0_NS_9allocatorISC_EEFbSB_mEE18destroy_deallocateEv, symObjAddr: 0x37778, symBinAddr: 0x100037768, symSize: 0x4 }
  - { offset: 0x1FDFA7, size: 0x8, addend: 0x0, symName: __ZNSt3__110__function6__funcIZN7httplib6Server12read_contentERNS2_6StreamERNS2_7RequestERNS2_8ResponseEEUlPKcmE0_NS_9allocatorISC_EEFbSB_mEE18destroy_deallocateEv, symObjAddr: 0x37778, symBinAddr: 0x100037768, symSize: 0x4 }
  - { offset: 0x1FDFCA, size: 0x8, addend: 0x0, symName: __ZNSt3__110__function6__funcIZN7httplib6Server12read_contentERNS2_6StreamERNS2_7RequestERNS2_8ResponseEEUlPKcmE0_NS_9allocatorISC_EEFbSB_mEE18destroy_deallocateEv, symObjAddr: 0x37778, symBinAddr: 0x100037768, symSize: 0x4 }
  - { offset: 0x1FDFFE, size: 0x8, addend: 0x0, symName: __ZNSt3__110__function6__funcIZN7httplib6Server12read_contentERNS2_6StreamERNS2_7RequestERNS2_8ResponseEEUlPKcmE0_NS_9allocatorISC_EEFbSB_mEE18destroy_deallocateEv, symObjAddr: 0x37778, symBinAddr: 0x100037768, symSize: 0x4 }
  - { offset: 0x1FE190, size: 0x8, addend: 0x0, symName: __ZNSt3__110__function6__funcIZN7httplib6Server12read_contentERNS2_6StreamERNS2_7RequestERNS2_8ResponseEEUlPKcmE0_NS_9allocatorISC_EEFbSB_mEEclEOSB_Om, symObjAddr: 0x3777C, symBinAddr: 0x10003776C, symSize: 0xAC }
  - { offset: 0x1FE41B, size: 0x8, addend: 0x0, symName: __ZNKSt3__110__function6__funcIZN7httplib6Server12read_contentERNS2_6StreamERNS2_7RequestERNS2_8ResponseEEUlPKcmE0_NS_9allocatorISC_EEFbSB_mEE6targetERKSt9type_info, symObjAddr: 0x37828, symBinAddr: 0x100037818, symSize: 0x64 }
  - { offset: 0x1FE4CE, size: 0x8, addend: 0x0, symName: __ZNKSt3__110__function6__funcIZN7httplib6Server12read_contentERNS2_6StreamERNS2_7RequestERNS2_8ResponseEEUlPKcmE0_NS_9allocatorISC_EEFbSB_mEE11target_typeEv, symObjAddr: 0x3788C, symBinAddr: 0x10003787C, symSize: 0xC }
  - { offset: 0x1FE511, size: 0x8, addend: 0x0, symName: __ZNSt3__120__shared_ptr_emplaceIN7httplib6detail4mmapENS_9allocatorIS3_EEED1Ev, symObjAddr: 0x37898, symBinAddr: 0x100037888, symSize: 0x10 }
  - { offset: 0x1FE533, size: 0x8, addend: 0x0, symName: __ZNSt3__120__shared_ptr_emplaceIN7httplib6detail4mmapENS_9allocatorIS3_EEED1Ev, symObjAddr: 0x37898, symBinAddr: 0x100037888, symSize: 0x10 }
  - { offset: 0x1FE569, size: 0x8, addend: 0x0, symName: __ZNSt3__120__shared_ptr_emplaceIN7httplib6detail4mmapENS_9allocatorIS3_EEED0Ev, symObjAddr: 0x378A8, symBinAddr: 0x100037898, symSize: 0x20 }
  - { offset: 0x1FE686, size: 0x8, addend: 0x0, symName: __ZNSt3__120__shared_ptr_emplaceIN7httplib6detail4mmapENS_9allocatorIS3_EEE16__on_zero_sharedEv, symObjAddr: 0x378C8, symBinAddr: 0x1000378B8, symSize: 0x50 }
  - { offset: 0x1FE773, size: 0x8, addend: 0x0, symName: __ZNSt3__120__shared_ptr_emplaceIN7httplib6detail4mmapENS_9allocatorIS3_EEE21__on_zero_shared_weakEv, symObjAddr: 0x37918, symBinAddr: 0x100037908, symSize: 0x4 }
  - { offset: 0x1FE7A5, size: 0x8, addend: 0x0, symName: __ZNSt3__120__shared_ptr_emplaceIN7httplib6detail4mmapENS_9allocatorIS3_EEE21__on_zero_shared_weakEv, symObjAddr: 0x37918, symBinAddr: 0x100037908, symSize: 0x4 }
  - { offset: 0x1FE7C7, size: 0x8, addend: 0x0, symName: __ZNSt3__120__shared_ptr_emplaceIN7httplib6detail4mmapENS_9allocatorIS3_EEE21__on_zero_shared_weakEv, symObjAddr: 0x37918, symBinAddr: 0x100037908, symSize: 0x4 }
  - { offset: 0x1FE7EA, size: 0x8, addend: 0x0, symName: __ZNSt3__120__shared_ptr_emplaceIN7httplib6detail4mmapENS_9allocatorIS3_EEE21__on_zero_shared_weakEv, symObjAddr: 0x37918, symBinAddr: 0x100037908, symSize: 0x4 }
  - { offset: 0x1FE81E, size: 0x8, addend: 0x0, symName: __ZNSt3__120__shared_ptr_emplaceIN7httplib6detail4mmapENS_9allocatorIS3_EEE21__on_zero_shared_weakEv, symObjAddr: 0x37918, symBinAddr: 0x100037908, symSize: 0x4 }
  - { offset: 0x1FE8B2, size: 0x8, addend: 0x0, symName: __ZN7httplib6detail14file_extensionERKNSt3__112basic_stringIcNS1_11char_traitsIcEENS1_9allocatorIcEEEE.cold.1, symObjAddr: 0x4600C, symBinAddr: 0x1000B3258, symSize: 0x48 }
  - { offset: 0x1FE97F, size: 0x8, addend: 0x0, symName: __ZNSt3__110__function6__funcIZN7httplib6Server15process_requestERNS2_6StreamERKNS_12basic_stringIcNS_11char_traitsIcEENS_9allocatorIcEEEEiSD_ibRbRKNS_8functionIFvRNS2_7RequestEEEEEUlmmRNS2_8DataSinkEE_NS9_ISO_EEFbmmSN_EED1Ev, symObjAddr: 0x37E0C, symBinAddr: 0x100037CE4, symSize: 0x68 }
  - { offset: 0x1FEAB9, size: 0x8, addend: 0x0, symName: __ZNSt3__110__function6__funcIZN7httplib6Server15process_requestERNS2_6StreamERKNS_12basic_stringIcNS_11char_traitsIcEENS_9allocatorIcEEEEiSD_ibRbRKNS_8functionIFvRNS2_7RequestEEEEEUlmmRNS2_8DataSinkEE_NS9_ISO_EEFbmmSN_EED0Ev, symObjAddr: 0x37E74, symBinAddr: 0x100037D4C, symSize: 0x68 }
  - { offset: 0x1FED28, size: 0x8, addend: 0x0, symName: __ZNKSt3__110__function6__funcIZN7httplib6Server15process_requestERNS2_6StreamERKNS_12basic_stringIcNS_11char_traitsIcEENS_9allocatorIcEEEEiSD_ibRbRKNS_8functionIFvRNS2_7RequestEEEEEUlmmRNS2_8DataSinkEE_NS9_ISO_EEFbmmSN_EE7__cloneEv, symObjAddr: 0x37EDC, symBinAddr: 0x100037DB4, symSize: 0x48 }
  - { offset: 0x1FEFCB, size: 0x8, addend: 0x0, symName: __ZNKSt3__110__function6__funcIZN7httplib6Server15process_requestERNS2_6StreamERKNS_12basic_stringIcNS_11char_traitsIcEENS_9allocatorIcEEEEiSD_ibRbRKNS_8functionIFvRNS2_7RequestEEEEEUlmmRNS2_8DataSinkEE_NS9_ISO_EEFbmmSN_EE7__cloneEPNS0_6__baseISQ_EE, symObjAddr: 0x37F24, symBinAddr: 0x100037DFC, symSize: 0x28 }
  - { offset: 0x1FF001, size: 0x8, addend: 0x0, symName: __ZNKSt3__110__function6__funcIZN7httplib6Server15process_requestERNS2_6StreamERKNS_12basic_stringIcNS_11char_traitsIcEENS_9allocatorIcEEEEiSD_ibRbRKNS_8functionIFvRNS2_7RequestEEEEEUlmmRNS2_8DataSinkEE_NS9_ISO_EEFbmmSN_EE7__cloneEPNS0_6__baseISQ_EE, symObjAddr: 0x37F24, symBinAddr: 0x100037DFC, symSize: 0x28 }
  - { offset: 0x1FF02F, size: 0x8, addend: 0x0, symName: __ZNKSt3__110__function6__funcIZN7httplib6Server15process_requestERNS2_6StreamERKNS_12basic_stringIcNS_11char_traitsIcEENS_9allocatorIcEEEEiSD_ibRbRKNS_8functionIFvRNS2_7RequestEEEEEUlmmRNS2_8DataSinkEE_NS9_ISO_EEFbmmSN_EE7__cloneEPNS0_6__baseISQ_EE, symObjAddr: 0x37F24, symBinAddr: 0x100037DFC, symSize: 0x28 }
  - { offset: 0x1FF154, size: 0x8, addend: 0x0, symName: __ZNSt3__110__function6__funcIZN7httplib6Server15process_requestERNS2_6StreamERKNS_12basic_stringIcNS_11char_traitsIcEENS_9allocatorIcEEEEiSD_ibRbRKNS_8functionIFvRNS2_7RequestEEEEEUlmmRNS2_8DataSinkEE_NS9_ISO_EEFbmmSN_EE7destroyEv, symObjAddr: 0x37F4C, symBinAddr: 0x100037E24, symSize: 0x50 }
  - { offset: 0x1FF27B, size: 0x8, addend: 0x0, symName: __ZNSt3__110__function6__funcIZN7httplib6Server15process_requestERNS2_6StreamERKNS_12basic_stringIcNS_11char_traitsIcEENS_9allocatorIcEEEEiSD_ibRbRKNS_8functionIFvRNS2_7RequestEEEEEUlmmRNS2_8DataSinkEE_NS9_ISO_EEFbmmSN_EE18destroy_deallocateEv, symObjAddr: 0x37F9C, symBinAddr: 0x100037E74, symSize: 0x5C }
  - { offset: 0x1FF4C3, size: 0x8, addend: 0x0, symName: __ZNSt3__110__function6__funcIZN7httplib6Server15process_requestERNS2_6StreamERKNS_12basic_stringIcNS_11char_traitsIcEENS_9allocatorIcEEEEiSD_ibRbRKNS_8functionIFvRNS2_7RequestEEEEEUlmmRNS2_8DataSinkEE_NS9_ISO_EEFbmmSN_EEclEOmSS_SN_, symObjAddr: 0x37FF8, symBinAddr: 0x100037ED0, symSize: 0x68 }
  - { offset: 0x1FF68F, size: 0x8, addend: 0x0, symName: __ZNKSt3__110__function6__funcIZN7httplib6Server15process_requestERNS2_6StreamERKNS_12basic_stringIcNS_11char_traitsIcEENS_9allocatorIcEEEEiSD_ibRbRKNS_8functionIFvRNS2_7RequestEEEEEUlmmRNS2_8DataSinkEE_NS9_ISO_EEFbmmSN_EE6targetERKSt9type_info, symObjAddr: 0x38060, symBinAddr: 0x100037F38, symSize: 0x64 }
  - { offset: 0x1FF69A, size: 0x8, addend: 0x0, symName: __ZNKSt3__110__function6__funcIZN7httplib6Server15process_requestERNS2_6StreamERKNS_12basic_stringIcNS_11char_traitsIcEENS_9allocatorIcEEEEiSD_ibRbRKNS_8functionIFvRNS2_7RequestEEEEEUlmmRNS2_8DataSinkEE_NS9_ISO_EEFbmmSN_EE6targetERKSt9type_info, symObjAddr: 0x38060, symBinAddr: 0x100037F38, symSize: 0x64 }
  - { offset: 0x1FF74D, size: 0x8, addend: 0x0, symName: __ZNKSt3__110__function6__funcIZN7httplib6Server15process_requestERNS2_6StreamERKNS_12basic_stringIcNS_11char_traitsIcEENS_9allocatorIcEEEEiSD_ibRbRKNS_8functionIFvRNS2_7RequestEEEEEUlmmRNS2_8DataSinkEE_NS9_ISO_EEFbmmSN_EE11target_typeEv, symObjAddr: 0x380C4, symBinAddr: 0x100037F9C, symSize: 0xC }
  - { offset: 0x1FFCBB, size: 0x8, addend: 0x0, symName: __ZN7httplib6detail17PathParamsMatcherC2ERKNSt3__112basic_stringIcNS2_11char_traitsIcEENS2_9allocatorIcEEEE, symObjAddr: 0x3A108, symBinAddr: 0x100039FCC, symSize: 0x65C }
  - { offset: 0x201BE1, size: 0x8, addend: 0x0, symName: __ZNSt3__111basic_regexIcNS_12regex_traitsIcEEEC2B8ne200100INS_11char_traitsIcEENS_9allocatorIcEEEERKNS_12basic_stringIcT_T0_EENS_15regex_constants18syntax_option_typeE, symObjAddr: 0x3B810, symBinAddr: 0x10003B4E4, symSize: 0xD4 }
  - { offset: 0x201F3D, size: 0x8, addend: 0x0, symName: __ZNSt3__16vectorINS_4pairINS_10unique_ptrIN7httplib6detail11MatcherBaseENS_14default_deleteIS5_EEEENS_8functionIFvRKNS3_7RequestERNS3_8ResponseEEEEEENS_9allocatorISH_EEE26__swap_out_circular_bufferERNS_14__split_bufferISH_RSJ_EE, symObjAddr: 0x39EFC, symBinAddr: 0x100039DD4, symSize: 0x160 }
  - { offset: 0x202357, size: 0x8, addend: 0x0, symName: __ZN7httplib6detail17PathParamsMatcherC2ERKNSt3__112basic_stringIcNS2_11char_traitsIcEENS2_9allocatorIcEEEE, symObjAddr: 0x3A108, symBinAddr: 0x100039FCC, symSize: 0x65C }
  - { offset: 0x202362, size: 0x8, addend: 0x0, symName: __ZNSt3__114__split_bufferINS_4pairINS_10unique_ptrIN7httplib6detail11MatcherBaseENS_14default_deleteIS5_EEEENS_8functionIFvRKNS3_7RequestERNS3_8ResponseEEEEEERNS_9allocatorISH_EEED1Ev, symObjAddr: 0x3A05C, symBinAddr: 0x100039F34, symSize: 0x98 }
  - { offset: 0x20283E, size: 0x8, addend: 0x0, symName: __ZNSt3__112__hash_tableINS_12basic_stringIcNS_11char_traitsIcEENS_9allocatorIcEEEENS_4hashIS6_EENS_8equal_toIS6_EENS4_IS6_EEE4findIS6_EENS_15__hash_iteratorIPNS_11__hash_nodeIS6_PvEEEERKT_, symObjAddr: 0x3AE04, symBinAddr: 0x10003AC58, symSize: 0x1B4 }
  - { offset: 0x202D85, size: 0x8, addend: 0x0, symName: __ZN7httplib6detail17PathParamsMatcherD1Ev, symObjAddr: 0x3A7CC, symBinAddr: 0x10003A628, symSize: 0xE8 }
  - { offset: 0x20339B, size: 0x8, addend: 0x0, symName: __ZN7httplib6detail17PathParamsMatcherD0Ev, symObjAddr: 0x3A8B4, symBinAddr: 0x10003A710, symSize: 0xE8 }
  - { offset: 0x203C34, size: 0x8, addend: 0x0, symName: __ZNK7httplib6detail17PathParamsMatcher5matchERNS_7RequestE, symObjAddr: 0x3A99C, symBinAddr: 0x10003A7F8, symSize: 0x460 }
  - { offset: 0x204E70, size: 0x8, addend: 0x0, symName: __ZNSt3__112__hash_tableINS_17__hash_value_typeINS_12basic_stringIcNS_11char_traitsIcEENS_9allocatorIcEEEES7_EENS_22__unordered_map_hasherIS7_S8_NS_4hashIS7_EENS_8equal_toIS7_EELb1EEENS_21__unordered_map_equalIS7_S8_SD_SB_Lb1EEENS5_IS8_EEE25__emplace_unique_key_argsIS7_JRKS7_S7_EEENS_4pairINS_15__hash_iteratorIPNS_11__hash_nodeIS8_PvEEEEbEERKT_DpOT0_, symObjAddr: 0x3B138, symBinAddr: 0x10003AE0C, symSize: 0x430 }
  - { offset: 0x204EA1, size: 0x8, addend: 0x0, symName: __ZNSt3__112__hash_tableINS_17__hash_value_typeINS_12basic_stringIcNS_11char_traitsIcEENS_9allocatorIcEEEES7_EENS_22__unordered_map_hasherIS7_S8_NS_4hashIS7_EENS_8equal_toIS7_EELb1EEENS_21__unordered_map_equalIS7_S8_SD_SB_Lb1EEENS5_IS8_EEE25__emplace_unique_key_argsIS7_JRKS7_S7_EEENS_4pairINS_15__hash_iteratorIPNS_11__hash_nodeIS8_PvEEEEbEERKT_DpOT0_, symObjAddr: 0x3B138, symBinAddr: 0x10003AE0C, symSize: 0x430 }
  - { offset: 0x2057F3, size: 0x8, addend: 0x0, symName: __ZN7httplib6detail11MatcherBaseD1Ev, symObjAddr: 0x3ADFC, symBinAddr: 0x1000B2E00, symSize: 0x4 }
  - { offset: 0x20581C, size: 0x8, addend: 0x0, symName: __ZN7httplib6detail11MatcherBaseD0Ev, symObjAddr: 0x3AE00, symBinAddr: 0x1000B2E04, symSize: 0x4 }
  - { offset: 0x205A9C, size: 0x8, addend: 0x0, symName: __ZN7httplib6detail12RegexMatcherD1Ev, symObjAddr: 0x3B568, symBinAddr: 0x10003B23C, symSize: 0x84 }
  - { offset: 0x205CDC, size: 0x8, addend: 0x0, symName: __ZN7httplib6detail12RegexMatcherD0Ev, symObjAddr: 0x3B5EC, symBinAddr: 0x10003B2C0, symSize: 0x84 }
  - { offset: 0x205F22, size: 0x8, addend: 0x0, symName: __ZNK7httplib6detail12RegexMatcher5matchERNS_7RequestE, symObjAddr: 0x3B670, symBinAddr: 0x10003B344, symSize: 0x1A0 }
  - { offset: 0x206879, size: 0x8, addend: 0x0, symName: __ZNSt3__111basic_regexIcNS_12regex_traitsIcEEE7__parseINS_11__wrap_iterIPKcEEEET_S9_S9_, symObjAddr: 0x3B8E4, symBinAddr: 0x10003B5B8, symSize: 0x200 }
  - { offset: 0x206D63, size: 0x8, addend: 0x0, symName: __ZNSt3__111basic_regexIcNS_12regex_traitsIcEEE13__parse_egrepINS_11__wrap_iterIPKcEEEET_S9_S9_, symObjAddr: 0x3C1B0, symBinAddr: 0x10003BE84, symSize: 0x1A0 }
  - { offset: 0x2072CC, size: 0x8, addend: 0x0, symName: __ZNSt3__111basic_regexIcNS_12regex_traitsIcEEE24__parse_extended_reg_expINS_11__wrap_iterIPKcEEEET_S9_S9_, symObjAddr: 0x3BEAC, symBinAddr: 0x10003BB80, symSize: 0x164 }
  - { offset: 0x207604, size: 0x8, addend: 0x0, symName: __ZNSt3__111basic_regexIcNS_12regex_traitsIcEEE12__parse_grepINS_11__wrap_iterIPKcEEEET_S9_S9_, symObjAddr: 0x3C010, symBinAddr: 0x10003BCE4, symSize: 0x1A0 }
  - { offset: 0x207618, size: 0x8, addend: 0x0, symName: __ZNSt3__111basic_regexIcNS_12regex_traitsIcEEE21__parse_basic_reg_expINS_11__wrap_iterIPKcEEEET_S9_S9_, symObjAddr: 0x3BD2C, symBinAddr: 0x10003BA00, symSize: 0x180 }
  - { offset: 0x20793B, size: 0x8, addend: 0x0, symName: __ZNSt3__111basic_regexIcNS_12regex_traitsIcEEE24__parse_extended_reg_expINS_11__wrap_iterIPKcEEEET_S9_S9_, symObjAddr: 0x3BEAC, symBinAddr: 0x10003BB80, symSize: 0x164 }
  - { offset: 0x20794F, size: 0x8, addend: 0x0, symName: __ZNSt3__111basic_regexIcNS_12regex_traitsIcEEE12__parse_grepINS_11__wrap_iterIPKcEEEET_S9_S9_, symObjAddr: 0x3C010, symBinAddr: 0x10003BCE4, symSize: 0x1A0 }
  - { offset: 0x207EB8, size: 0x8, addend: 0x0, symName: __ZNSt3__111basic_regexIcNS_12regex_traitsIcEEE16__parse_ecma_expINS_11__wrap_iterIPKcEEEET_S9_S9_, symObjAddr: 0x3BAE4, symBinAddr: 0x10003B7B8, symSize: 0x248 }
  - { offset: 0x2084D8, size: 0x8, addend: 0x0, symName: __ZNSt3__111basic_regexIcNS_12regex_traitsIcEEE17__parse_assertionINS_11__wrap_iterIPKcEEEET_S9_S9_, symObjAddr: 0x3C350, symBinAddr: 0x10003C024, symSize: 0x30C }
  - { offset: 0x2089F2, size: 0x8, addend: 0x0, symName: __ZNSt3__111basic_regexIcNS_12regex_traitsIcEEE12__parse_atomINS_11__wrap_iterIPKcEEEET_S9_S9_, symObjAddr: 0x3C65C, symBinAddr: 0x10003C330, symSize: 0x268 }
  - { offset: 0x208D5D, size: 0x8, addend: 0x0, symName: __ZNSt3__111basic_regexIcNS_12regex_traitsIcEEE23__parse_ERE_dupl_symbolINS_11__wrap_iterIPKcEEEET_S9_S9_PNS_16__owns_one_stateIcEEjj, symObjAddr: 0x3C8C4, symBinAddr: 0x10003C598, symSize: 0x378 }
  - { offset: 0x208D71, size: 0x8, addend: 0x0, symName: __ZNSt3__111basic_regexIcNS_12regex_traitsIcEEE23__parse_ERE_dupl_symbolINS_11__wrap_iterIPKcEEEET_S9_S9_PNS_16__owns_one_stateIcEEjj, symObjAddr: 0x3C8C4, symBinAddr: 0x10003C598, symSize: 0x378 }
  - { offset: 0x209399, size: 0x8, addend: 0x0, symName: __ZNSt3__111basic_regexIcNS_12regex_traitsIcEEE19__parse_atom_escapeINS_11__wrap_iterIPKcEEEET_S9_S9_, symObjAddr: 0x3CC3C, symBinAddr: 0x10003C910, symSize: 0x14C }
  - { offset: 0x20944F, size: 0x8, addend: 0x0, symName: __ZNSt3__111basic_regexIcNS_12regex_traitsIcEEE18__parse_nondupl_REINS_11__wrap_iterIPKcEEEET_S9_S9_, symObjAddr: 0x3E97C, symBinAddr: 0x10003E5D4, symSize: 0x20C }
  - { offset: 0x209907, size: 0x8, addend: 0x0, symName: __ZNSt3__111basic_regexIcNS_12regex_traitsIcEEE22__parse_RE_dupl_symbolINS_11__wrap_iterIPKcEEEET_S9_S9_PNS_16__owns_one_stateIcEEjj, symObjAddr: 0x3EB88, symBinAddr: 0x10003E7E0, symSize: 0x274 }
  - { offset: 0x20991B, size: 0x8, addend: 0x0, symName: __ZNSt3__111basic_regexIcNS_12regex_traitsIcEEE22__parse_RE_dupl_symbolINS_11__wrap_iterIPKcEEEET_S9_S9_PNS_16__owns_one_stateIcEEjj, symObjAddr: 0x3EB88, symBinAddr: 0x10003E7E0, symSize: 0x274 }
  - { offset: 0x209E11, size: 0x8, addend: 0x0, symName: __ZNSt3__111basic_regexIcNS_12regex_traitsIcEEE32__parse_one_char_or_coll_elem_REINS_11__wrap_iterIPKcEEEET_S9_S9_, symObjAddr: 0x3EDFC, symBinAddr: 0x10003EA54, symSize: 0x18C }
  - { offset: 0x209E68, size: 0x8, addend: 0x0, symName: __ZNSt3__111basic_regexIcNS_12regex_traitsIcEEE22__parse_ERE_expressionINS_11__wrap_iterIPKcEEEET_S9_S9_, symObjAddr: 0x3EF88, symBinAddr: 0x10003EBE0, symSize: 0x1F0 }
  - { offset: 0x20A215, size: 0x8, addend: 0x0, symName: __ZNSt3__111basic_regexIcNS_12regex_traitsIcEEE33__parse_one_char_or_coll_elem_EREINS_11__wrap_iterIPKcEEEET_S9_S9_, symObjAddr: 0x3F178, symBinAddr: 0x10003EDD0, symSize: 0x158 }
  - { offset: 0x20A229, size: 0x8, addend: 0x0, symName: __ZNSt3__111basic_regexIcNS_12regex_traitsIcEEE26__parse_bracket_expressionINS_11__wrap_iterIPKcEEEET_S9_S9_, symObjAddr: 0x3CD88, symBinAddr: 0x10003CA5C, symSize: 0x158 }
  - { offset: 0x20A456, size: 0x8, addend: 0x0, symName: __ZNSt3__111basic_regexIcNS_12regex_traitsIcEEE19__parse_atom_escapeINS_11__wrap_iterIPKcEEEET_S9_S9_, symObjAddr: 0x3CC3C, symBinAddr: 0x10003C910, symSize: 0x14C }
  - { offset: 0x20A5C0, size: 0x8, addend: 0x0, symName: __ZNSt3__111basic_regexIcNS_12regex_traitsIcEEE26__parse_bracket_expressionINS_11__wrap_iterIPKcEEEET_S9_S9_, symObjAddr: 0x3CD88, symBinAddr: 0x10003CA5C, symSize: 0x158 }
  - { offset: 0x20A6B7, size: 0x8, addend: 0x0, symName: __ZNSt3__111basic_regexIcNS_12regex_traitsIcEEE30__parse_character_class_escapeINS_11__wrap_iterIPKcEEEET_S9_S9_, symObjAddr: 0x3CF5C, symBinAddr: 0x10003CBB4, symSize: 0x25C }
  - { offset: 0x20AB27, size: 0x8, addend: 0x0, symName: __ZNSt3__111basic_regexIcNS_12regex_traitsIcEEE24__parse_character_escapeINS_11__wrap_iterIPKcEEEET_S9_S9_PNS_12basic_stringIcNS_11char_traitsIcEENS_9allocatorIcEEEE, symObjAddr: 0x3D1B8, symBinAddr: 0x10003CE10, symSize: 0x4F8 }
  - { offset: 0x20B77C, size: 0x8, addend: 0x0, symName: __ZNSt3__111basic_regexIcNS_12regex_traitsIcEEE23__parse_expression_termINS_11__wrap_iterIPKcEEEET_S9_S9_PNS_20__bracket_expressionIcS2_EE, symObjAddr: 0x3D6B0, symBinAddr: 0x10003D308, symSize: 0x44C }
  - { offset: 0x20B7E1, size: 0x8, addend: 0x0, symName: __ZNSt3__111basic_regexIcNS_12regex_traitsIcEEE23__parse_expression_termINS_11__wrap_iterIPKcEEEET_S9_S9_PNS_20__bracket_expressionIcS2_EE, symObjAddr: 0x3D6B0, symBinAddr: 0x10003D308, symSize: 0x44C }
  - { offset: 0x20C557, size: 0x8, addend: 0x0, symName: __ZNSt3__111basic_regexIcNS_12regex_traitsIcEEE25__parse_equivalence_classINS_11__wrap_iterIPKcEEEET_S9_S9_PNS_20__bracket_expressionIcS2_EE, symObjAddr: 0x3DAFC, symBinAddr: 0x10003D754, symSize: 0x274 }
  - { offset: 0x20CFA8, size: 0x8, addend: 0x0, symName: __ZNSt3__111basic_regexIcNS_12regex_traitsIcEEE23__parse_character_classINS_11__wrap_iterIPKcEEEET_S9_S9_PNS_20__bracket_expressionIcS2_EE, symObjAddr: 0x3DD70, symBinAddr: 0x10003D9C8, symSize: 0xAC }
  - { offset: 0x20D202, size: 0x8, addend: 0x0, symName: __ZNSt3__111basic_regexIcNS_12regex_traitsIcEEE24__parse_collating_symbolINS_11__wrap_iterIPKcEEEET_S9_S9_RNS_12basic_stringIcNS_11char_traitsIcEENS_9allocatorIcEEEE, symObjAddr: 0x3DE1C, symBinAddr: 0x10003DA74, symSize: 0xE0 }
  - { offset: 0x20D222, size: 0x8, addend: 0x0, symName: __ZNSt3__111basic_regexIcNS_12regex_traitsIcEEE24__parse_collating_symbolINS_11__wrap_iterIPKcEEEET_S9_S9_RNS_12basic_stringIcNS_11char_traitsIcEENS_9allocatorIcEEEE, symObjAddr: 0x3DE1C, symBinAddr: 0x10003DA74, symSize: 0xE0 }
  - { offset: 0x20D570, size: 0x8, addend: 0x0, symName: __ZNSt3__111basic_regexIcNS_12regex_traitsIcEEE20__parse_class_escapeINS_11__wrap_iterIPKcEEEET_S9_S9_RNS_12basic_stringIcNS_11char_traitsIcEENS_9allocatorIcEEEEPNS_20__bracket_expressionIcS2_EE, symObjAddr: 0x3DEFC, symBinAddr: 0x10003DB54, symSize: 0x1E0 }
  - { offset: 0x20D584, size: 0x8, addend: 0x0, symName: __ZNSt3__111basic_regexIcNS_12regex_traitsIcEEE18__parse_awk_escapeINS_11__wrap_iterIPKcEEEET_S9_S9_PNS_12basic_stringIcNS_11char_traitsIcEENS_9allocatorIcEEEE, symObjAddr: 0x3E0DC, symBinAddr: 0x10003DD34, symSize: 0x4C8 }
  - { offset: 0x20DF6C, size: 0x8, addend: 0x0, symName: __ZNKSt3__112regex_traitsIcE20__lookup_collatenameINS_11__wrap_iterIPKcEEEENS_12basic_stringIcNS_11char_traitsIcEENS_9allocatorIcEEEET_SD_c, symObjAddr: 0x3E5A4, symBinAddr: 0x10003E1FC, symSize: 0x28C }
  - { offset: 0x20DF80, size: 0x8, addend: 0x0, symName: __ZNSt3__111basic_regexIcNS_12regex_traitsIcEEE20__parse_class_escapeINS_11__wrap_iterIPKcEEEET_S9_S9_RNS_12basic_stringIcNS_11char_traitsIcEENS_9allocatorIcEEEEPNS_20__bracket_expressionIcS2_EE, symObjAddr: 0x3DEFC, symBinAddr: 0x10003DB54, symSize: 0x1E0 }
  - { offset: 0x20E31F, size: 0x8, addend: 0x0, symName: __ZNSt3__111basic_regexIcNS_12regex_traitsIcEEE18__parse_awk_escapeINS_11__wrap_iterIPKcEEEET_S9_S9_PNS_12basic_stringIcNS_11char_traitsIcEENS_9allocatorIcEEEE, symObjAddr: 0x3E0DC, symBinAddr: 0x10003DD34, symSize: 0x4C8 }
  - { offset: 0x20E3BD, size: 0x8, addend: 0x0, symName: __ZNKSt3__112regex_traitsIcE20__lookup_collatenameINS_11__wrap_iterIPKcEEEENS_12basic_stringIcNS_11char_traitsIcEENS_9allocatorIcEEEET_SD_c, symObjAddr: 0x3E5A4, symBinAddr: 0x10003E1FC, symSize: 0x28C }
  - { offset: 0x20EFF8, size: 0x8, addend: 0x0, symName: __ZNKSt3__112regex_traitsIcE18__lookup_classnameINS_11__wrap_iterIPKcEEEEjT_S7_bc, symObjAddr: 0x3E830, symBinAddr: 0x10003E488, symSize: 0x14C }
  - { offset: 0x20F797, size: 0x8, addend: 0x0, symName: __ZNSt3__111basic_regexIcNS_12regex_traitsIcEEE32__parse_one_char_or_coll_elem_REINS_11__wrap_iterIPKcEEEET_S9_S9_, symObjAddr: 0x3EDFC, symBinAddr: 0x10003EA54, symSize: 0x18C }
  - { offset: 0x20FA89, size: 0x8, addend: 0x0, symName: __ZNSt3__111basic_regexIcNS_12regex_traitsIcEEE33__parse_one_char_or_coll_elem_EREINS_11__wrap_iterIPKcEEEET_S9_S9_, symObjAddr: 0x3F178, symBinAddr: 0x10003EDD0, symSize: 0x158 }
  - { offset: 0x20FCA7, size: 0x8, addend: 0x0, symName: __ZNSt3__111basic_regexIcNS_12regex_traitsIcEEE23__parse_QUOTED_CHAR_EREINS_11__wrap_iterIPKcEEEET_S9_S9_, symObjAddr: 0x3F2D0, symBinAddr: 0x10003EF28, symSize: 0xC8 }
  - { offset: 0x20FDB1, size: 0x8, addend: 0x0, symName: '__ZNSt3__110__function6__funcIZ4mainE3$_0NS_9allocatorIS2_EEFvRKN7httplib7RequestERNS5_8ResponseEEED1Ev', symObjAddr: 0x3F398, symBinAddr: 0x10003EFF0, symSize: 0x4 }
  - { offset: 0x20FDDD, size: 0x8, addend: 0x0, symName: '__ZNSt3__110__function6__funcIZ4mainE3$_0NS_9allocatorIS2_EEFvRKN7httplib7RequestERNS5_8ResponseEEED0Ev', symObjAddr: 0x3F39C, symBinAddr: 0x10003EFF4, symSize: 0x4 }
  - { offset: 0x20FECD, size: 0x8, addend: 0x0, symName: '__ZNKSt3__110__function6__funcIZ4mainE3$_0NS_9allocatorIS2_EEFvRKN7httplib7RequestERNS5_8ResponseEEE7__cloneEv', symObjAddr: 0x3F3A0, symBinAddr: 0x10003EFF8, symSize: 0x48 }
  - { offset: 0x2100DE, size: 0x8, addend: 0x0, symName: '__ZNKSt3__110__function6__funcIZ4mainE3$_0NS_9allocatorIS2_EEFvRKN7httplib7RequestERNS5_8ResponseEEE7__cloneEPNS0_6__baseISB_EE', symObjAddr: 0x3F3E8, symBinAddr: 0x10003F040, symSize: 0x28 }
  - { offset: 0x210114, size: 0x8, addend: 0x0, symName: '__ZNKSt3__110__function6__funcIZ4mainE3$_0NS_9allocatorIS2_EEFvRKN7httplib7RequestERNS5_8ResponseEEE7__cloneEPNS0_6__baseISB_EE', symObjAddr: 0x3F3E8, symBinAddr: 0x10003F040, symSize: 0x28 }
  - { offset: 0x210139, size: 0x8, addend: 0x0, symName: '__ZNKSt3__110__function6__funcIZ4mainE3$_0NS_9allocatorIS2_EEFvRKN7httplib7RequestERNS5_8ResponseEEE7__cloneEPNS0_6__baseISB_EE', symObjAddr: 0x3F3E8, symBinAddr: 0x10003F040, symSize: 0x28 }
  - { offset: 0x2101AD, size: 0x8, addend: 0x0, symName: '__ZNSt3__110__function6__funcIZ4mainE3$_0NS_9allocatorIS2_EEFvRKN7httplib7RequestERNS5_8ResponseEEE7destroyEv', symObjAddr: 0x3F410, symBinAddr: 0x10003F068, symSize: 0x4 }
  - { offset: 0x210202, size: 0x8, addend: 0x0, symName: '__ZNSt3__110__function6__funcIZ4mainE3$_0NS_9allocatorIS2_EEFvRKN7httplib7RequestERNS5_8ResponseEEE18destroy_deallocateEv', symObjAddr: 0x3F414, symBinAddr: 0x10003F06C, symSize: 0x4 }
  - { offset: 0x210235, size: 0x8, addend: 0x0, symName: '__ZNSt3__110__function6__funcIZ4mainE3$_0NS_9allocatorIS2_EEFvRKN7httplib7RequestERNS5_8ResponseEEE18destroy_deallocateEv', symObjAddr: 0x3F414, symBinAddr: 0x10003F06C, symSize: 0x4 }
  - { offset: 0x210258, size: 0x8, addend: 0x0, symName: '__ZNSt3__110__function6__funcIZ4mainE3$_0NS_9allocatorIS2_EEFvRKN7httplib7RequestERNS5_8ResponseEEE18destroy_deallocateEv', symObjAddr: 0x3F414, symBinAddr: 0x10003F06C, symSize: 0x4 }
  - { offset: 0x21028C, size: 0x8, addend: 0x0, symName: '__ZNSt3__110__function6__funcIZ4mainE3$_0NS_9allocatorIS2_EEFvRKN7httplib7RequestERNS5_8ResponseEEE18destroy_deallocateEv', symObjAddr: 0x3F414, symBinAddr: 0x10003F06C, symSize: 0x4 }
  - { offset: 0x2107F3, size: 0x8, addend: 0x0, symName: '__ZNSt3__110__function6__funcIZ4mainE3$_0NS_9allocatorIS2_EEFvRKN7httplib7RequestERNS5_8ResponseEEEclES8_SA_', symObjAddr: 0x3F418, symBinAddr: 0x10003F070, symSize: 0x9C8 }
  - { offset: 0x212AE8, size: 0x8, addend: 0x0, symName: __ZN7httplib8Response11set_contentEPKcmRKNSt3__112basic_stringIcNS3_11char_traitsIcEENS3_9allocatorIcEEEE, symObjAddr: 0x424BC, symBinAddr: 0x1000420A8, symSize: 0x24C }
  - { offset: 0x21362D, size: 0x8, addend: 0x0, symName: __ZN7httplib8Response28set_chunked_content_providerERKNSt3__112basic_stringIcNS1_11char_traitsIcEENS1_9allocatorIcEEEENS1_8functionIFbmRNS_8DataSinkEEEENSA_IFvbEEE, symObjAddr: 0x3FF98, symBinAddr: 0x10003FBF0, symSize: 0x214 }
  - { offset: 0x213E23, size: 0x8, addend: 0x0, symName: '__ZNKSt3__110__function6__funcIZ4mainE3$_0NS_9allocatorIS2_EEFvRKN7httplib7RequestERNS5_8ResponseEEE6targetERKSt9type_info', symObjAddr: 0x3FDE0, symBinAddr: 0x10003FA38, symSize: 0x64 }
  - { offset: 0x213ED6, size: 0x8, addend: 0x0, symName: '__ZNKSt3__110__function6__funcIZ4mainE3$_0NS_9allocatorIS2_EEFvRKN7httplib7RequestERNS5_8ResponseEEE11target_typeEv', symObjAddr: 0x3FE44, symBinAddr: 0x10003FA9C, symSize: 0xC }
  - { offset: 0x214186, size: 0x8, addend: 0x0, symName: __ZNSt3__18functionIFbmmRN7httplib8DataSinkEEEaSINS1_6detail22ContentProviderAdapterEvEERS5_OT_, symObjAddr: 0x40398, symBinAddr: 0x10003FF98, symSize: 0x1B0 }
  - { offset: 0x214BB0, size: 0x8, addend: 0x0, symName: __ZNSt3__110__function12__value_funcIFbmmRN7httplib8DataSinkEEE4swapB8ne200100ERS6_, symObjAddr: 0x4083C, symBinAddr: 0x10004043C, symSize: 0x198 }
  - { offset: 0x214D39, size: 0x8, addend: 0x0, symName: __ZNSt3__110__function6__funcIN7httplib6detail22ContentProviderAdapterENS_9allocatorIS4_EEFbmmRNS2_8DataSinkEEED1Ev, symObjAddr: 0x40548, symBinAddr: 0x100040148, symSize: 0x58 }
  - { offset: 0x214E97, size: 0x8, addend: 0x0, symName: __ZNSt3__110__function6__funcIN7httplib6detail22ContentProviderAdapterENS_9allocatorIS4_EEFbmmRNS2_8DataSinkEEED0Ev, symObjAddr: 0x405A0, symBinAddr: 0x1000401A0, symSize: 0x58 }
  - { offset: 0x2152C2, size: 0x8, addend: 0x0, symName: __ZNKSt3__110__function6__funcIN7httplib6detail22ContentProviderAdapterENS_9allocatorIS4_EEFbmmRNS2_8DataSinkEEE7__cloneEv, symObjAddr: 0x405F8, symBinAddr: 0x1000401F8, symSize: 0x94 }
  - { offset: 0x215673, size: 0x8, addend: 0x0, symName: __ZNKSt3__110__function6__funcIN7httplib6detail22ContentProviderAdapterENS_9allocatorIS4_EEFbmmRNS2_8DataSinkEEE7__cloneEPNS0_6__baseIS9_EE, symObjAddr: 0x4068C, symBinAddr: 0x10004028C, symSize: 0x7C }
  - { offset: 0x21583A, size: 0x8, addend: 0x0, symName: __ZNSt3__110__function6__funcIN7httplib6detail22ContentProviderAdapterENS_9allocatorIS4_EEFbmmRNS2_8DataSinkEEE7destroyEv, symObjAddr: 0x40708, symBinAddr: 0x100040308, symSize: 0x38 }
  - { offset: 0x215951, size: 0x8, addend: 0x0, symName: __ZNSt3__110__function6__funcIN7httplib6detail22ContentProviderAdapterENS_9allocatorIS4_EEFbmmRNS2_8DataSinkEEE18destroy_deallocateEv, symObjAddr: 0x40740, symBinAddr: 0x100040340, symSize: 0x4C }
  - { offset: 0x215C1D, size: 0x8, addend: 0x0, symName: __ZNSt3__110__function6__funcIN7httplib6detail22ContentProviderAdapterENS_9allocatorIS4_EEFbmmRNS2_8DataSinkEEEclEOmSB_S8_, symObjAddr: 0x4078C, symBinAddr: 0x10004038C, symSize: 0x40 }
  - { offset: 0x215D66, size: 0x8, addend: 0x0, symName: __ZNKSt3__110__function6__funcIN7httplib6detail22ContentProviderAdapterENS_9allocatorIS4_EEFbmmRNS2_8DataSinkEEE6targetERKSt9type_info, symObjAddr: 0x407CC, symBinAddr: 0x1000403CC, symSize: 0x64 }
  - { offset: 0x215D71, size: 0x8, addend: 0x0, symName: __ZNKSt3__110__function6__funcIN7httplib6detail22ContentProviderAdapterENS_9allocatorIS4_EEFbmmRNS2_8DataSinkEEE6targetERKSt9type_info, symObjAddr: 0x407CC, symBinAddr: 0x1000403CC, symSize: 0x64 }
  - { offset: 0x215E24, size: 0x8, addend: 0x0, symName: __ZNKSt3__110__function6__funcIN7httplib6detail22ContentProviderAdapterENS_9allocatorIS4_EEFbmmRNS2_8DataSinkEEE11target_typeEv, symObjAddr: 0x40830, symBinAddr: 0x100040430, symSize: 0xC }
  - { offset: 0x215EA6, size: 0x8, addend: 0x0, symName: '__ZNSt3__110__function6__funcIZZ4mainENK3$_0clERKN7httplib7RequestERNS3_8ResponseEEUlmRNS3_8DataSinkEE_NS_9allocatorISB_EEFbmSA_EED1Ev', symObjAddr: 0x409D4, symBinAddr: 0x1000405D4, symSize: 0x64 }
  - { offset: 0x21613C, size: 0x8, addend: 0x0, symName: '__ZNSt3__110__function6__funcIZZ4mainENK3$_0clERKN7httplib7RequestERNS3_8ResponseEEUlmRNS3_8DataSinkEE_NS_9allocatorISB_EEFbmSA_EED0Ev', symObjAddr: 0x40A38, symBinAddr: 0x100040638, symSize: 0x64 }
  - { offset: 0x216601, size: 0x8, addend: 0x0, symName: '__ZNKSt3__110__function6__funcIZZ4mainENK3$_0clERKN7httplib7RequestERNS3_8ResponseEEUlmRNS3_8DataSinkEE_NS_9allocatorISB_EEFbmSA_EE7__cloneEv', symObjAddr: 0x40A9C, symBinAddr: 0x10004069C, symSize: 0xF4 }
  - { offset: 0x216AB9, size: 0x8, addend: 0x0, symName: '__ZNKSt3__110__function6__funcIZZ4mainENK3$_0clERKN7httplib7RequestERNS3_8ResponseEEUlmRNS3_8DataSinkEE_NS_9allocatorISB_EEFbmSA_EE7__cloneEPNS0_6__baseISE_EE', symObjAddr: 0x40B90, symBinAddr: 0x100040790, symSize: 0xD0 }
  - { offset: 0x216D3C, size: 0x8, addend: 0x0, symName: '__ZNSt3__110__function6__funcIZZ4mainENK3$_0clERKN7httplib7RequestERNS3_8ResponseEEUlmRNS3_8DataSinkEE_NS_9allocatorISB_EEFbmSA_EE7destroyEv', symObjAddr: 0x40C60, symBinAddr: 0x100040860, symSize: 0x4C }
  - { offset: 0x216F7B, size: 0x8, addend: 0x0, symName: '__ZNSt3__110__function6__funcIZZ4mainENK3$_0clERKN7httplib7RequestERNS3_8ResponseEEUlmRNS3_8DataSinkEE_NS_9allocatorISB_EEFbmSA_EE18destroy_deallocateEv', symObjAddr: 0x40CAC, symBinAddr: 0x1000408AC, symSize: 0x58 }
  - { offset: 0x217853, size: 0x8, addend: 0x0, symName: '__ZNSt3__110__function6__funcIZZ4mainENK3$_0clERKN7httplib7RequestERNS3_8ResponseEEUlmRNS3_8DataSinkEE_NS_9allocatorISB_EEFbmSA_EEclEOmSA_', symObjAddr: 0x40D04, symBinAddr: 0x100040904, symSize: 0x8D4 }
  - { offset: 0x21A45C, size: 0x8, addend: 0x0, symName: __ZL19create_stream_chunkiRKNSt3__112basic_stringIcNS_11char_traitsIcEENS_9allocatorIcEEEES7_S7_S7_b, symObjAddr: 0x41648, symBinAddr: 0x100041248, symSize: 0x5D0 }
  - { offset: 0x21AE24, size: 0x8, addend: 0x0, symName: '__ZNKSt3__110__function6__funcIZZ4mainENK3$_0clERKN7httplib7RequestERNS3_8ResponseEEUlmRNS3_8DataSinkEE_NS_9allocatorISB_EEFbmSA_EE6targetERKSt9type_info', symObjAddr: 0x415D8, symBinAddr: 0x1000411D8, symSize: 0x64 }
  - { offset: 0x21AED7, size: 0x8, addend: 0x0, symName: '__ZNKSt3__110__function6__funcIZZ4mainENK3$_0clERKN7httplib7RequestERNS3_8ResponseEEUlmRNS3_8DataSinkEE_NS_9allocatorISB_EEFbmSA_EE11target_typeEv', symObjAddr: 0x4163C, symBinAddr: 0x10004123C, symSize: 0xC }
  - { offset: 0x21B189, size: 0x8, addend: 0x0, symName: '__ZNSt3__110__function6__funcIZZZ4mainENK3$_0clERKN7httplib7RequestERNS3_8ResponseEENKUlmRNS3_8DataSinkEE_clEmSA_EUlRKNS_12basic_stringIcNS_11char_traitsIcEENS_9allocatorIcEEEEjE_NSF_ISK_EEFbSJ_jEED1Ev', symObjAddr: 0x4230C, symBinAddr: 0x100041EF8, symSize: 0x4 }
  - { offset: 0x21B1B5, size: 0x8, addend: 0x0, symName: '__ZNSt3__110__function6__funcIZZZ4mainENK3$_0clERKN7httplib7RequestERNS3_8ResponseEENKUlmRNS3_8DataSinkEE_clEmSA_EUlRKNS_12basic_stringIcNS_11char_traitsIcEENS_9allocatorIcEEEEjE_NSF_ISK_EEFbSJ_jEED0Ev', symObjAddr: 0x42310, symBinAddr: 0x100041EFC, symSize: 0x4 }
  - { offset: 0x21B2A5, size: 0x8, addend: 0x0, symName: '__ZNKSt3__110__function6__funcIZZZ4mainENK3$_0clERKN7httplib7RequestERNS3_8ResponseEENKUlmRNS3_8DataSinkEE_clEmSA_EUlRKNS_12basic_stringIcNS_11char_traitsIcEENS_9allocatorIcEEEEjE_NSF_ISK_EEFbSJ_jEE7__cloneEv', symObjAddr: 0x42314, symBinAddr: 0x100041F00, symSize: 0x40 }
  - { offset: 0x21B4B6, size: 0x8, addend: 0x0, symName: '__ZNKSt3__110__function6__funcIZZZ4mainENK3$_0clERKN7httplib7RequestERNS3_8ResponseEENKUlmRNS3_8DataSinkEE_clEmSA_EUlRKNS_12basic_stringIcNS_11char_traitsIcEENS_9allocatorIcEEEEjE_NSF_ISK_EEFbSJ_jEE7__cloneEPNS0_6__baseISM_EE', symObjAddr: 0x42354, symBinAddr: 0x100041F40, symSize: 0x20 }
  - { offset: 0x21B4EC, size: 0x8, addend: 0x0, symName: '__ZNKSt3__110__function6__funcIZZZ4mainENK3$_0clERKN7httplib7RequestERNS3_8ResponseEENKUlmRNS3_8DataSinkEE_clEmSA_EUlRKNS_12basic_stringIcNS_11char_traitsIcEENS_9allocatorIcEEEEjE_NSF_ISK_EEFbSJ_jEE7__cloneEPNS0_6__baseISM_EE', symObjAddr: 0x42354, symBinAddr: 0x100041F40, symSize: 0x20 }
  - { offset: 0x21B511, size: 0x8, addend: 0x0, symName: '__ZNKSt3__110__function6__funcIZZZ4mainENK3$_0clERKN7httplib7RequestERNS3_8ResponseEENKUlmRNS3_8DataSinkEE_clEmSA_EUlRKNS_12basic_stringIcNS_11char_traitsIcEENS_9allocatorIcEEEEjE_NSF_ISK_EEFbSJ_jEE7__cloneEPNS0_6__baseISM_EE', symObjAddr: 0x42354, symBinAddr: 0x100041F40, symSize: 0x20 }
  - { offset: 0x21B585, size: 0x8, addend: 0x0, symName: '__ZNSt3__110__function6__funcIZZZ4mainENK3$_0clERKN7httplib7RequestERNS3_8ResponseEENKUlmRNS3_8DataSinkEE_clEmSA_EUlRKNS_12basic_stringIcNS_11char_traitsIcEENS_9allocatorIcEEEEjE_NSF_ISK_EEFbSJ_jEE7destroyEv', symObjAddr: 0x42374, symBinAddr: 0x100041F60, symSize: 0x4 }
  - { offset: 0x21B5DA, size: 0x8, addend: 0x0, symName: '__ZNSt3__110__function6__funcIZZZ4mainENK3$_0clERKN7httplib7RequestERNS3_8ResponseEENKUlmRNS3_8DataSinkEE_clEmSA_EUlRKNS_12basic_stringIcNS_11char_traitsIcEENS_9allocatorIcEEEEjE_NSF_ISK_EEFbSJ_jEE18destroy_deallocateEv', symObjAddr: 0x42378, symBinAddr: 0x100041F64, symSize: 0x4 }
  - { offset: 0x21B60D, size: 0x8, addend: 0x0, symName: '__ZNSt3__110__function6__funcIZZZ4mainENK3$_0clERKN7httplib7RequestERNS3_8ResponseEENKUlmRNS3_8DataSinkEE_clEmSA_EUlRKNS_12basic_stringIcNS_11char_traitsIcEENS_9allocatorIcEEEEjE_NSF_ISK_EEFbSJ_jEE18destroy_deallocateEv', symObjAddr: 0x42378, symBinAddr: 0x100041F64, symSize: 0x4 }
  - { offset: 0x21B630, size: 0x8, addend: 0x0, symName: '__ZNSt3__110__function6__funcIZZZ4mainENK3$_0clERKN7httplib7RequestERNS3_8ResponseEENKUlmRNS3_8DataSinkEE_clEmSA_EUlRKNS_12basic_stringIcNS_11char_traitsIcEENS_9allocatorIcEEEEjE_NSF_ISK_EEFbSJ_jEE18destroy_deallocateEv', symObjAddr: 0x42378, symBinAddr: 0x100041F64, symSize: 0x4 }
  - { offset: 0x21B664, size: 0x8, addend: 0x0, symName: '__ZNSt3__110__function6__funcIZZZ4mainENK3$_0clERKN7httplib7RequestERNS3_8ResponseEENKUlmRNS3_8DataSinkEE_clEmSA_EUlRKNS_12basic_stringIcNS_11char_traitsIcEENS_9allocatorIcEEEEjE_NSF_ISK_EEFbSJ_jEE18destroy_deallocateEv', symObjAddr: 0x42378, symBinAddr: 0x100041F64, symSize: 0x4 }
  - { offset: 0x21B74A, size: 0x8, addend: 0x0, symName: '__ZNSt3__110__function6__funcIZZZ4mainENK3$_0clERKN7httplib7RequestERNS3_8ResponseEENKUlmRNS3_8DataSinkEE_clEmSA_EUlRKNS_12basic_stringIcNS_11char_traitsIcEENS_9allocatorIcEEEEjE_NSF_ISK_EEFbSJ_jEEclESJ_Oj', symObjAddr: 0x4237C, symBinAddr: 0x100041F68, symSize: 0xD0 }
  - { offset: 0x21BB32, size: 0x8, addend: 0x0, symName: '__ZNKSt3__110__function6__funcIZZZ4mainENK3$_0clERKN7httplib7RequestERNS3_8ResponseEENKUlmRNS3_8DataSinkEE_clEmSA_EUlRKNS_12basic_stringIcNS_11char_traitsIcEENS_9allocatorIcEEEEjE_NSF_ISK_EEFbSJ_jEE6targetERKSt9type_info', symObjAddr: 0x4244C, symBinAddr: 0x100042038, symSize: 0x64 }
  - { offset: 0x21BBE5, size: 0x8, addend: 0x0, symName: '__ZNKSt3__110__function6__funcIZZZ4mainENK3$_0clERKN7httplib7RequestERNS3_8ResponseEENKUlmRNS3_8DataSinkEE_clEmSA_EUlRKNS_12basic_stringIcNS_11char_traitsIcEENS_9allocatorIcEEEEjE_NSF_ISK_EEFbSJ_jEE11target_typeEv', symObjAddr: 0x424B0, symBinAddr: 0x10004209C, symSize: 0xC }
  - { offset: 0x21BD2A, size: 0x8, addend: 0x0, symName: '__ZNSt3__110__function6__funcIZ4mainE3$_1NS_9allocatorIS2_EEFvRKN7httplib7RequestERNS5_8ResponseEEED1Ev', symObjAddr: 0x42708, symBinAddr: 0x1000422F4, symSize: 0x4 }
  - { offset: 0x21BD56, size: 0x8, addend: 0x0, symName: '__ZNSt3__110__function6__funcIZ4mainE3$_1NS_9allocatorIS2_EEFvRKN7httplib7RequestERNS5_8ResponseEEED0Ev', symObjAddr: 0x4270C, symBinAddr: 0x1000422F8, symSize: 0x4 }
  - { offset: 0x21BE46, size: 0x8, addend: 0x0, symName: '__ZNKSt3__110__function6__funcIZ4mainE3$_1NS_9allocatorIS2_EEFvRKN7httplib7RequestERNS5_8ResponseEEE7__cloneEv', symObjAddr: 0x42710, symBinAddr: 0x1000422FC, symSize: 0x40 }
  - { offset: 0x21C057, size: 0x8, addend: 0x0, symName: '__ZNKSt3__110__function6__funcIZ4mainE3$_1NS_9allocatorIS2_EEFvRKN7httplib7RequestERNS5_8ResponseEEE7__cloneEPNS0_6__baseISB_EE', symObjAddr: 0x42750, symBinAddr: 0x10004233C, symSize: 0x20 }
  - { offset: 0x21C08D, size: 0x8, addend: 0x0, symName: '__ZNKSt3__110__function6__funcIZ4mainE3$_1NS_9allocatorIS2_EEFvRKN7httplib7RequestERNS5_8ResponseEEE7__cloneEPNS0_6__baseISB_EE', symObjAddr: 0x42750, symBinAddr: 0x10004233C, symSize: 0x20 }
  - { offset: 0x21C0B2, size: 0x8, addend: 0x0, symName: '__ZNKSt3__110__function6__funcIZ4mainE3$_1NS_9allocatorIS2_EEFvRKN7httplib7RequestERNS5_8ResponseEEE7__cloneEPNS0_6__baseISB_EE', symObjAddr: 0x42750, symBinAddr: 0x10004233C, symSize: 0x20 }
  - { offset: 0x21C126, size: 0x8, addend: 0x0, symName: '__ZNSt3__110__function6__funcIZ4mainE3$_1NS_9allocatorIS2_EEFvRKN7httplib7RequestERNS5_8ResponseEEE7destroyEv', symObjAddr: 0x42770, symBinAddr: 0x10004235C, symSize: 0x4 }
  - { offset: 0x21C17B, size: 0x8, addend: 0x0, symName: '__ZNSt3__110__function6__funcIZ4mainE3$_1NS_9allocatorIS2_EEFvRKN7httplib7RequestERNS5_8ResponseEEE18destroy_deallocateEv', symObjAddr: 0x42774, symBinAddr: 0x100042360, symSize: 0x4 }
  - { offset: 0x21C1AE, size: 0x8, addend: 0x0, symName: '__ZNSt3__110__function6__funcIZ4mainE3$_1NS_9allocatorIS2_EEFvRKN7httplib7RequestERNS5_8ResponseEEE18destroy_deallocateEv', symObjAddr: 0x42774, symBinAddr: 0x100042360, symSize: 0x4 }
  - { offset: 0x21C1D1, size: 0x8, addend: 0x0, symName: '__ZNSt3__110__function6__funcIZ4mainE3$_1NS_9allocatorIS2_EEFvRKN7httplib7RequestERNS5_8ResponseEEE18destroy_deallocateEv', symObjAddr: 0x42774, symBinAddr: 0x100042360, symSize: 0x4 }
  - { offset: 0x21C205, size: 0x8, addend: 0x0, symName: '__ZNSt3__110__function6__funcIZ4mainE3$_1NS_9allocatorIS2_EEFvRKN7httplib7RequestERNS5_8ResponseEEE18destroy_deallocateEv', symObjAddr: 0x42774, symBinAddr: 0x100042360, symSize: 0x4 }
  - { offset: 0x21C31F, size: 0x8, addend: 0x0, symName: '__ZNSt3__110__function6__funcIZ4mainE3$_1NS_9allocatorIS2_EEFvRKN7httplib7RequestERNS5_8ResponseEEEclES8_SA_', symObjAddr: 0x42778, symBinAddr: 0x100042364, symSize: 0x5E0 }
  - { offset: 0x21CDB8, size: 0x8, addend: 0x0, symName: '__ZNKSt3__110__function6__funcIZ4mainE3$_1NS_9allocatorIS2_EEFvRKN7httplib7RequestERNS5_8ResponseEEE6targetERKSt9type_info', symObjAddr: 0x42D58, symBinAddr: 0x100042944, symSize: 0x64 }
  - { offset: 0x21CE6B, size: 0x8, addend: 0x0, symName: '__ZNKSt3__110__function6__funcIZ4mainE3$_1NS_9allocatorIS2_EEFvRKN7httplib7RequestERNS5_8ResponseEEE11target_typeEv', symObjAddr: 0x42DBC, symBinAddr: 0x1000429A8, symSize: 0xC }
  - { offset: 0x21CE8E, size: 0x8, addend: 0x0, symName: '__ZNSt3__110__function6__funcIZ4mainE3$_2NS_9allocatorIS2_EEFvRKN7httplib7RequestERNS5_8ResponseEEED1Ev', symObjAddr: 0x42DC8, symBinAddr: 0x1000429B4, symSize: 0x4 }
  - { offset: 0x21CEBA, size: 0x8, addend: 0x0, symName: '__ZNSt3__110__function6__funcIZ4mainE3$_2NS_9allocatorIS2_EEFvRKN7httplib7RequestERNS5_8ResponseEEED0Ev', symObjAddr: 0x42DCC, symBinAddr: 0x1000429B8, symSize: 0x4 }
  - { offset: 0x21CFAA, size: 0x8, addend: 0x0, symName: '__ZNKSt3__110__function6__funcIZ4mainE3$_2NS_9allocatorIS2_EEFvRKN7httplib7RequestERNS5_8ResponseEEE7__cloneEv', symObjAddr: 0x42DD0, symBinAddr: 0x1000429BC, symSize: 0x48 }
  - { offset: 0x21D1BB, size: 0x8, addend: 0x0, symName: '__ZNKSt3__110__function6__funcIZ4mainE3$_2NS_9allocatorIS2_EEFvRKN7httplib7RequestERNS5_8ResponseEEE7__cloneEPNS0_6__baseISB_EE', symObjAddr: 0x42E18, symBinAddr: 0x100042A04, symSize: 0x28 }
  - { offset: 0x21D1F1, size: 0x8, addend: 0x0, symName: '__ZNKSt3__110__function6__funcIZ4mainE3$_2NS_9allocatorIS2_EEFvRKN7httplib7RequestERNS5_8ResponseEEE7__cloneEPNS0_6__baseISB_EE', symObjAddr: 0x42E18, symBinAddr: 0x100042A04, symSize: 0x28 }
  - { offset: 0x21D216, size: 0x8, addend: 0x0, symName: '__ZNKSt3__110__function6__funcIZ4mainE3$_2NS_9allocatorIS2_EEFvRKN7httplib7RequestERNS5_8ResponseEEE7__cloneEPNS0_6__baseISB_EE', symObjAddr: 0x42E18, symBinAddr: 0x100042A04, symSize: 0x28 }
  - { offset: 0x21D28A, size: 0x8, addend: 0x0, symName: '__ZNSt3__110__function6__funcIZ4mainE3$_2NS_9allocatorIS2_EEFvRKN7httplib7RequestERNS5_8ResponseEEE7destroyEv', symObjAddr: 0x42E40, symBinAddr: 0x100042A2C, symSize: 0x4 }
  - { offset: 0x21D2DF, size: 0x8, addend: 0x0, symName: '__ZNSt3__110__function6__funcIZ4mainE3$_2NS_9allocatorIS2_EEFvRKN7httplib7RequestERNS5_8ResponseEEE18destroy_deallocateEv', symObjAddr: 0x42E44, symBinAddr: 0x100042A30, symSize: 0x4 }
  - { offset: 0x21D312, size: 0x8, addend: 0x0, symName: '__ZNSt3__110__function6__funcIZ4mainE3$_2NS_9allocatorIS2_EEFvRKN7httplib7RequestERNS5_8ResponseEEE18destroy_deallocateEv', symObjAddr: 0x42E44, symBinAddr: 0x100042A30, symSize: 0x4 }
  - { offset: 0x21D335, size: 0x8, addend: 0x0, symName: '__ZNSt3__110__function6__funcIZ4mainE3$_2NS_9allocatorIS2_EEFvRKN7httplib7RequestERNS5_8ResponseEEE18destroy_deallocateEv', symObjAddr: 0x42E44, symBinAddr: 0x100042A30, symSize: 0x4 }
  - { offset: 0x21D369, size: 0x8, addend: 0x0, symName: '__ZNSt3__110__function6__funcIZ4mainE3$_2NS_9allocatorIS2_EEFvRKN7httplib7RequestERNS5_8ResponseEEE18destroy_deallocateEv', symObjAddr: 0x42E44, symBinAddr: 0x100042A30, symSize: 0x4 }
  - { offset: 0x21E5EF, size: 0x8, addend: 0x0, symName: '__ZNSt3__110__function6__funcIZ4mainE3$_2NS_9allocatorIS2_EEFvRKN7httplib7RequestERNS5_8ResponseEEEclES8_SA_', symObjAddr: 0x42E48, symBinAddr: 0x100042A34, symSize: 0x1030 }
  - { offset: 0x222042, size: 0x8, addend: 0x0, symName: __ZN7httplib6Server15listen_internalEv, symObjAddr: 0x43F74, symBinAddr: 0x100043B38, symSize: 0x43C }
  - { offset: 0x22204D, size: 0x8, addend: 0x0, symName: __ZNSt3__16vectorIN3Ort5ValueENS_9allocatorIS2_EEED1B8ne200100Ev, symObjAddr: 0x43EE8, symBinAddr: 0x100043AD4, symSize: 0x64 }
  - { offset: 0x222269, size: 0x8, addend: 0x0, symName: '__ZNKSt3__110__function6__funcIZ4mainE3$_2NS_9allocatorIS2_EEFvRKN7httplib7RequestERNS5_8ResponseEEE6targetERKSt9type_info', symObjAddr: 0x43E78, symBinAddr: 0x100043A64, symSize: 0x64 }
  - { offset: 0x22231C, size: 0x8, addend: 0x0, symName: '__ZNKSt3__110__function6__funcIZ4mainE3$_2NS_9allocatorIS2_EEFvRKN7httplib7RequestERNS5_8ResponseEEE11target_typeEv', symObjAddr: 0x43EDC, symBinAddr: 0x100043AC8, symSize: 0xC }
  - { offset: 0x222819, size: 0x8, addend: 0x0, symName: __ZN7httplib6detail10scope_exitD1Ev, symObjAddr: 0x44CF8, symBinAddr: 0x1000448BC, symSize: 0x74 }
  - { offset: 0x2229FE, size: 0x8, addend: 0x0, symName: __ZNK7httplib6Server20create_server_socketERKNSt3__112basic_stringIcNS1_11char_traitsIcEENS1_9allocatorIcEEEEiiNS1_8functionIFviEEE, symObjAddr: 0x445F0, symBinAddr: 0x1000441B4, symSize: 0x1A4 }
  - { offset: 0x222E9B, size: 0x8, addend: 0x0, symName: __ZNK7httplib6Server20create_server_socketERKNSt3__112basic_stringIcNS1_11char_traitsIcEENS1_9allocatorIcEEEEiiNS1_8functionIFviEEE.cold.1, symObjAddr: 0x46054, symBinAddr: 0x1000B32A0, symSize: 0x24 }
  - { offset: 0x222EB6, size: 0x8, addend: 0x0, symName: __ZNK7httplib6Server20create_server_socketERKNSt3__112basic_stringIcNS1_11char_traitsIcEENS1_9allocatorIcEEEEiiNS1_8functionIFviEEE.cold.1, symObjAddr: 0x46054, symBinAddr: 0x1000B32A0, symSize: 0x24 }
  - { offset: 0x222ECB, size: 0x8, addend: 0x0, symName: __ZNK7httplib6Server20create_server_socketERKNSt3__112basic_stringIcNS1_11char_traitsIcEENS1_9allocatorIcEEEEiiNS1_8functionIFviEEE.cold.1, symObjAddr: 0x46054, symBinAddr: 0x1000B32A0, symSize: 0x24 }
  - { offset: 0x222EE1, size: 0x8, addend: 0x0, symName: __ZNK7httplib6Server20create_server_socketERKNSt3__112basic_stringIcNS1_11char_traitsIcEENS1_9allocatorIcEEEEiiNS1_8functionIFviEEE.cold.1, symObjAddr: 0x46054, symBinAddr: 0x1000B32A0, symSize: 0x24 }
  - { offset: 0x22319F, size: 0x8, addend: 0x0, symName: __ZZNK7httplib6Server20create_server_socketERKNSt3__112basic_stringIcNS1_11char_traitsIcEENS1_9allocatorIcEEEEiiNS1_8functionIFviEEEENKUliR8addrinfoRbE_clEiSE_SF_, symObjAddr: 0x44BD8, symBinAddr: 0x10004479C, symSize: 0x120 }
  - { offset: 0x223504, size: 0x8, addend: 0x0, symName: __ZNSt3__110__function6__funcIZN7httplib6detail13create_socketIZNKS2_6Server20create_server_socketERKNS_12basic_stringIcNS_11char_traitsIcEENS_9allocatorIcEEEEiiNS_8functionIFviEEEEUliR8addrinfoRbE_EEiSD_SD_iiibbSG_T_lEUlvE_NS9_ISM_EEFvvEED1Ev, symObjAddr: 0x44D6C, symBinAddr: 0x100044930, symSize: 0x4 }
  - { offset: 0x223530, size: 0x8, addend: 0x0, symName: __ZNSt3__110__function6__funcIZN7httplib6detail13create_socketIZNKS2_6Server20create_server_socketERKNS_12basic_stringIcNS_11char_traitsIcEENS_9allocatorIcEEEEiiNS_8functionIFviEEEEUliR8addrinfoRbE_EEiSD_SD_iiibbSG_T_lEUlvE_NS9_ISM_EEFvvEED0Ev, symObjAddr: 0x44D70, symBinAddr: 0x100044934, symSize: 0x4 }
  - { offset: 0x223653, size: 0x8, addend: 0x0, symName: __ZNKSt3__110__function6__funcIZN7httplib6detail13create_socketIZNKS2_6Server20create_server_socketERKNS_12basic_stringIcNS_11char_traitsIcEENS_9allocatorIcEEEEiiNS_8functionIFviEEEEUliR8addrinfoRbE_EEiSD_SD_iiibbSG_T_lEUlvE_NS9_ISM_EEFvvEE7__cloneEv, symObjAddr: 0x44D74, symBinAddr: 0x100044938, symSize: 0x34 }
  - { offset: 0x2237EE, size: 0x8, addend: 0x0, symName: __ZNKSt3__110__function6__funcIZN7httplib6detail13create_socketIZNKS2_6Server20create_server_socketERKNS_12basic_stringIcNS_11char_traitsIcEENS_9allocatorIcEEEEiiNS_8functionIFviEEEEUliR8addrinfoRbE_EEiSD_SD_iiibbSG_T_lEUlvE_NS9_ISM_EEFvvEE7__cloneEPNS0_6__baseISO_EE, symObjAddr: 0x44DA8, symBinAddr: 0x10004496C, symSize: 0x14 }
  - { offset: 0x223817, size: 0x8, addend: 0x0, symName: __ZNKSt3__110__function6__funcIZN7httplib6detail13create_socketIZNKS2_6Server20create_server_socketERKNS_12basic_stringIcNS_11char_traitsIcEENS_9allocatorIcEEEEiiNS_8functionIFviEEEEUliR8addrinfoRbE_EEiSD_SD_iiibbSG_T_lEUlvE_NS9_ISM_EEFvvEE7__cloneEPNS0_6__baseISO_EE, symObjAddr: 0x44DA8, symBinAddr: 0x10004496C, symSize: 0x14 }
  - { offset: 0x223845, size: 0x8, addend: 0x0, symName: __ZNKSt3__110__function6__funcIZN7httplib6detail13create_socketIZNKS2_6Server20create_server_socketERKNS_12basic_stringIcNS_11char_traitsIcEENS_9allocatorIcEEEEiiNS_8functionIFviEEEEUliR8addrinfoRbE_EEiSD_SD_iiibbSG_T_lEUlvE_NS9_ISM_EEFvvEE7__cloneEPNS0_6__baseISO_EE, symObjAddr: 0x44DA8, symBinAddr: 0x10004496C, symSize: 0x14 }
  - { offset: 0x223873, size: 0x8, addend: 0x0, symName: __ZNKSt3__110__function6__funcIZN7httplib6detail13create_socketIZNKS2_6Server20create_server_socketERKNS_12basic_stringIcNS_11char_traitsIcEENS_9allocatorIcEEEEiiNS_8functionIFviEEEEUliR8addrinfoRbE_EEiSD_SD_iiibbSG_T_lEUlvE_NS9_ISM_EEFvvEE7__cloneEPNS0_6__baseISO_EE, symObjAddr: 0x44DA8, symBinAddr: 0x10004496C, symSize: 0x14 }
  - { offset: 0x223888, size: 0x8, addend: 0x0, symName: __ZNKSt3__110__function6__funcIZN7httplib6detail13create_socketIZNKS2_6Server20create_server_socketERKNS_12basic_stringIcNS_11char_traitsIcEENS_9allocatorIcEEEEiiNS_8functionIFviEEEEUliR8addrinfoRbE_EEiSD_SD_iiibbSG_T_lEUlvE_NS9_ISM_EEFvvEE7__cloneEPNS0_6__baseISO_EE, symObjAddr: 0x44DA8, symBinAddr: 0x10004496C, symSize: 0x14 }
  - { offset: 0x22389D, size: 0x8, addend: 0x0, symName: __ZNSt3__110__function6__funcIZN7httplib6detail13create_socketIZNKS2_6Server20create_server_socketERKNS_12basic_stringIcNS_11char_traitsIcEENS_9allocatorIcEEEEiiNS_8functionIFviEEEEUliR8addrinfoRbE_EEiSD_SD_iiibbSG_T_lEUlvE_NS9_ISM_EEFvvEE7destroyEv, symObjAddr: 0x44DBC, symBinAddr: 0x100044980, symSize: 0x4 }
  - { offset: 0x2238F4, size: 0x8, addend: 0x0, symName: __ZNSt3__110__function6__funcIZN7httplib6detail13create_socketIZNKS2_6Server20create_server_socketERKNS_12basic_stringIcNS_11char_traitsIcEENS_9allocatorIcEEEEiiNS_8functionIFviEEEEUliR8addrinfoRbE_EEiSD_SD_iiibbSG_T_lEUlvE_NS9_ISM_EEFvvEE18destroy_deallocateEv, symObjAddr: 0x44DC0, symBinAddr: 0x100044984, symSize: 0x4 }
  - { offset: 0x223927, size: 0x8, addend: 0x0, symName: __ZNSt3__110__function6__funcIZN7httplib6detail13create_socketIZNKS2_6Server20create_server_socketERKNS_12basic_stringIcNS_11char_traitsIcEENS_9allocatorIcEEEEiiNS_8functionIFviEEEEUliR8addrinfoRbE_EEiSD_SD_iiibbSG_T_lEUlvE_NS9_ISM_EEFvvEE18destroy_deallocateEv, symObjAddr: 0x44DC0, symBinAddr: 0x100044984, symSize: 0x4 }
  - { offset: 0x22394A, size: 0x8, addend: 0x0, symName: __ZNSt3__110__function6__funcIZN7httplib6detail13create_socketIZNKS2_6Server20create_server_socketERKNS_12basic_stringIcNS_11char_traitsIcEENS_9allocatorIcEEEEiiNS_8functionIFviEEEEUliR8addrinfoRbE_EEiSD_SD_iiibbSG_T_lEUlvE_NS9_ISM_EEFvvEE18destroy_deallocateEv, symObjAddr: 0x44DC0, symBinAddr: 0x100044984, symSize: 0x4 }
  - { offset: 0x22397D, size: 0x8, addend: 0x0, symName: __ZNSt3__110__function6__funcIZN7httplib6detail13create_socketIZNKS2_6Server20create_server_socketERKNS_12basic_stringIcNS_11char_traitsIcEENS_9allocatorIcEEEEiiNS_8functionIFviEEEEUliR8addrinfoRbE_EEiSD_SD_iiibbSG_T_lEUlvE_NS9_ISM_EEFvvEE18destroy_deallocateEv, symObjAddr: 0x44DC0, symBinAddr: 0x100044984, symSize: 0x4 }
  - { offset: 0x223A07, size: 0x8, addend: 0x0, symName: __ZNSt3__110__function6__funcIZN7httplib6detail13create_socketIZNKS2_6Server20create_server_socketERKNS_12basic_stringIcNS_11char_traitsIcEENS_9allocatorIcEEEEiiNS_8functionIFviEEEEUliR8addrinfoRbE_EEiSD_SD_iiibbSG_T_lEUlvE_NS9_ISM_EEFvvEEclEv, symObjAddr: 0x44DC4, symBinAddr: 0x100044988, symSize: 0xC }
  - { offset: 0x223A30, size: 0x8, addend: 0x0, symName: __ZNSt3__110__function6__funcIZN7httplib6detail13create_socketIZNKS2_6Server20create_server_socketERKNS_12basic_stringIcNS_11char_traitsIcEENS_9allocatorIcEEEEiiNS_8functionIFviEEEEUliR8addrinfoRbE_EEiSD_SD_iiibbSG_T_lEUlvE_NS9_ISM_EEFvvEEclEv, symObjAddr: 0x44DC4, symBinAddr: 0x100044988, symSize: 0xC }
  - { offset: 0x223A4E, size: 0x8, addend: 0x0, symName: __ZNSt3__110__function6__funcIZN7httplib6detail13create_socketIZNKS2_6Server20create_server_socketERKNS_12basic_stringIcNS_11char_traitsIcEENS_9allocatorIcEEEEiiNS_8functionIFviEEEEUliR8addrinfoRbE_EEiSD_SD_iiibbSG_T_lEUlvE_NS9_ISM_EEFvvEEclEv, symObjAddr: 0x44DC4, symBinAddr: 0x100044988, symSize: 0xC }
  - { offset: 0x223A6B, size: 0x8, addend: 0x0, symName: __ZNSt3__110__function6__funcIZN7httplib6detail13create_socketIZNKS2_6Server20create_server_socketERKNS_12basic_stringIcNS_11char_traitsIcEENS_9allocatorIcEEEEiiNS_8functionIFviEEEEUliR8addrinfoRbE_EEiSD_SD_iiibbSG_T_lEUlvE_NS9_ISM_EEFvvEEclEv, symObjAddr: 0x44DC4, symBinAddr: 0x100044988, symSize: 0xC }
  - { offset: 0x223A89, size: 0x8, addend: 0x0, symName: __ZNSt3__110__function6__funcIZN7httplib6detail13create_socketIZNKS2_6Server20create_server_socketERKNS_12basic_stringIcNS_11char_traitsIcEENS_9allocatorIcEEEEiiNS_8functionIFviEEEEUliR8addrinfoRbE_EEiSD_SD_iiibbSG_T_lEUlvE_NS9_ISM_EEFvvEEclEv, symObjAddr: 0x44DC4, symBinAddr: 0x100044988, symSize: 0xC }
  - { offset: 0x223AA6, size: 0x8, addend: 0x0, symName: __ZNSt3__110__function6__funcIZN7httplib6detail13create_socketIZNKS2_6Server20create_server_socketERKNS_12basic_stringIcNS_11char_traitsIcEENS_9allocatorIcEEEEiiNS_8functionIFviEEEEUliR8addrinfoRbE_EEiSD_SD_iiibbSG_T_lEUlvE_NS9_ISM_EEFvvEEclEv, symObjAddr: 0x44DC4, symBinAddr: 0x100044988, symSize: 0xC }
  - { offset: 0x223AE2, size: 0x8, addend: 0x0, symName: __ZNKSt3__110__function6__funcIZN7httplib6detail13create_socketIZNKS2_6Server20create_server_socketERKNS_12basic_stringIcNS_11char_traitsIcEENS_9allocatorIcEEEEiiNS_8functionIFviEEEEUliR8addrinfoRbE_EEiSD_SD_iiibbSG_T_lEUlvE_NS9_ISM_EEFvvEE6targetERKSt9type_info, symObjAddr: 0x44DD0, symBinAddr: 0x100044994, symSize: 0x64 }
  - { offset: 0x223B95, size: 0x8, addend: 0x0, symName: __ZNKSt3__110__function6__funcIZN7httplib6detail13create_socketIZNKS2_6Server20create_server_socketERKNS_12basic_stringIcNS_11char_traitsIcEENS_9allocatorIcEEEEiiNS_8functionIFviEEEEUliR8addrinfoRbE_EEiSD_SD_iiibbSG_T_lEUlvE_NS9_ISM_EEFvvEE11target_typeEv, symObjAddr: 0x44E34, symBinAddr: 0x1000449F8, symSize: 0xC }
  - { offset: 0x223BBC, size: 0x8, addend: 0x0, symName: __ZNSt3__110__function6__funcIZN7httplib6Server15listen_internalEvEUlvE_NS_9allocatorIS4_EEFvvEED1Ev, symObjAddr: 0x44E40, symBinAddr: 0x100044A04, symSize: 0x4 }
  - { offset: 0x223BE8, size: 0x8, addend: 0x0, symName: __ZNSt3__110__function6__funcIZN7httplib6Server15listen_internalEvEUlvE_NS_9allocatorIS4_EEFvvEED0Ev, symObjAddr: 0x44E44, symBinAddr: 0x100044A08, symSize: 0x4 }
  - { offset: 0x223D0B, size: 0x8, addend: 0x0, symName: __ZNKSt3__110__function6__funcIZN7httplib6Server15listen_internalEvEUlvE_NS_9allocatorIS4_EEFvvEE7__cloneEv, symObjAddr: 0x44E48, symBinAddr: 0x100044A0C, symSize: 0x34 }
  - { offset: 0x223EA6, size: 0x8, addend: 0x0, symName: __ZNKSt3__110__function6__funcIZN7httplib6Server15listen_internalEvEUlvE_NS_9allocatorIS4_EEFvvEE7__cloneEPNS0_6__baseIS7_EE, symObjAddr: 0x44E7C, symBinAddr: 0x100044A40, symSize: 0x14 }
  - { offset: 0x223ECF, size: 0x8, addend: 0x0, symName: __ZNKSt3__110__function6__funcIZN7httplib6Server15listen_internalEvEUlvE_NS_9allocatorIS4_EEFvvEE7__cloneEPNS0_6__baseIS7_EE, symObjAddr: 0x44E7C, symBinAddr: 0x100044A40, symSize: 0x14 }
  - { offset: 0x223EFD, size: 0x8, addend: 0x0, symName: __ZNKSt3__110__function6__funcIZN7httplib6Server15listen_internalEvEUlvE_NS_9allocatorIS4_EEFvvEE7__cloneEPNS0_6__baseIS7_EE, symObjAddr: 0x44E7C, symBinAddr: 0x100044A40, symSize: 0x14 }
  - { offset: 0x223F2B, size: 0x8, addend: 0x0, symName: __ZNKSt3__110__function6__funcIZN7httplib6Server15listen_internalEvEUlvE_NS_9allocatorIS4_EEFvvEE7__cloneEPNS0_6__baseIS7_EE, symObjAddr: 0x44E7C, symBinAddr: 0x100044A40, symSize: 0x14 }
  - { offset: 0x223F40, size: 0x8, addend: 0x0, symName: __ZNKSt3__110__function6__funcIZN7httplib6Server15listen_internalEvEUlvE_NS_9allocatorIS4_EEFvvEE7__cloneEPNS0_6__baseIS7_EE, symObjAddr: 0x44E7C, symBinAddr: 0x100044A40, symSize: 0x14 }
  - { offset: 0x223F55, size: 0x8, addend: 0x0, symName: __ZNSt3__110__function6__funcIZN7httplib6Server15listen_internalEvEUlvE_NS_9allocatorIS4_EEFvvEE7destroyEv, symObjAddr: 0x44E90, symBinAddr: 0x100044A54, symSize: 0x4 }
  - { offset: 0x223FAC, size: 0x8, addend: 0x0, symName: __ZNSt3__110__function6__funcIZN7httplib6Server15listen_internalEvEUlvE_NS_9allocatorIS4_EEFvvEE18destroy_deallocateEv, symObjAddr: 0x44E94, symBinAddr: 0x100044A58, symSize: 0x4 }
  - { offset: 0x223FDF, size: 0x8, addend: 0x0, symName: __ZNSt3__110__function6__funcIZN7httplib6Server15listen_internalEvEUlvE_NS_9allocatorIS4_EEFvvEE18destroy_deallocateEv, symObjAddr: 0x44E94, symBinAddr: 0x100044A58, symSize: 0x4 }
  - { offset: 0x224002, size: 0x8, addend: 0x0, symName: __ZNSt3__110__function6__funcIZN7httplib6Server15listen_internalEvEUlvE_NS_9allocatorIS4_EEFvvEE18destroy_deallocateEv, symObjAddr: 0x44E94, symBinAddr: 0x100044A58, symSize: 0x4 }
  - { offset: 0x224035, size: 0x8, addend: 0x0, symName: __ZNSt3__110__function6__funcIZN7httplib6Server15listen_internalEvEUlvE_NS_9allocatorIS4_EEFvvEE18destroy_deallocateEv, symObjAddr: 0x44E94, symBinAddr: 0x100044A58, symSize: 0x4 }
  - { offset: 0x2240BF, size: 0x8, addend: 0x0, symName: __ZNSt3__110__function6__funcIZN7httplib6Server15listen_internalEvEUlvE_NS_9allocatorIS4_EEFvvEEclEv, symObjAddr: 0x44E98, symBinAddr: 0x100044A5C, symSize: 0x10 }
  - { offset: 0x2241F6, size: 0x8, addend: 0x0, symName: __ZNKSt3__110__function6__funcIZN7httplib6Server15listen_internalEvEUlvE_NS_9allocatorIS4_EEFvvEE6targetERKSt9type_info, symObjAddr: 0x44EA8, symBinAddr: 0x100044A6C, symSize: 0x64 }
  - { offset: 0x2242A9, size: 0x8, addend: 0x0, symName: __ZNKSt3__110__function6__funcIZN7httplib6Server15listen_internalEvEUlvE_NS_9allocatorIS4_EEFvvEE11target_typeEv, symObjAddr: 0x44F0C, symBinAddr: 0x100044AD0, symSize: 0xC }
  - { offset: 0x2242D0, size: 0x8, addend: 0x0, symName: __ZNSt3__110__function6__funcIZN7httplib6Server15listen_internalEvEUlvE0_NS_9allocatorIS4_EEFvvEED1Ev, symObjAddr: 0x44F18, symBinAddr: 0x100044ADC, symSize: 0x4 }
  - { offset: 0x2242FC, size: 0x8, addend: 0x0, symName: __ZNSt3__110__function6__funcIZN7httplib6Server15listen_internalEvEUlvE0_NS_9allocatorIS4_EEFvvEED0Ev, symObjAddr: 0x44F1C, symBinAddr: 0x100044AE0, symSize: 0x4 }
  - { offset: 0x224413, size: 0x8, addend: 0x0, symName: __ZNKSt3__110__function6__funcIZN7httplib6Server15listen_internalEvEUlvE0_NS_9allocatorIS4_EEFvvEE7__cloneEv, symObjAddr: 0x44F20, symBinAddr: 0x100044AE4, symSize: 0x3C }
  - { offset: 0x224660, size: 0x8, addend: 0x0, symName: __ZNKSt3__110__function6__funcIZN7httplib6Server15listen_internalEvEUlvE0_NS_9allocatorIS4_EEFvvEE7__cloneEPNS0_6__baseIS7_EE, symObjAddr: 0x44F5C, symBinAddr: 0x100044B20, symSize: 0x1C }
  - { offset: 0x224696, size: 0x8, addend: 0x0, symName: __ZNKSt3__110__function6__funcIZN7httplib6Server15listen_internalEvEUlvE0_NS_9allocatorIS4_EEFvvEE7__cloneEPNS0_6__baseIS7_EE, symObjAddr: 0x44F5C, symBinAddr: 0x100044B20, symSize: 0x1C }
  - { offset: 0x2246C4, size: 0x8, addend: 0x0, symName: __ZNKSt3__110__function6__funcIZN7httplib6Server15listen_internalEvEUlvE0_NS_9allocatorIS4_EEFvvEE7__cloneEPNS0_6__baseIS7_EE, symObjAddr: 0x44F5C, symBinAddr: 0x100044B20, symSize: 0x1C }
  - { offset: 0x22478F, size: 0x8, addend: 0x0, symName: __ZNSt3__110__function6__funcIZN7httplib6Server15listen_internalEvEUlvE0_NS_9allocatorIS4_EEFvvEE7destroyEv, symObjAddr: 0x44F78, symBinAddr: 0x100044B3C, symSize: 0x4 }
  - { offset: 0x2247E6, size: 0x8, addend: 0x0, symName: __ZNSt3__110__function6__funcIZN7httplib6Server15listen_internalEvEUlvE0_NS_9allocatorIS4_EEFvvEE18destroy_deallocateEv, symObjAddr: 0x44F7C, symBinAddr: 0x100044B40, symSize: 0x4 }
  - { offset: 0x224819, size: 0x8, addend: 0x0, symName: __ZNSt3__110__function6__funcIZN7httplib6Server15listen_internalEvEUlvE0_NS_9allocatorIS4_EEFvvEE18destroy_deallocateEv, symObjAddr: 0x44F7C, symBinAddr: 0x100044B40, symSize: 0x4 }
  - { offset: 0x22483C, size: 0x8, addend: 0x0, symName: __ZNSt3__110__function6__funcIZN7httplib6Server15listen_internalEvEUlvE0_NS_9allocatorIS4_EEFvvEE18destroy_deallocateEv, symObjAddr: 0x44F7C, symBinAddr: 0x100044B40, symSize: 0x4 }
  - { offset: 0x22486F, size: 0x8, addend: 0x0, symName: __ZNSt3__110__function6__funcIZN7httplib6Server15listen_internalEvEUlvE0_NS_9allocatorIS4_EEFvvEE18destroy_deallocateEv, symObjAddr: 0x44F7C, symBinAddr: 0x100044B40, symSize: 0x4 }
  - { offset: 0x2248F9, size: 0x8, addend: 0x0, symName: __ZNSt3__110__function6__funcIZN7httplib6Server15listen_internalEvEUlvE0_NS_9allocatorIS4_EEFvvEEclEv, symObjAddr: 0x44F80, symBinAddr: 0x100044B44, symSize: 0x18 }
  - { offset: 0x2249C4, size: 0x8, addend: 0x0, symName: __ZNKSt3__110__function6__funcIZN7httplib6Server15listen_internalEvEUlvE0_NS_9allocatorIS4_EEFvvEE6targetERKSt9type_info, symObjAddr: 0x44F98, symBinAddr: 0x100044B5C, symSize: 0x64 }
  - { offset: 0x224A77, size: 0x8, addend: 0x0, symName: __ZNKSt3__110__function6__funcIZN7httplib6Server15listen_internalEvEUlvE0_NS_9allocatorIS4_EEFvvEE11target_typeEv, symObjAddr: 0x44FFC, symBinAddr: 0x100044BC0, symSize: 0xC }
  - { offset: 0x224AEC, size: 0x8, addend: 0x0, symName: ___cxx_global_var_init, symObjAddr: 0x4EB28, symBinAddr: 0x100045444, symSize: 0x3C }
  - { offset: 0x224B20, size: 0x8, addend: 0x0, symName: _OUTLINED_FUNCTION_0, symObjAddr: 0x46078, symBinAddr: 0x1000453EC, symSize: 0xC }
  - { offset: 0x224B38, size: 0x8, addend: 0x0, symName: _OUTLINED_FUNCTION_1, symObjAddr: 0x46084, symBinAddr: 0x1000453F8, symSize: 0x8 }
  - { offset: 0x224B50, size: 0x8, addend: 0x0, symName: _OUTLINED_FUNCTION_2, symObjAddr: 0x4608C, symBinAddr: 0x100045400, symSize: 0x8 }
  - { offset: 0x224B68, size: 0x8, addend: 0x0, symName: _OUTLINED_FUNCTION_3, symObjAddr: 0x46094, symBinAddr: 0x100045408, symSize: 0x8 }
  - { offset: 0x224B80, size: 0x8, addend: 0x0, symName: _OUTLINED_FUNCTION_4, symObjAddr: 0x4609C, symBinAddr: 0x100045410, symSize: 0x8 }
  - { offset: 0x224B98, size: 0x8, addend: 0x0, symName: _OUTLINED_FUNCTION_5, symObjAddr: 0x460A4, symBinAddr: 0x100045418, symSize: 0x8 }
  - { offset: 0x224BB0, size: 0x8, addend: 0x0, symName: _OUTLINED_FUNCTION_6, symObjAddr: 0x460AC, symBinAddr: 0x100045420, symSize: 0x8 }
  - { offset: 0x224BC8, size: 0x8, addend: 0x0, symName: _OUTLINED_FUNCTION_7, symObjAddr: 0x460B4, symBinAddr: 0x100045428, symSize: 0x8 }
  - { offset: 0x224BE0, size: 0x8, addend: 0x0, symName: _OUTLINED_FUNCTION_8, symObjAddr: 0x460BC, symBinAddr: 0x100045430, symSize: 0x14 }
...
