---
triple:          'x86_64-apple-darwin'
binary-path:     '/Users/miyako/Documents/GitHub/onnx-genai/cpp/macOS/onnx-genai'
relocations:
  - { offset: 0x69, size: 0x8, addend: 0x0, symName: __ZN3Ort6GlobalIvE4api_E, symObjAddr: 0x44DE8, symBinAddr: 0x10006A5F0, symSize: 0x0 }
  - { offset: 0x626E0, size: 0x8, addend: 0x0, symName: __ZNSt3__111__introsortINS_17_ClassicAlgPolicyERZN7httplib6detail19parse_accept_headerERKNS_12basic_stringIcNS_11char_traitsIcEENS_9allocatorIcEEEERNS_6vectorIS9_NS7_IS9_EEEEEUlRKZNS3_19parse_accept_headerESB_SF_E11AcceptEntrySI_E_PSG_Lb0EEEvT1_SM_T0_NS_15iterator_traitsISM_E15difference_typeEb, symObjAddr: 0x208FA, symBinAddr: 0x100020BB6, symSize: 0x3DE }
  - { offset: 0x62BDC, size: 0x8, addend: 0x0, symName: __ZNSt3__126__insertion_sort_unguardedB8ne200100INS_17_ClassicAlgPolicyERZN7httplib6detail19parse_accept_headerERKNS_12basic_stringIcNS_11char_traitsIcEENS_9allocatorIcEEEERNS_6vectorIS9_NS7_IS9_EEEEEUlRKZNS3_19parse_accept_headerESB_SF_E11AcceptEntrySI_E_PSG_EEvT1_SM_T0_, symObjAddr: 0x21279, symBinAddr: 0x100021535, symSize: 0x18F }
  - { offset: 0x62FD7, size: 0x8, addend: 0x0, symName: __ZNSt3__111__sift_downB8ne200100INS_17_ClassicAlgPolicyERZN7httplib6detail19parse_accept_headerERKNS_12basic_stringIcNS_11char_traitsIcEENS_9allocatorIcEEEERNS_6vectorIS9_NS7_IS9_EEEEEUlRKZNS3_19parse_accept_headerESB_SF_E11AcceptEntrySI_E_PSG_EEvT1_OT0_NS_15iterator_traitsISM_E15difference_typeESM_, symObjAddr: 0x21E69, symBinAddr: 0x100022049, symSize: 0x24F }
  - { offset: 0x63449, size: 0x8, addend: 0x0, symName: __ZNSt3__117__floyd_sift_downB8ne200100INS_17_ClassicAlgPolicyERZN7httplib6detail19parse_accept_headerERKNS_12basic_stringIcNS_11char_traitsIcEENS_9allocatorIcEEEERNS_6vectorIS9_NS7_IS9_EEEEEUlRKZNS3_19parse_accept_headerESB_SF_E11AcceptEntrySI_E_PSG_EET1_SM_OT0_NS_15iterator_traitsISM_E15difference_typeE, symObjAddr: 0x2227A, symBinAddr: 0x10002245A, symSize: 0xD9 }
  - { offset: 0x63680, size: 0x8, addend: 0x0, symName: __ZNSt3__131__partition_with_equals_on_leftB8ne200100INS_17_ClassicAlgPolicyEPZN7httplib6detail19parse_accept_headerERKNS_12basic_stringIcNS_11char_traitsIcEENS_9allocatorIcEEEERNS_6vectorIS9_NS7_IS9_EEEEE11AcceptEntryRZNS3_19parse_accept_headerESB_SF_EUlRKSG_SJ_E_EET0_SM_SM_T1_, symObjAddr: 0x214E5, symBinAddr: 0x1000216C5, symSize: 0x232 }
  - { offset: 0x63B63, size: 0x8, addend: 0x0, symName: __ZNSt3__132__partition_with_equals_on_rightB8ne200100INS_17_ClassicAlgPolicyEPZN7httplib6detail19parse_accept_headerERKNS_12basic_stringIcNS_11char_traitsIcEENS_9allocatorIcEEEERNS_6vectorIS9_NS7_IS9_EEEEE11AcceptEntryRZNS3_19parse_accept_headerESB_SF_EUlRKSG_SJ_E_EENS_4pairIT0_bEESN_SN_T1_, symObjAddr: 0x21717, symBinAddr: 0x1000218F7, symSize: 0x26F }
  - { offset: 0x6403A, size: 0x8, addend: 0x0, symName: __ZNSt3__127__insertion_sort_incompleteB8ne200100INS_17_ClassicAlgPolicyERZN7httplib6detail19parse_accept_headerERKNS_12basic_stringIcNS_11char_traitsIcEENS_9allocatorIcEEEERNS_6vectorIS9_NS7_IS9_EEEEEUlRKZNS3_19parse_accept_headerESB_SF_E11AcceptEntrySI_E_PSG_EEbT1_SM_T0_, symObjAddr: 0x21986, symBinAddr: 0x100021B66, symSize: 0x382 }
  - { offset: 0x64883, size: 0x8, addend: 0x0, symName: __ZNSt3__1rsB8ne200100IcNS_11char_traitsIcEEEERNS_13basic_istreamIT_T0_EES7_RKNS_8__iom_t9IS4_EE, symObjAddr: 0x2539B, symBinAddr: 0x10002554B, symSize: 0x11D }
  - { offset: 0x66CCC, size: 0x8, addend: 0x0, symName: __ZNSt3__111__introsortINS_17_ClassicAlgPolicyERZN7httplib6detail15coalesce_rangesERNS_6vectorINS_4pairIllEENS_9allocatorIS6_EEEEmEUlRKS6_SC_E_PS6_Lb0EEEvT1_SG_T0_NS_15iterator_traitsISG_E15difference_typeEb, symObjAddr: 0x31F41, symBinAddr: 0x1000316C5, symSize: 0x763 }
  - { offset: 0x69B77, size: 0x8, addend: 0x0, symName: __ZNSt3__126__insertion_sort_unguardedB8ne200100INS_17_ClassicAlgPolicyERZN7httplib6detail15coalesce_rangesERNS_6vectorINS_4pairIllEENS_9allocatorIS6_EEEEmEUlRKS6_SC_E_PS6_EEvT1_SG_T0_, symObjAddr: 0x32894, symBinAddr: 0x100032018, symSize: 0x63 }
  - { offset: 0x69CCA, size: 0x8, addend: 0x0, symName: __ZNSt3__111__sift_downB8ne200100INS_17_ClassicAlgPolicyERZN7httplib6detail15coalesce_rangesERNS_6vectorINS_4pairIllEENS_9allocatorIS6_EEEEmEUlRKS6_SC_E_PS6_EEvT1_OT0_NS_15iterator_traitsISG_E15difference_typeESG_, symObjAddr: 0x32F3C, symBinAddr: 0x1000326C0, symSize: 0xE0 }
  - { offset: 0x69E5C, size: 0x8, addend: 0x0, symName: __ZNSt3__117__floyd_sift_downB8ne200100INS_17_ClassicAlgPolicyERZN7httplib6detail15coalesce_rangesERNS_6vectorINS_4pairIllEENS_9allocatorIS6_EEEEmEUlRKS6_SC_E_PS6_EET1_SG_OT0_NS_15iterator_traitsISG_E15difference_typeE, symObjAddr: 0x3301C, symBinAddr: 0x1000327A0, symSize: 0x7B }
  - { offset: 0x69F4F, size: 0x8, addend: 0x0, symName: __ZNSt3__131__partition_with_equals_on_leftB8ne200100INS_17_ClassicAlgPolicyEPNS_4pairIllEERZN7httplib6detail15coalesce_rangesERNS_6vectorIS3_NS_9allocatorIS3_EEEEmEUlRKS3_SD_E_EET0_SG_SG_T1_, symObjAddr: 0x328F7, symBinAddr: 0x10003207B, symSize: 0xAC }
  - { offset: 0x6A209, size: 0x8, addend: 0x0, symName: __ZNSt3__132__partition_with_equals_on_rightB8ne200100INS_17_ClassicAlgPolicyEPNS_4pairIllEERZN7httplib6detail15coalesce_rangesERNS_6vectorIS3_NS_9allocatorIS3_EEEEmEUlRKS3_SD_E_EENS2_IT0_bEESG_SG_T1_, symObjAddr: 0x329A3, symBinAddr: 0x100032127, symSize: 0xB2 }
  - { offset: 0x6A4A9, size: 0x8, addend: 0x0, symName: __ZNSt3__127__insertion_sort_incompleteB8ne200100INS_17_ClassicAlgPolicyERZN7httplib6detail15coalesce_rangesERNS_6vectorINS_4pairIllEENS_9allocatorIS6_EEEEmEUlRKS6_SC_E_PS6_EEbT1_SG_T0_, symObjAddr: 0x32A55, symBinAddr: 0x1000321D9, symSize: 0x37B }
  - { offset: 0x6BABF, size: 0x8, addend: 0x0, symName: __ZNSt3__124__put_character_sequenceB8ne200100IcNS_11char_traitsIcEEEERNS_13basic_ostreamIT_T0_EES7_PKS4_m, symObjAddr: 0x33587, symBinAddr: 0x100032D0B, symSize: 0x150 }
  - { offset: 0x7C062, size: 0x8, addend: 0x0, symName: __ZNSt3__125__throw_bad_function_callB8ne200100Ev, symObjAddr: 0x8BF6, symBinAddr: 0x10000943A, symSize: 0x32 }
  - { offset: 0x7C2DA, size: 0x8, addend: 0x0, symName: __ZNSt3__111regex_matchB8ne200100INS_11__wrap_iterIPKcEENS_9allocatorINS_9sub_matchIS4_EEEEcNS_12regex_traitsIcEEEEbT_SB_RNS_13match_resultsISB_T0_EERKNS_11basic_regexIT1_T2_EENS_15regex_constants15match_flag_typeE, symObjAddr: 0x33499, symBinAddr: 0x100032C1D, symSize: 0xEE }
  - { offset: 0x7D844, size: 0x8, addend: 0x0, symName: __ZNSt3__14endlB8ne200100IcNS_11char_traitsIcEEEERNS_13basic_ostreamIT_T0_EES7_, symObjAddr: 0x2916, symBinAddr: 0x10000322A, symSize: 0x81 }
  - { offset: 0x7E03D, size: 0x8, addend: 0x0, symName: __ZNSt3__119__allocate_at_leastB8ne200100INS_9allocatorINS_12basic_stringIcNS_11char_traitsIcEENS1_IcEEEEEEEENS_19__allocation_resultINS_16allocator_traitsIT_E7pointerEEERSA_m, symObjAddr: 0x794A, symBinAddr: 0x1000081BA, symSize: 0x38 }
  - { offset: 0x7E0EE, size: 0x8, addend: 0x0, symName: __ZNSt3__114__split_bufferINS_12basic_stringIcNS_11char_traitsIcEENS_9allocatorIcEEEERNS4_IS6_EEED2Ev, symObjAddr: 0x7982, symBinAddr: 0x1000081F2, symSize: 0x28 }
  - { offset: 0x7E2A8, size: 0x8, addend: 0x0, symName: __ZN7httplib6ServerC2Ev, symObjAddr: 0x7A26, symBinAddr: 0x10000826A, symSize: 0x660 }
  - { offset: 0x7E912, size: 0x8, addend: 0x0, symName: __ZNSt3__120__throw_out_of_rangeB8ne200100EPKc, symObjAddr: 0x574C, symBinAddr: 0x100006060, symSize: 0x4C }
  - { offset: 0x7E953, size: 0x8, addend: 0x0, symName: __ZNSt3__120__throw_length_errorB8ne200100EPKc, symObjAddr: 0x57CC, symBinAddr: 0x1000060E0, symSize: 0x4C }
  - { offset: 0x7EA24, size: 0x8, addend: 0x0, symName: __ZNSt3__112__destroy_atB8ne200100INS_4pairINS_10unique_ptrIN7httplib6detail11MatcherBaseENS_14default_deleteIS5_EEEENS_8functionIFvRKNS3_7RequestERNS3_8ResponseEEEEEELi0EEEvPT_, symObjAddr: 0x58C2, symBinAddr: 0x1000061D6, symSize: 0x50 }
  - { offset: 0x7EDDD, size: 0x8, addend: 0x0, symName: __ZNSt3__112__destroy_atB8ne200100IN7httplib6Server15MountPointEntryELi0EEEvPT_, symObjAddr: 0x5A0E, symBinAddr: 0x10000627E, symSize: 0x3C }
  - { offset: 0x7FE1F, size: 0x8, addend: 0x0, symName: __ZNSt3__1plB8ne200100IcNS_11char_traitsIcEENS_9allocatorIcEEEENS_12basic_stringIT_T0_T1_EEOS9_RKS9_, symObjAddr: 0x5F1F, symBinAddr: 0x10000678F, symSize: 0x53 }
  - { offset: 0x80341, size: 0x8, addend: 0x0, symName: __ZNSt3__119__allocate_at_leastB8ne200100INS_9allocatorIxEEEENS_19__allocation_resultINS_16allocator_traitsIT_E7pointerEEERS5_m, symObjAddr: 0x790C, symBinAddr: 0x10000817C, symSize: 0x2E }
  - { offset: 0x803F2, size: 0x8, addend: 0x0, symName: __ZNSt3__16vectorINS_12basic_stringIcNS_11char_traitsIcEENS_9allocatorIcEEEENS4_IS6_EEE20__throw_length_errorB8ne200100Ev, symObjAddr: 0x793A, symBinAddr: 0x1000081AA, symSize: 0x10 }
  - { offset: 0x80A88, size: 0x8, addend: 0x0, symName: __ZNSt3__119__allocate_at_leastB8ne200100INS_9allocatorINS_6threadEEEEENS_19__allocation_resultINS_16allocator_traitsIT_E7pointerEEERS6_m, symObjAddr: 0x86E5, symBinAddr: 0x100008F29, symSize: 0x2F }
  - { offset: 0x812E6, size: 0x8, addend: 0x0, symName: __ZNSt3__114__thread_proxyB8ne200100INS_5tupleIJNS_10unique_ptrINS_15__thread_structENS_14default_deleteIS3_EEEEN7httplib10ThreadPool6workerEEEEEEPvSB_, symObjAddr: 0x87F4, symBinAddr: 0x100009038, symSize: 0x5E }
  - { offset: 0x82213, size: 0x8, addend: 0x0, symName: __ZNSt3__119__allocate_at_leastB8ne200100INS_9allocatorINS_4pairINS_10unique_ptrIN7httplib6detail11MatcherBaseENS_14default_deleteIS6_EEEENS_8functionIFvRKNS4_7RequestERNS4_8ResponseEEEEEEEEEENS_19__allocation_resultINS_16allocator_traitsIT_E7pointerEEERSM_m, symObjAddr: 0x91AE, symBinAddr: 0x1000099F2, symSize: 0x2D }
  - { offset: 0x822C4, size: 0x8, addend: 0x0, symName: __ZNSt3__134__uninitialized_allocator_relocateB8ne200100INS_9allocatorINS_4pairINS_10unique_ptrIN7httplib6detail11MatcherBaseENS_14default_deleteIS6_EEEENS_8functionIFvRKNS4_7RequestERNS4_8ResponseEEEEEEEEPSI_EEvRT_T0_SN_SN_, symObjAddr: 0x91DB, symBinAddr: 0x100009A1F, symSize: 0x6F }
  - { offset: 0x82314, size: 0x8, addend: 0x0, symName: __ZNSt3__134__uninitialized_allocator_relocateB8ne200100INS_9allocatorINS_4pairINS_10unique_ptrIN7httplib6detail11MatcherBaseENS_14default_deleteIS6_EEEENS_8functionIFvRKNS4_7RequestERNS4_8ResponseEEEEEEEEPSI_EEvRT_T0_SN_SN_, symObjAddr: 0x91DB, symBinAddr: 0x100009A1F, symSize: 0x6F }
  - { offset: 0x82373, size: 0x8, addend: 0x0, symName: __ZNSt3__134__uninitialized_allocator_relocateB8ne200100INS_9allocatorINS_4pairINS_10unique_ptrIN7httplib6detail11MatcherBaseENS_14default_deleteIS6_EEEENS_8functionIFvRKNS4_7RequestERNS4_8ResponseEEEEEEEEPSI_EEvRT_T0_SN_SN_, symObjAddr: 0x91DB, symBinAddr: 0x100009A1F, symSize: 0x6F }
  - { offset: 0x82FAE, size: 0x8, addend: 0x0, symName: __ZNSt3__1plB8ne200100IcNS_11char_traitsIcEENS_9allocatorIcEEEENS_12basic_stringIT_T0_T1_EEOS9_PKS6_, symObjAddr: 0x97A6, symBinAddr: 0x100009FEA, symSize: 0x54 }
  - { offset: 0x8326E, size: 0x8, addend: 0x0, symName: __ZNSt3__119__throw_regex_errorB8ne200100ILNS_15regex_constants10error_typeE17EEEvv, symObjAddr: 0x9C96, symBinAddr: 0x10000A4CE, symSize: 0x4A }
  - { offset: 0x8351C, size: 0x8, addend: 0x0, symName: __ZNSt3__119__throw_regex_errorB8ne200100ILNS_15regex_constants10error_typeE14EEEvv, symObjAddr: 0xA234, symBinAddr: 0x10000AA6C, symSize: 0x4A }
  - { offset: 0x8376A, size: 0x8, addend: 0x0, symName: __ZNSt3__119__throw_regex_errorB8ne200100ILNS_15regex_constants10error_typeE15EEEvv, symObjAddr: 0x10663, symBinAddr: 0x100010B6F, symSize: 0x4B }
  - { offset: 0x83EC9, size: 0x8, addend: 0x0, symName: __ZNSt3__119__throw_regex_errorB8ne200100ILNS_15regex_constants10error_typeE6EEEvv, symObjAddr: 0xAD76, symBinAddr: 0x10000B5AE, symSize: 0x4A }
  - { offset: 0x83F63, size: 0x8, addend: 0x0, symName: __ZNSt3__119__throw_regex_errorB8ne200100ILNS_15regex_constants10error_typeE11EEEvv, symObjAddr: 0xC45C, symBinAddr: 0x10000CC24, symSize: 0x4A }
  - { offset: 0x83F89, size: 0x8, addend: 0x0, symName: __ZNSt3__119__throw_regex_errorB8ne200100ILNS_15regex_constants10error_typeE8EEEvv, symObjAddr: 0x10215, symBinAddr: 0x100010721, symSize: 0x4A }
  - { offset: 0x83FAF, size: 0x8, addend: 0x0, symName: __ZNSt3__119__throw_regex_errorB8ne200100ILNS_15regex_constants10error_typeE7EEEvv, symObjAddr: 0x1025F, symBinAddr: 0x10001076B, symSize: 0x4B }
  - { offset: 0x84731, size: 0x8, addend: 0x0, symName: __ZNSt3__119__throw_regex_errorB8ne200100ILNS_15regex_constants10error_typeE12EEEvv, symObjAddr: 0xBAB0, symBinAddr: 0x10000C2B0, symSize: 0x4A }
  - { offset: 0x84757, size: 0x8, addend: 0x0, symName: __ZNSt3__119__throw_regex_errorB8ne200100ILNS_15regex_constants10error_typeE16EEEvv, symObjAddr: 0xBAFA, symBinAddr: 0x10000C2FA, symSize: 0x4A }
  - { offset: 0x8497E, size: 0x8, addend: 0x0, symName: __ZNSt3__16vectorINS_7__stateIcEENS_9allocatorIS2_EEE9push_backB8ne200100EOS2_, symObjAddr: 0xB972, symBinAddr: 0x10000C172, symSize: 0x90 }
  - { offset: 0x84AEA, size: 0x8, addend: 0x0, symName: __ZNSt3__119__allocate_at_leastB8ne200100INS_9allocatorINS_7__stateIcEEEEEENS_19__allocation_resultINS_16allocator_traitsIT_E7pointerEEERS7_m, symObjAddr: 0xBCE4, symBinAddr: 0x10000C4E4, symSize: 0x37 }
  - { offset: 0x84B9B, size: 0x8, addend: 0x0, symName: __ZNSt3__134__uninitialized_allocator_relocateB8ne200100INS_9allocatorINS_7__stateIcEEEEPS3_EEvRT_T0_S8_S8_, symObjAddr: 0xBD1B, symBinAddr: 0x10000C51B, symSize: 0xB1 }
  - { offset: 0x84BAF, size: 0x8, addend: 0x0, symName: __ZNSt3__134__uninitialized_allocator_relocateB8ne200100INS_9allocatorINS_7__stateIcEEEEPS3_EEvRT_T0_S8_S8_, symObjAddr: 0xBD1B, symBinAddr: 0x10000C51B, symSize: 0xB1 }
  - { offset: 0x84C0E, size: 0x8, addend: 0x0, symName: __ZNSt3__134__uninitialized_allocator_relocateB8ne200100INS_9allocatorINS_7__stateIcEEEEPS3_EEvRT_T0_S8_S8_, symObjAddr: 0xBD1B, symBinAddr: 0x10000C51B, symSize: 0xB1 }
  - { offset: 0x852D5, size: 0x8, addend: 0x0, symName: __ZNSt3__119__allocate_at_leastB8ne200100INS_9allocatorINS_4pairImPKcEEEEEENS_19__allocation_resultINS_16allocator_traitsIT_E7pointerEEERS9_m, symObjAddr: 0xC0CC, symBinAddr: 0x10000C894, symSize: 0x2E }
  - { offset: 0x85847, size: 0x8, addend: 0x0, symName: __ZNSt3__119__throw_regex_errorB8ne200100ILNS_15regex_constants10error_typeE3EEEvv, symObjAddr: 0xC546, symBinAddr: 0x10000CD0E, symSize: 0x4A }
  - { offset: 0x8586D, size: 0x8, addend: 0x0, symName: __ZNSt3__119__throw_regex_errorB8ne200100ILNS_15regex_constants10error_typeE5EEEvv, symObjAddr: 0xE558, symBinAddr: 0x10000EB84, symSize: 0x4A }
  - { offset: 0x8599F, size: 0x8, addend: 0x0, symName: __ZNSt3__119__throw_regex_errorB8ne200100ILNS_15regex_constants10error_typeE4EEEvv, symObjAddr: 0xCBE5, symBinAddr: 0x10000D3AD, symSize: 0x4B }
  - { offset: 0x8608B, size: 0x8, addend: 0x0, symName: __ZNSt3__1eqB8ne200100IcNS_11char_traitsIcEENS_9allocatorIcEEEEbRKNS_12basic_stringIT_T0_T1_EEPKS6_, symObjAddr: 0xD57D, symBinAddr: 0x10000DD45, symSize: 0x65 }
  - { offset: 0x86452, size: 0x8, addend: 0x0, symName: __ZNSt3__1ssB8ne200100IcNS_11char_traitsIcEENS_9allocatorIcEEEEDaRKNS_12basic_stringIT_T0_T1_EESC_, symObjAddr: 0xDFC8, symBinAddr: 0x10000E75C, symSize: 0x66 }
  - { offset: 0x866E0, size: 0x8, addend: 0x0, symName: __ZNSt3__112__destroy_atB8ne200100INS_4pairINS_12basic_stringIcNS_11char_traitsIcEENS_9allocatorIcEEEES7_EELi0EEEvPT_, symObjAddr: 0xDED2, symBinAddr: 0x10000E69A, symSize: 0x34 }
  - { offset: 0x86EB9, size: 0x8, addend: 0x0, symName: __ZNSt3__119__throw_regex_errorB8ne200100ILNS_15regex_constants10error_typeE1EEEvv, symObjAddr: 0xF481, symBinAddr: 0x10000FAAD, symSize: 0x4B }
  - { offset: 0x86EDF, size: 0x8, addend: 0x0, symName: __ZNSt3__119__throw_regex_errorB8ne200100ILNS_15regex_constants10error_typeE2EEEvv, symObjAddr: 0xFA13, symBinAddr: 0x10000FF1F, symSize: 0x4B }
  - { offset: 0x86F42, size: 0x8, addend: 0x0, symName: __ZNSt3__119__throw_regex_errorB8ne200100ILNS_15regex_constants10error_typeE9EEEvv, symObjAddr: 0xFD72, symBinAddr: 0x10001027E, symSize: 0x4A }
  - { offset: 0x87289, size: 0x8, addend: 0x0, symName: __ZNSt3__119__allocate_at_leastB8ne200100INS_9allocatorINS_4pairINS_12basic_stringIcNS_11char_traitsIcEENS1_IcEEEES7_EEEEEENS_19__allocation_resultINS_16allocator_traitsIT_E7pointerEEERSC_m, symObjAddr: 0xFDCC, symBinAddr: 0x1000102D8, symSize: 0x38 }
  - { offset: 0x874F6, size: 0x8, addend: 0x0, symName: __ZNSt3__119__allocate_at_leastB8ne200100INS_9allocatorINS_4pairIccEEEEEENS_19__allocation_resultINS_16allocator_traitsIT_E7pointerEEERS7_m, symObjAddr: 0xFF2E, symBinAddr: 0x10001043A, symSize: 0x26 }
  - { offset: 0x875A7, size: 0x8, addend: 0x0, symName: __ZNSt3__128__begin_marked_subexpressionIcED1Ev, symObjAddr: 0xFF54, symBinAddr: 0x100010460, symSize: 0x24 }
  - { offset: 0x888FD, size: 0x8, addend: 0x0, symName: __ZNSt3__114__split_bufferINS_10unique_ptrI18OgaTokenizerStreamNS_14default_deleteIS2_EEEERNS_9allocatorIS5_EEED2Ev, symObjAddr: 0x129AA, symBinAddr: 0x100012E3E, symSize: 0x42 }
  - { offset: 0x88E3A, size: 0x8, addend: 0x0, symName: __ZNSt3__115allocate_sharedB8ne200100IN7httplib6detail4mmapENS_9allocatorIS3_EEJPKcELi0EEENS_10shared_ptrIT_EERKT0_DpOT1_, symObjAddr: 0x2F19A, symBinAddr: 0x10002ED82, symSize: 0x58 }
  - { offset: 0x89931, size: 0x8, addend: 0x0, symName: __ZNSt3__18__any_ofB8ne200100INS_11__wrap_iterIPKNS_12basic_stringIcNS_11char_traitsIcEENS_9allocatorIcEEEEEESA_NS_10__identityEZN7httplib13get_client_ipERS8_RKNS_6vectorIS7_NS5_IS7_EEEEEUlSD_E_EEbT_T0_RT2_RT1_, symObjAddr: 0x1FCFC, symBinAddr: 0x10001FFB8, symSize: 0xAA }
  - { offset: 0x8AB1D, size: 0x8, addend: 0x0, symName: __ZNSt3__119__allocate_at_leastB8ne200100INS_9allocatorINS_4pairIllEEEEEENS_19__allocation_resultINS_16allocator_traitsIT_E7pointerEEERS7_m, symObjAddr: 0x2293C, symBinAddr: 0x100022B1C, symSize: 0x2D }
  - { offset: 0x8ABCE, size: 0x8, addend: 0x0, symName: __ZN7httplib14status_messageEi, symObjAddr: 0x22969, symBinAddr: 0x100022B49, symSize: 0x4C7 }
  - { offset: 0x8AFFC, size: 0x8, addend: 0x0, symName: __ZNSt3__112__destroy_atB8ne200100INS_4pairIKNS_12basic_stringIcNS_11char_traitsIcEENS_9allocatorIcEEEEN7httplib8FormDataEEELi0EEEvPT_, symObjAddr: 0x17298, symBinAddr: 0x1000176F8, symSize: 0x6A }
  - { offset: 0x8B702, size: 0x8, addend: 0x0, symName: __ZNSt3__112__destroy_atB8ne200100INS_4pairIKNS_12basic_stringIcNS_11char_traitsIcEENS_9allocatorIcEEEEN7httplib9FormFieldEEELi0EEEvPT_, symObjAddr: 0x1733E, symBinAddr: 0x10001779E, symSize: 0x4C }
  - { offset: 0x8C88A, size: 0x8, addend: 0x0, symName: __ZNSt3__119__allocate_at_leastB8ne200100INS_9allocatorIjEEEENS_19__allocation_resultINS_16allocator_traitsIT_E7pointerEEERS5_m, symObjAddr: 0x1AD7A, symBinAddr: 0x10001B16E, symSize: 0x2E }
  - { offset: 0x8C93B, size: 0x8, addend: 0x0, symName: __ZNSt3__123mersenne_twister_engineIjLm32ELm624ELm397ELm31ELj2567483615ELm11ELj4294967295ELm7ELj2636928640ELm15ELj4022730752ELm18ELj1812433253EE6__seedINS_8seed_seqEEEvRT_NS_17integral_constantIjLj1EEE, symObjAddr: 0x1ADA8, symBinAddr: 0x10001B19C, symSize: 0x92 }
  - { offset: 0x8E2E6, size: 0x8, addend: 0x0, symName: __ZNSt3__1plB8ne200100IcNS_11char_traitsIcEENS_9allocatorIcEEEENS_12basic_stringIT_T0_T1_EES6_RKS9_, symObjAddr: 0x1D80B, symBinAddr: 0x10001DB9F, symSize: 0x8B }
  - { offset: 0x8F9C7, size: 0x8, addend: 0x0, symName: __ZNSt3__127__tree_balance_after_insertB8ne200100IPNS_16__tree_node_baseIPvEEEEvT_S5_, symObjAddr: 0x1ECE9, symBinAddr: 0x10001F04D, symSize: 0x169 }
  - { offset: 0x90BA7, size: 0x8, addend: 0x0, symName: __ZNSt3__119__allocate_at_leastB8ne200100INS_9allocatorIZN7httplib6detail19parse_accept_headerERKNS_12basic_stringIcNS_11char_traitsIcEENS1_IcEEEERNS_6vectorIS8_NS1_IS8_EEEEE11AcceptEntryEEEENS_19__allocation_resultINS_16allocator_traitsIT_E7pointerEEERSJ_m, symObjAddr: 0x2076C, symBinAddr: 0x100020A28, symSize: 0x38 }
  - { offset: 0x90C58, size: 0x8, addend: 0x0, symName: __ZNSt3__134__uninitialized_allocator_relocateB8ne200100INS_9allocatorIZN7httplib6detail19parse_accept_headerERKNS_12basic_stringIcNS_11char_traitsIcEENS1_IcEEEERNS_6vectorIS8_NS1_IS8_EEEEE11AcceptEntryEEPSF_EEvRT_T0_SK_SK_, symObjAddr: 0x207A4, symBinAddr: 0x100020A60, symSize: 0xA2 }
  - { offset: 0x90C6C, size: 0x8, addend: 0x0, symName: __ZNSt3__134__uninitialized_allocator_relocateB8ne200100INS_9allocatorIZN7httplib6detail19parse_accept_headerERKNS_12basic_stringIcNS_11char_traitsIcEENS1_IcEEEERNS_6vectorIS8_NS1_IS8_EEEEE11AcceptEntryEEPSF_EEvRT_T0_SK_SK_, symObjAddr: 0x207A4, symBinAddr: 0x100020A60, symSize: 0xA2 }
  - { offset: 0x91340, size: 0x8, addend: 0x0, symName: __ZNSt3__17__sort3B8ne200100INS_17_ClassicAlgPolicyERZN7httplib6detail19parse_accept_headerERKNS_12basic_stringIcNS_11char_traitsIcEENS_9allocatorIcEEEERNS_6vectorIS9_NS7_IS9_EEEEEUlRKZNS3_19parse_accept_headerESB_SF_E11AcceptEntrySI_E_PSG_Li0EEEbT1_SM_SM_T0_, symObjAddr: 0x20DB5, symBinAddr: 0x100021071, symSize: 0x111 }
  - { offset: 0x91556, size: 0x8, addend: 0x0, symName: __ZNSt3__17__sort5B8ne200100INS_17_ClassicAlgPolicyERZN7httplib6detail19parse_accept_headerERKNS_12basic_stringIcNS_11char_traitsIcEENS_9allocatorIcEEEERNS_6vectorIS9_NS7_IS9_EEEEEUlRKZNS3_19parse_accept_headerESB_SF_E11AcceptEntrySI_E_PSG_Li0EEEvT1_SM_SM_SM_SM_T0_, symObjAddr: 0x20EC6, symBinAddr: 0x100021182, symSize: 0x1FE }
  - { offset: 0x91852, size: 0x8, addend: 0x0, symName: __ZNSt3__116__insertion_sortB8ne200100INS_17_ClassicAlgPolicyERZN7httplib6detail19parse_accept_headerERKNS_12basic_stringIcNS_11char_traitsIcEENS_9allocatorIcEEEERNS_6vectorIS9_NS7_IS9_EEEEEUlRKZNS3_19parse_accept_headerESB_SF_E11AcceptEntrySI_E_PSG_EEvT1_SM_T0_, symObjAddr: 0x210C4, symBinAddr: 0x100021380, symSize: 0x1B5 }
  - { offset: 0x91C30, size: 0x8, addend: 0x0, symName: __ZNSt3__119__partial_sort_implB8ne200100INS_17_ClassicAlgPolicyERZN7httplib6detail19parse_accept_headerERKNS_12basic_stringIcNS_11char_traitsIcEENS_9allocatorIcEEEERNS_6vectorIS9_NS7_IS9_EEEEEUlRKZNS3_19parse_accept_headerESB_SF_E11AcceptEntrySI_E_PSG_SL_EET1_SM_SM_T2_OT0_, symObjAddr: 0x21D08, symBinAddr: 0x100021EE8, symSize: 0x161 }
  - { offset: 0x91FB4, size: 0x8, addend: 0x0, symName: __ZNSt3__110__pop_heapB8ne200100INS_17_ClassicAlgPolicyEZN7httplib6detail19parse_accept_headerERKNS_12basic_stringIcNS_11char_traitsIcEENS_9allocatorIcEEEERNS_6vectorIS9_NS7_IS9_EEEEEUlRKZNS3_19parse_accept_headerESB_SF_E11AcceptEntrySI_E_PSG_EEvT1_SL_RT0_NS_15iterator_traitsISL_E15difference_typeE, symObjAddr: 0x220B8, symBinAddr: 0x100022298, symSize: 0x1C2 }
  - { offset: 0x925B3, size: 0x8, addend: 0x0, symName: __ZNSt3__19__sift_upB8ne200100INS_17_ClassicAlgPolicyERZN7httplib6detail19parse_accept_headerERKNS_12basic_stringIcNS_11char_traitsIcEENS_9allocatorIcEEEERNS_6vectorIS9_NS7_IS9_EEEEEUlRKZNS3_19parse_accept_headerESB_SF_E11AcceptEntrySI_E_PSG_EEvT1_SM_OT0_NS_15iterator_traitsISM_E15difference_typeE, symObjAddr: 0x22353, symBinAddr: 0x100022533, symSize: 0x197 }
  - { offset: 0x93013, size: 0x8, addend: 0x0, symName: __ZNSt3__1plB8ne200100IcNS_11char_traitsIcEENS_9allocatorIcEEEENS_12basic_stringIT_T0_T1_EERKS9_SB_, symObjAddr: 0x242C5, symBinAddr: 0x1000244A5, symSize: 0xC3 }
  - { offset: 0x978B5, size: 0x8, addend: 0x0, symName: __ZNSt3__112__destroy_atB8ne200100IN7httplib6detail4mmapELi0EEEvPT_, symObjAddr: 0x2F3B6, symBinAddr: 0x10002EF9E, symSize: 0x4C }
  - { offset: 0x97EB8, size: 0x8, addend: 0x0, symName: __ZNSt3__15dequeINS_7__stateIcEENS_9allocatorIS2_EEE25__maybe_remove_back_spareB8ne200100Eb, symObjAddr: 0x30E4E, symBinAddr: 0x1000308FE, symSize: 0x6A }
  - { offset: 0x99025, size: 0x8, addend: 0x0, symName: __ZNSt3__17__sort5B8ne200100INS_17_ClassicAlgPolicyERZN7httplib6detail15coalesce_rangesERNS_6vectorINS_4pairIllEENS_9allocatorIS6_EEEEmEUlRKS6_SC_E_PS6_Li0EEEvT1_SG_SG_SG_SG_T0_, symObjAddr: 0x326A4, symBinAddr: 0x100031E28, symSize: 0x17D }
  - { offset: 0x99DED, size: 0x8, addend: 0x0, symName: __ZNSt3__116__insertion_sortB8ne200100INS_17_ClassicAlgPolicyERZN7httplib6detail15coalesce_rangesERNS_6vectorINS_4pairIllEENS_9allocatorIS6_EEEEmEUlRKS6_SC_E_PS6_EEvT1_SG_T0_, symObjAddr: 0x32821, symBinAddr: 0x100031FA5, symSize: 0x73 }
  - { offset: 0x99F22, size: 0x8, addend: 0x0, symName: __ZNSt3__119__partial_sort_implB8ne200100INS_17_ClassicAlgPolicyERZN7httplib6detail15coalesce_rangesERNS_6vectorINS_4pairIllEENS_9allocatorIS6_EEEEmEUlRKS6_SC_E_PS6_SF_EET1_SG_SG_T2_OT0_, symObjAddr: 0x32DD0, symBinAddr: 0x100032554, symSize: 0x16C }
  - { offset: 0x9A468, size: 0x8, addend: 0x0, symName: __ZNSt3__19__sift_upB8ne200100INS_17_ClassicAlgPolicyERZN7httplib6detail15coalesce_rangesERNS_6vectorINS_4pairIllEENS_9allocatorIS6_EEEEmEUlRKS6_SC_E_PS6_EEvT1_SG_OT0_NS_15iterator_traitsISG_E15difference_typeE, symObjAddr: 0x33097, symBinAddr: 0x10003281B, symSize: 0x69 }
  - { offset: 0x9A621, size: 0x8, addend: 0x0, symName: __ZNSt3__116__pad_and_outputB8ne200100IcNS_11char_traitsIcEEEENS_19ostreambuf_iteratorIT_T0_EES6_PKS4_S8_S8_RNS_8ios_baseES4_, symObjAddr: 0x336D7, symBinAddr: 0x100032E5B, symSize: 0x10B }
  - { offset: 0x9C74B, size: 0x8, addend: 0x0, symName: __ZNSt3__134__uninitialized_allocator_relocateB8ne200100INS_9allocatorIN3Ort5ValueEEEPS3_EEvRT_T0_S8_S8_, symObjAddr: 0x37F96, symBinAddr: 0x10003749E, symSize: 0x8E }
  - { offset: 0x9C75F, size: 0x8, addend: 0x0, symName: __ZNSt3__134__uninitialized_allocator_relocateB8ne200100INS_9allocatorIN3Ort5ValueEEEPS3_EEvRT_T0_S8_S8_, symObjAddr: 0x37F96, symBinAddr: 0x10003749E, symSize: 0x8E }
  - { offset: 0x9D151, size: 0x8, addend: 0x0, symName: __ZNSt3__16vectorIN3Ort5ValueENS_9allocatorIS2_EEE16__destroy_vectorclB8ne200100Ev, symObjAddr: 0x384C6, symBinAddr: 0x1000379A2, symSize: 0x30 }
  - { offset: 0xA645E, size: 0x8, addend: 0x0, symName: __ZSt28__throw_bad_array_new_lengthB8ne200100v, symObjAddr: 0x583B, symBinAddr: 0x10000614F, symSize: 0x31 }
  - { offset: 0xA6849, size: 0x8, addend: 0x0, symName: __ZN7httplib6detail14parse_trailersERNS0_18stream_line_readerERNSt3__118unordered_multimapINS3_12basic_stringIcNS3_11char_traitsIcEENS3_9allocatorIcEEEESA_NS0_11case_ignore4hashENSB_8equal_toENS8_INS3_4pairIKSA_SA_EEEEEERKSI_, symObjAddr: 0x2CB1B, symBinAddr: 0x10002CA53, symSize: 0x643 }
  - { offset: 0xA6875, size: 0x8, addend: 0x0, symName: __ZZN7httplib6detail14parse_trailersERNS0_18stream_line_readerERNSt3__118unordered_multimapINS3_12basic_stringIcNS3_11char_traitsIcEENS3_9allocatorIcEEEESA_NS0_11case_ignore4hashENSB_8equal_toENS8_INS3_4pairIKSA_SA_EEEEEERKSI_E19prohibited_trailers, symObjAddr: 0x44EB8, symBinAddr: 0x10006A6C8, symSize: 0x0 }
  - { offset: 0xA7CEA, size: 0x8, addend: 0x0, symName: __ZN7httplib6detail14file_extensionERKNSt3__112basic_stringIcNS1_11char_traitsIcEENS1_9allocatorIcEEEE, symObjAddr: 0x2F402, symBinAddr: 0x10002EFEA, symSize: 0x21A }
  - { offset: 0xA7D16, size: 0x8, addend: 0x0, symName: __ZZN7httplib6detail14file_extensionERKNSt3__112basic_stringIcNS1_11char_traitsIcEENS1_9allocatorIcEEEEE2re, symObjAddr: 0x44EE8, symBinAddr: 0x10006A6F8, symSize: 0x0 }
  - { offset: 0xA8A5A, size: 0x8, addend: 0x0, symName: __ZN7httplib6detail13create_socketIZNKS_6Server20create_server_socketERKNSt3__112basic_stringIcNS3_11char_traitsIcEENS3_9allocatorIcEEEEiiNS3_8functionIFviEEEEUliR8addrinfoRbE_EEiSB_SB_iiibbSE_T_l, symObjAddr: 0x11674, symBinAddr: 0x100011B80, symSize: 0x4B0 }
  - { offset: 0xA9C5C, size: 0x8, addend: 0x0, symName: __ZN7httplib6detail27write_content_with_progressIZNS_6Server27write_content_with_providerERNS_6StreamERKNS_7RequestERNS_8ResponseERKNSt3__112basic_stringIcNSA_11char_traitsIcEENSA_9allocatorIcEEEESI_EUlvE_EEbS4_RKNSA_8functionIFbmmRNS_8DataSinkEEEEmmT_RKNSK_IFbmmEEERNS_5ErrorE, symObjAddr: 0x1BE40, symBinAddr: 0x10001C234, symSize: 0x23A }
  - { offset: 0xAA2D2, size: 0x8, addend: 0x0, symName: __ZN7httplib6detail21write_content_chunkedIZNS_6Server27write_content_with_providerERNS_6StreamERKNS_7RequestERNS_8ResponseERKNSt3__112basic_stringIcNSA_11char_traitsIcEENSA_9allocatorIcEEEESI_EUlvE_NS0_10compressorEEEbS4_RKNSA_8functionIFbmmRNS_8DataSinkEEEERKT_RT0_RNS_5ErrorE, symObjAddr: 0x1CE61, symBinAddr: 0x10001D1F5, symSize: 0x293 }
  - { offset: 0xAA933, size: 0x8, addend: 0x0, symName: __ZN7httplib6detail28write_content_without_lengthIZNS_6Server27write_content_with_providerERNS_6StreamERKNS_7RequestERNS_8ResponseERKNSt3__112basic_stringIcNSA_11char_traitsIcEENSA_9allocatorIcEEEESI_EUlvE_EEbS4_RKNSA_8functionIFbmmRNS_8DataSinkEEEERKT_, symObjAddr: 0x1BC32, symBinAddr: 0x10001C026, symSize: 0x20E }
  - { offset: 0xAAEAE, size: 0x8, addend: 0x0, symName: __ZN7httplib6detail16parse_query_textEPKcmRNSt3__18multimapINS3_12basic_stringIcNS3_11char_traitsIcEENS3_9allocatorIcEEEESA_NS3_4lessISA_EENS8_INS3_4pairIKSA_SA_EEEEEE, symObjAddr: 0x1F10E, symBinAddr: 0x10001F472, symSize: 0x152 }
  - { offset: 0xAB5C3, size: 0x8, addend: 0x0, symName: __ZN7httplib6detail19parse_accept_headerERKNSt3__112basic_stringIcNS1_11char_traitsIcEENS1_9allocatorIcEEEERNS1_6vectorIS7_NS5_IS7_EEEE, symObjAddr: 0x15412, symBinAddr: 0x1000158A6, symSize: 0x2F7 }
  - { offset: 0xAC21F, size: 0x8, addend: 0x0, symName: __ZN7httplib6detail18parse_range_headerERKNSt3__112basic_stringIcNS1_11char_traitsIcEENS1_9allocatorIcEEEERNS1_6vectorINS1_4pairIllEENS5_ISC_EEEE, symObjAddr: 0x15709, symBinAddr: 0x100015B9D, symSize: 0x1CF }
  - { offset: 0xACA25, size: 0x8, addend: 0x0, symName: __ZN7httplib6detail24parse_disposition_paramsERKNSt3__112basic_stringIcNS1_11char_traitsIcEENS1_9allocatorIcEEEERNS1_8multimapIS7_S7_NS1_4lessIS7_EENS5_INS1_4pairIS8_S7_EEEEEE, symObjAddr: 0x28611, symBinAddr: 0x1000287C1, symSize: 0x169 }
  - { offset: 0xAD18A, size: 0x8, addend: 0x0, symName: __ZN7httplib6detail24prepare_content_receiverINS_7RequestEZNS0_12read_contentIS2_EEbRNS_6StreamERT_mRiNSt3__18functionIFbmmEEENSA_IFbPKcmmmEEEbEUlRKSG_E_EEbS7_S8_SG_bT0_, symObjAddr: 0x2BBD3, symBinAddr: 0x10002BB4B, symSize: 0x26D }
  - { offset: 0xAE456, size: 0x8, addend: 0x0, symName: __ZN7httplib6detail11make_uniqueINS0_12RegexMatcherEJRKNSt3__112basic_stringIcNS3_11char_traitsIcEENS3_9allocatorIcEEEEEEENS3_9enable_ifIXntsr3std8is_arrayIT_EE5valueENS3_10unique_ptrISD_NS3_14default_deleteISD_EEEEE4typeEDpOT0_, symObjAddr: 0x92D6, symBinAddr: 0x100009B1A, symSize: 0x4C }
  - { offset: 0xAE525, size: 0x8, addend: 0x0, symName: __ZN7httplib6detail11make_uniqueINS0_17PathParamsMatcherEJRKNSt3__112basic_stringIcNS3_11char_traitsIcEENS3_9allocatorIcEEEEEEENS3_9enable_ifIXntsr3std8is_arrayIT_EE5valueENS3_10unique_ptrISD_NS3_14default_deleteISD_EEEEE4typeEDpOT0_, symObjAddr: 0x928A, symBinAddr: 0x100009ACE, symSize: 0x4C }
  - { offset: 0xAE69B, size: 0x8, addend: 0x0, symName: __ZN7httplib6detail11select_implILb1EEElill, symObjAddr: 0x11E47, symBinAddr: 0x100012307, symSize: 0x101 }
  - { offset: 0xAE93E, size: 0x8, addend: 0x0, symName: __ZN7httplib6detail11select_implILb0EEElill, symObjAddr: 0x12D24, symBinAddr: 0x1000131B8, symSize: 0x100 }
  - { offset: 0xAEBAA, size: 0x8, addend: 0x0, symName: __ZN7httplib6detail15is_socket_aliveEi, symObjAddr: 0x12C79, symBinAddr: 0x10001310D, symSize: 0xAB }
  - { offset: 0xAF040, size: 0x8, addend: 0x0, symName: __ZN7httplib6detail21process_server_socketIZNS_6Server24process_and_close_socketEiEUlRNS_6StreamEbRbE_EEbRKNSt3__16atomicIiEEimlllllT_, symObjAddr: 0x12E24, symBinAddr: 0x1000132B8, symSize: 0x116 }
  - { offset: 0xAF42C, size: 0x8, addend: 0x0, symName: __ZN7httplib6detail13write_headersERNS_6StreamERKNSt3__118unordered_multimapINS3_12basic_stringIcNS3_11char_traitsIcEENS3_9allocatorIcEEEESA_NS0_11case_ignore4hashENSB_8equal_toENS8_INS3_4pairIKSA_SA_EEEEEE, symObjAddr: 0x80B3, symBinAddr: 0x1000088F7, symSize: 0x127 }
  - { offset: 0xAFE29, size: 0x8, addend: 0x0, symName: __ZN7httplib6detail12read_headersERNS_6StreamERNSt3__118unordered_multimapINS3_12basic_stringIcNS3_11char_traitsIcEENS3_9allocatorIcEEEESA_NS0_11case_ignore4hashENSB_8equal_toENS8_INS3_4pairIKSA_SA_EEEEEE, symObjAddr: 0x148E4, symBinAddr: 0x100014D78, symSize: 0x1F6 }
  - { offset: 0xB0480, size: 0x8, addend: 0x0, symName: __ZN7httplib6detail16get_header_valueERKNSt3__118unordered_multimapINS1_12basic_stringIcNS1_11char_traitsIcEENS1_9allocatorIcEEEES8_NS0_11case_ignore4hashENS9_8equal_toENS6_INS1_4pairIKS8_S8_EEEEEERSD_PKcm, symObjAddr: 0x1B0A1, symBinAddr: 0x10001B495, symSize: 0x175 }
  - { offset: 0xB0A86, size: 0x8, addend: 0x0, symName: __ZN7httplib6detail19write_response_lineERNS_6StreamEi, symObjAddr: 0x158D8, symBinAddr: 0x100015D6C, symSize: 0x114 }
  - { offset: 0xB1203, size: 0x8, addend: 0x0, symName: __ZN7httplib6detail17find_content_typeERKNSt3__112basic_stringIcNS1_11char_traitsIcEENS1_9allocatorIcEEEERKNS1_3mapIS7_S7_NS1_4lessIS7_EENS5_INS1_4pairIS8_S7_EEEEEES9_, symObjAddr: 0x167F2, symBinAddr: 0x100016C86, symSize: 0x52A }
  - { offset: 0xB17F5, size: 0x8, addend: 0x0, symName: __ZN7httplib6detail11range_errorERNS_7RequestERNS_8ResponseE, symObjAddr: 0x16E8A, symBinAddr: 0x10001731E, symSize: 0x2C2 }
  - { offset: 0xB2212, size: 0x8, addend: 0x0, symName: __ZN7httplib6detail12parse_headerIZNS0_12read_headersERNS_6StreamERNSt3__118unordered_multimapINS4_12basic_stringIcNS4_11char_traitsIcEENS4_9allocatorIcEEEESB_NS0_11case_ignore4hashENSC_8equal_toENS9_INS4_4pairIKSB_SB_EEEEEEEUlRSG_SL_E_EEbPKcSO_T_, symObjAddr: 0x17E6B, symBinAddr: 0x10001825F, symSize: 0x425 }
  - { offset: 0xB3863, size: 0x8, addend: 0x0, symName: __ZN7httplib6detail5splitEPKcS2_cmNSt3__18functionIFvS2_S2_EEE, symObjAddr: 0x1E63A, symBinAddr: 0x10001E9CE, symSize: 0x15A }
  - { offset: 0xB39D7, size: 0x8, addend: 0x0, symName: __ZN7httplib6detail14expect_contentERKNS_7RequestE, symObjAddr: 0x23A0C, symBinAddr: 0x100023BEC, symSize: 0x2A8 }
  - { offset: 0xB47E9, size: 0x8, addend: 0x0, symName: __ZN7httplib6detail6fields8is_tokenERKNSt3__112basic_stringIcNS2_11char_traitsIcEENS2_9allocatorIcEEEE, symObjAddr: 0x185AF, symBinAddr: 0x1000189A3, symSize: 0xB1 }
  - { offset: 0xB49E6, size: 0x8, addend: 0x0, symName: __ZN7httplib6detail6fields16is_field_contentERKNSt3__112basic_stringIcNS2_11char_traitsIcEENS2_9allocatorIcEEEE, symObjAddr: 0x18660, symBinAddr: 0x100018A54, symSize: 0x12E }
  - { offset: 0xB4E0C, size: 0x8, addend: 0x0, symName: __ZN7httplib6detail15coalesce_rangesERNSt3__16vectorINS1_4pairIllEENS1_9allocatorIS4_EEEEm, symObjAddr: 0x31C1D, symBinAddr: 0x1000313A1, symSize: 0x29B }
  - { offset: 0xB5A8E, size: 0x8, addend: 0x0, symName: __ZN7httplib6detail28make_multipart_data_boundaryEv, symObjAddr: 0x1A395, symBinAddr: 0x10001A789, symSize: 0x123 }
  - { offset: 0xB5D7C, size: 0x8, addend: 0x0, symName: __ZN7httplib6detail13encoding_typeERKNS_7RequestERKNS_8ResponseE, symObjAddr: 0x1A4B8, symBinAddr: 0x10001A8AC, symSize: 0x22E }
  - { offset: 0xB669E, size: 0x8, addend: 0x0, symName: __ZN7httplib6detail31make_content_range_header_fieldERKNSt3__14pairImmEEm, symObjAddr: 0x1A6E6, symBinAddr: 0x10001AADA, symSize: 0x142 }
  - { offset: 0xB6F07, size: 0x8, addend: 0x0, symName: __ZN7httplib6detail29process_multipart_ranges_dataIZNS0_26make_multipart_ranges_dataERKNS_7RequestERNS_8ResponseERKNSt3__112basic_stringIcNS7_11char_traitsIcEENS7_9allocatorIcEEEESF_mRSD_EUlSF_E_ZNS0_26make_multipart_ranges_dataES4_S6_SF_SF_mSG_EUlSF_E0_ZNS0_26make_multipart_ranges_dataES4_S6_SF_SF_mSG_EUlmmE_EEbS4_SF_SF_mT_T0_T1_, symObjAddr: 0x1B70E, symBinAddr: 0x10001BB02, symSize: 0x490 }
  - { offset: 0xB8C29, size: 0x8, addend: 0x0, symName: __ZN7httplib6detail29process_multipart_ranges_dataIZNS0_32get_multipart_ranges_data_lengthERKNS_7RequestERKNSt3__112basic_stringIcNS5_11char_traitsIcEENS5_9allocatorIcEEEESD_mEUlSD_E_ZNS0_32get_multipart_ranges_data_lengthES4_SD_SD_mEUlSD_E0_ZNS0_32get_multipart_ranges_data_lengthES4_SD_SD_mEUlmmE_EEbS4_SD_SD_mT_T0_T1_, symObjAddr: 0x1B397, symBinAddr: 0x10001B78B, symSize: 0x377 }
  - { offset: 0xBA008, size: 0x8, addend: 0x0, symName: __ZN7httplib6detail29process_multipart_ranges_dataIZNS0_26make_multipart_ranges_dataERKNS_7RequestERNS_8ResponseERKNSt3__112basic_stringIcNS7_11char_traitsIcEENS7_9allocatorIcEEEESF_mRSD_EUlSF_E_ZNS0_26make_multipart_ranges_dataES4_S6_SF_SF_mSG_EUlSF_E0_ZNS0_26make_multipart_ranges_dataES4_S6_SF_SF_mSG_EUlmmE_EEbS4_SF_SF_mT_T0_T1_, symObjAddr: 0x1B70E, symBinAddr: 0x10001BB02, symSize: 0x490 }
  - { offset: 0xBA289, size: 0x8, addend: 0x0, symName: __ZN7httplib6detail29process_multipart_ranges_dataIZNS0_27write_multipart_ranges_dataIZNS_6Server27write_content_with_providerERNS_6StreamERKNS_7RequestERNS_8ResponseERKNSt3__112basic_stringIcNSB_11char_traitsIcEENSB_9allocatorIcEEEESJ_EUlvE_EEbS5_S8_SA_SJ_SJ_mRKT_EUlSJ_E_ZNS2_ISK_EEbS5_S8_SA_SJ_SJ_mSN_EUlSJ_E0_ZNS2_ISK_EEbS5_S8_SA_SJ_SJ_mSN_EUlmmE_EEbS8_SJ_SJ_mSL_T0_T1_, symObjAddr: 0x1C8D4, symBinAddr: 0x10001CC68, symSize: 0x58D }
  - { offset: 0xBC3BC, size: 0x8, addend: 0x0, symName: __ZN7httplib6detail13is_valid_pathERKNSt3__112basic_stringIcNS1_11char_traitsIcEENS1_9allocatorIcEEEE, symObjAddr: 0x24124, symBinAddr: 0x100024304, symSize: 0x1A1 }
  - { offset: 0xBC437, size: 0x8, addend: 0x0, symName: __ZNSt3__1plB8ne200100IcNS_11char_traitsIcEENS_9allocatorIcEEEENS_12basic_stringIT_T0_T1_EERKS9_SB_, symObjAddr: 0x242C5, symBinAddr: 0x1000244A5, symSize: 0xC3 }
  - { offset: 0xBC442, size: 0x8, addend: 0x0, symName: __ZN7httplib6detail12compute_etagERKNS0_8FileStatE, symObjAddr: 0x244DE, symBinAddr: 0x1000246BE, symSize: 0x330 }
  - { offset: 0xBD834, size: 0x8, addend: 0x0, symName: __ZN7httplib6detail28is_chunked_transfer_encodingERKNSt3__118unordered_multimapINS1_12basic_stringIcNS1_11char_traitsIcEENS1_9allocatorIcEEEES8_NS0_11case_ignore4hashENS9_8equal_toENS6_INS1_4pairIKS8_S8_EEEEEE, symObjAddr: 0x25A47, symBinAddr: 0x100025BF7, symSize: 0x13D }
  - { offset: 0xBE129, size: 0x8, addend: 0x0, symName: __ZN7httplib6detail10split_findEPKcS2_cmNSt3__18functionIFbS2_S2_EEE, symObjAddr: 0x24E5A, symBinAddr: 0x10002503A, symSize: 0x160 }
  - { offset: 0xBE327, size: 0x8, addend: 0x0, symName: __ZN7httplib6detail24parse_multipart_boundaryERKNSt3__112basic_stringIcNS1_11char_traitsIcEENS1_9allocatorIcEEEERS7_, symObjAddr: 0x267B7, symBinAddr: 0x100026967, symSize: 0x1B9 }
  - { offset: 0xBEB78, size: 0x8, addend: 0x0, symName: __ZN7httplib6detail12read_contentINS_7RequestEEEbRNS_6StreamERT_mRiNSt3__18functionIFbmmEEENS9_IFbPKcmmmEEEb, symObjAddr: 0x26CB2, symBinAddr: 0x100026E62, symSize: 0x108 }
  - { offset: 0xBEE7C, size: 0x8, addend: 0x0, symName: __ZN7httplib6detail12parse_headerIZNS0_14FormDataParser5parseEPKcmRKNSt3__18functionIFbRKNS_8FormDataEEEERKNS6_IFbS4_mEEEEUlRKNS5_12basic_stringIcNS5_11char_traitsIcEENS5_9allocatorIcEEEESP_E_EEbS4_S4_T_, symObjAddr: 0x27D80, symBinAddr: 0x100027F30, symSize: 0x3E2 }
  - { offset: 0xC032F, size: 0x8, addend: 0x0, symName: __ZN7httplib6detail12parse_headerIZNS0_14FormDataParser5parseEPKcmRKNSt3__18functionIFbRKNS_8FormDataEEEERKNS6_IFbS4_mEEEEUlRKNS5_12basic_stringIcNS5_11char_traitsIcEENS5_9allocatorIcEEEESP_E0_EEbS4_S4_T_, symObjAddr: 0x28162, symBinAddr: 0x100028312, symSize: 0x434 }
  - { offset: 0xC1884, size: 0x8, addend: 0x0, symName: __ZN7httplib6detail19create_decompressorERKNSt3__112basic_stringIcNS1_11char_traitsIcEENS1_9allocatorIcEEEE, symObjAddr: 0x2BE40, symBinAddr: 0x10002BDB8, symSize: 0x10 }
  - { offset: 0xC1BE5, size: 0x8, addend: 0x0, symName: __ZN7httplib6detail20read_content_chunkedINS_7RequestEEENS0_17ReadContentResultERNS_6StreamERT_mNSt3__18functionIFbPKcmmmEEE, symObjAddr: 0x2C6CA, symBinAddr: 0x10002C602, symSize: 0x1E0 }
  - { offset: 0xC2184, size: 0x8, addend: 0x0, symName: __ZN7httplib6detail12parse_headerIZNS0_14parse_trailersERNS0_18stream_line_readerERNSt3__118unordered_multimapINS4_12basic_stringIcNS4_11char_traitsIcEENS4_9allocatorIcEEEESB_NS0_11case_ignore4hashENSC_8equal_toENS9_INS4_4pairIKSB_SB_EEEEEERKSJ_EUlRSG_SN_E_EEbPKcSQ_T_, symObjAddr: 0x2D168, symBinAddr: 0x10002D0A0, symSize: 0x440 }
  - { offset: 0xC53C3, size: 0x8, addend: 0x0, symName: __ZN7httplib13get_client_ipERKNSt3__112basic_stringIcNS0_11char_traitsIcEENS0_9allocatorIcEEEERKNS0_6vectorIS6_NS4_IS6_EEEE, symObjAddr: 0x15107, symBinAddr: 0x10001559B, symSize: 0x30B }
  - { offset: 0xC619F, size: 0x8, addend: 0x0, symName: __ZN7httplib22default_socket_optionsEi, symObjAddr: 0x8086, symBinAddr: 0x1000088CA, symSize: 0x2D }
  - { offset: 0xC627B, size: 0x8, addend: 0x0, symName: __ZN7httplib14status_messageEi, symObjAddr: 0x22969, symBinAddr: 0x100022B49, symSize: 0x4C7 }
  - { offset: 0xC62AC, size: 0x8, addend: 0x0, symName: __ZN7httplib21decode_path_componentERKNSt3__112basic_stringIcNS0_11char_traitsIcEENS0_9allocatorIcEEEE, symObjAddr: 0x18290, symBinAddr: 0x100018684, symSize: 0x31F }
  - { offset: 0xC67D3, size: 0x8, addend: 0x0, symName: __ZN7httplib22decode_query_componentERKNSt3__112basic_stringIcNS0_11char_traitsIcEENS0_9allocatorIcEEEEb, symObjAddr: 0x1F5A7, symBinAddr: 0x10001F90B, symSize: 0x1B1 }
  - { offset: 0xC98F5, size: 0x8, addend: 0x0, symName: __ZNK7httplib6Server18parse_request_lineEPKcRNS_7RequestE, symObjAddr: 0x14ADA, symBinAddr: 0x100014F6E, symSize: 0x5A0 }
  - { offset: 0xC991C, size: 0x8, addend: 0x0, symName: __ZZNK7httplib6Server18parse_request_lineEPKcRNS_7RequestEE7methods, symObjAddr: 0x44E28, symBinAddr: 0x10006A638, symSize: 0x0 }
  - { offset: 0xCAFC6, size: 0x8, addend: 0x0, symName: __ZN7httplib6detail14FormDataParser5parseEPKcmRKNSt3__18functionIFbRKNS_8FormDataEEEERKNS5_IFbS3_mEEE, symObjAddr: 0x26F36, symBinAddr: 0x1000270E6, symSize: 0xBD6 }
  - { offset: 0xCAFEB, size: 0x8, addend: 0x0, symName: __ZZN7httplib6detail14FormDataParser5parseEPKcmRKNSt3__18functionIFbRKNS_8FormDataEEEERKNS5_IFbS3_mEEEE22re_content_disposition, symObjAddr: 0x44E58, symBinAddr: 0x10006A668, symSize: 0x0 }
  - { offset: 0xCB003, size: 0x8, addend: 0x0, symName: __ZZN7httplib6detail14FormDataParser5parseEPKcmRKNSt3__18functionIFbRKNS_8FormDataEEEERKNS5_IFbS3_mEEEE19re_rfc5987_encoding, symObjAddr: 0x44E88, symBinAddr: 0x10006A698, symSize: 0x0 }
  - { offset: 0xD16D2, size: 0x8, addend: 0x0, symName: __ZN7httplib6ServerC2Ev, symObjAddr: 0x7A26, symBinAddr: 0x10000826A, symSize: 0x660 }
  - { offset: 0xD3D5F, size: 0x8, addend: 0x0, symName: __ZN7httplib6Server15listen_internalEv, symObjAddr: 0x10EE4, symBinAddr: 0x1000113F0, symSize: 0x444 }
  - { offset: 0xD5AF3, size: 0x8, addend: 0x0, symName: __ZNSt3__124uniform_int_distributionIiEclINS_23mersenne_twister_engineIjLm32ELm624ELm397ELm31ELj2567483615ELm11ELj4294967295ELm7ELj2636928640ELm15ELj4022730752ELm18ELj1812433253EEEEEiRT_RKNS1_10param_typeE, symObjAddr: 0x12A6C, symBinAddr: 0x100012F00, symSize: 0x98 }
  - { offset: 0xD5E88, size: 0x8, addend: 0x0, symName: __ZNK7httplib6Server12apply_rangesERKNS_7RequestERNS_8ResponseERNSt3__112basic_stringIcNS6_11char_traitsIcEENS6_9allocatorIcEEEESD_, symObjAddr: 0x19484, symBinAddr: 0x100019878, symSize: 0xC86 }
  - { offset: 0xD9701, size: 0x8, addend: 0x0, symName: __ZZN7httplib6detail21write_content_chunkedIZNS_6Server27write_content_with_providerERNS_6StreamERKNS_7RequestERNS_8ResponseERKNSt3__112basic_stringIcNSA_11char_traitsIcEENSA_9allocatorIcEEEESI_EUlvE_NS0_10compressorEEEbS4_RKNSA_8functionIFbmmRNS_8DataSinkEEEERKT_RT0_RNS_5ErrorEENKUlPKcmE_clES10_m, symObjAddr: 0x1D3DC, symBinAddr: 0x10001D770, symSize: 0x38A }
  - { offset: 0xDAB51, size: 0x8, addend: 0x0, symName: __ZZN7httplib6detail21write_content_chunkedIZNS_6Server27write_content_with_providerERNS_6StreamERKNS_7RequestERNS_8ResponseERKNSt3__112basic_stringIcNSA_11char_traitsIcEENSA_9allocatorIcEEEESI_EUlvE_NS0_10compressorEEEbS4_RKNSA_8functionIFbmmRNS_8DataSinkEEEERKT_RT0_RNS_5ErrorEENKUlPKNSA_18unordered_multimapISG_SG_NS0_11case_ignore4hashENS10_8equal_toENSE_INSA_4pairISH_SG_EEEEEEE_clES18_, symObjAddr: 0x1D9D2, symBinAddr: 0x10001DD66, symSize: 0x622 }
  - { offset: 0xDD03B, size: 0x8, addend: 0x0, symName: __ZZN7httplib6detail16parse_query_textEPKcmRNSt3__18multimapINS3_12basic_stringIcNS3_11char_traitsIcEENS3_9allocatorIcEEEESA_NS3_4lessISA_EENS8_INS3_4pairIKSA_SA_EEEEEEENKUlS2_S2_E_clES2_S2_, symObjAddr: 0x1F302, symBinAddr: 0x10001F666, symSize: 0x2A5 }
  - { offset: 0xDE6E4, size: 0x8, addend: 0x0, symName: __ZN7httplib6Server15process_requestERNS_6StreamERKNSt3__112basic_stringIcNS3_11char_traitsIcEENS3_9allocatorIcEEEEiSB_ibRbRKNS3_8functionIFvRNS_7RequestEEEE, symObjAddr: 0x13162, symBinAddr: 0x1000135F6, symSize: 0x1658 }
  - { offset: 0xE474C, size: 0x8, addend: 0x0, symName: __ZNK7httplib6Server21check_if_not_modifiedERKNS_7RequestERNS_8ResponseERKNSt3__112basic_stringIcNS6_11char_traitsIcEENS6_9allocatorIcEEEEl, symObjAddr: 0x2480E, symBinAddr: 0x1000249EE, symSize: 0x4A6 }
  - { offset: 0xE5C42, size: 0x8, addend: 0x0, symName: __ZN7httplib6Server19handle_file_requestERNS_7RequestERNS_8ResponseE, symObjAddr: 0x22ECA, symBinAddr: 0x1000230AA, symSize: 0xB42 }
  - { offset: 0xE9206, size: 0x8, addend: 0x0, symName: __ZN7httplib6Server7routingERNS_7RequestERNS_8ResponseERNS_6StreamE, symObjAddr: 0x15A6C, symBinAddr: 0x100015F00, symSize: 0xD34 }
  - { offset: 0xECFD6, size: 0x8, addend: 0x0, symName: __ZNK7httplib6Server17read_content_coreERNS_6StreamERNS_7RequestERNS_8ResponseENSt3__18functionIFbPKcmEEENS8_IFbRKNS_8FormDataEEEESC_, symObjAddr: 0x26026, symBinAddr: 0x1000261D6, symSize: 0x682 }
  - { offset: 0xEEE42, size: 0x8, addend: 0x0, symName: __ZZN7httplib6detail24parse_disposition_paramsERKNSt3__112basic_stringIcNS1_11char_traitsIcEENS1_9allocatorIcEEEERNS1_8multimapIS7_S7_NS1_4lessIS7_EENS5_INS1_4pairIS8_S7_EEEEEEENKUlPKcSJ_E_clESJ_SJ_, symObjAddr: 0x2B27C, symBinAddr: 0x10002B2AC, symSize: 0x3B2 }
  - { offset: 0xF08D5, size: 0x8, addend: 0x0, symName: __ZN7httplib6Server12read_contentERNS_6StreamERNS_7RequestERNS_8ResponseE, symObjAddr: 0x23D0C, symBinAddr: 0x100023EEC, symSize: 0x418 }
  - { offset: 0xF3625, size: 0x8, addend: 0x0, symName: _main, symObjAddr: 0x762, symBinAddr: 0x100001076, symSize: 0x20E2 }
  - { offset: 0xFCF7D, size: 0x8, addend: 0x0, symName: __ZN7httplib6detail12nocompressor8compressEPKcmbNSt3__18functionIFbS3_mEEE, symObjAddr: 0x0, symBinAddr: 0x100000920, symSize: 0x16 }
  - { offset: 0xFCFF9, size: 0x8, addend: 0x0, symName: __ZNKSt3__18functionIFbPKcmEEclES2_m, symObjAddr: 0x16, symBinAddr: 0x100000936, symSize: 0x32 }
  - { offset: 0xFD08F, size: 0x8, addend: 0x0, symName: __ZN7httplib6detail12SocketStreamD1Ev, symObjAddr: 0x48, symBinAddr: 0x100000968, symSize: 0x1C }
  - { offset: 0xFD1FB, size: 0x8, addend: 0x0, symName: __ZN7httplib6detail12SocketStreamD1Ev, symObjAddr: 0x48, symBinAddr: 0x100000968, symSize: 0x1C }
  - { offset: 0xFD37F, size: 0x8, addend: 0x0, symName: __ZN7httplib6detail12SocketStreamD0Ev, symObjAddr: 0x64, symBinAddr: 0x100000984, symSize: 0x2A }
  - { offset: 0xFD535, size: 0x8, addend: 0x0, symName: __ZNK7httplib6detail12BufferStream11is_readableEv, symObjAddr: 0x8E, symBinAddr: 0x1000009AE, symSize: 0x8 }
  - { offset: 0xFD9A3, size: 0x8, addend: 0x0, symName: __ZNK7httplib6detail17PathParamsMatcher5matchERNS_7RequestE, symObjAddr: 0x96, symBinAddr: 0x1000009B6, symSize: 0x2EC }
  - { offset: 0xFE4A1, size: 0x8, addend: 0x0, symName: __ZNSt3__112__hash_tableINS_17__hash_value_typeINS_12basic_stringIcNS_11char_traitsIcEENS_9allocatorIcEEEES7_EENS_22__unordered_map_hasherIS7_S8_NS_4hashIS7_EENS_8equal_toIS7_EELb1EEENS_21__unordered_map_equalIS7_S8_SD_SB_Lb1EEENS5_IS8_EEE8__rehashILb1EEEvm, symObjAddr: 0x33830, symBinAddr: 0x100032F68, symSize: 0x150 }
  - { offset: 0xFE5CC, size: 0x8, addend: 0x0, symName: __ZNSt3__112__hash_tableINS_17__hash_value_typeINS_12basic_stringIcNS_11char_traitsIcEENS_9allocatorIcEEEES7_EENS_22__unordered_map_hasherIS7_S8_NS_4hashIS7_EENS_8equal_toIS7_EELb1EEENS_21__unordered_map_equalIS7_S8_SD_SB_Lb1EEENS5_IS8_EEE25__emplace_unique_key_argsIS7_JRKS7_S7_EEENS_4pairINS_15__hash_iteratorIPNS_11__hash_nodeIS8_PvEEEEbEERKT_DpOT0_, symObjAddr: 0x33B04, symBinAddr: 0x1000330B8, symSize: 0x2C0 }
  - { offset: 0xFEB1D, size: 0x8, addend: 0x0, symName: __ZNK7httplib6detail12RegexMatcher5matchERNS_7RequestE, symObjAddr: 0x382, symBinAddr: 0x100000CA2, symSize: 0x54 }
  - { offset: 0xFF37D, size: 0x8, addend: 0x0, symName: __ZN7httplib6ServerD2Ev, symObjAddr: 0x3D6, symBinAddr: 0x100000CF6, symSize: 0x358 }
  - { offset: 0x1005A5, size: 0x8, addend: 0x0, symName: __ZNSt3__16vectorINS_4pairINS_10unique_ptrIN7httplib6detail11MatcherBaseENS_14default_deleteIS5_EEEENS_8functionIFvRKNS3_7RequestERNS3_8ResponseEEEEEENS_9allocatorISH_EEE16__destroy_vectorclB8ne200100Ev, symObjAddr: 0x586C, symBinAddr: 0x100006180, symSize: 0x56 }
  - { offset: 0x1007C3, size: 0x8, addend: 0x0, symName: __ZNSt3__16__treeINS_12__value_typeINS_12basic_stringIcNS_11char_traitsIcEENS_9allocatorIcEEEES7_EENS_19__map_value_compareIS7_S8_NS_4lessIS7_EELb1EEENS5_IS8_EEE7destroyEPNS_11__tree_nodeIS8_PvEE, symObjAddr: 0x173C6, symBinAddr: 0x1000177EA, symSize: 0x3C }
  - { offset: 0x10091C, size: 0x8, addend: 0x0, symName: __ZNSt3__16vectorIN7httplib6Server15MountPointEntryENS_9allocatorIS3_EEE16__destroy_vectorclB8ne200100Ev, symObjAddr: 0x59B8, symBinAddr: 0x100006228, symSize: 0x56 }
  - { offset: 0x100A6E, size: 0x8, addend: 0x0, symName: __ZNSt3__16vectorINS_12basic_stringIcNS_11char_traitsIcEENS_9allocatorIcEEEENS4_IS6_EEE16__destroy_vectorclB8ne200100Ev, symObjAddr: 0x5A4A, symBinAddr: 0x1000062BA, symSize: 0x32 }
  - { offset: 0x100B41, size: 0x8, addend: 0x0, symName: __ZN7httplib6ServerD1Ev, symObjAddr: 0x72E, symBinAddr: 0x10000104E, symSize: 0xA }
  - { offset: 0x100B95, size: 0x8, addend: 0x0, symName: __ZN7httplib6ServerD0Ev, symObjAddr: 0x738, symBinAddr: 0x100001058, symSize: 0x1C }
  - { offset: 0x102515, size: 0x8, addend: 0x0, symName: __ZNSt3__112basic_stringIcNS_11char_traitsIcEENS_9allocatorIcEEEC2B8ne200100ILi0EEEPKc, symObjAddr: 0x5ABE, symBinAddr: 0x10000632E, symSize: 0x8C }
  - { offset: 0x102830, size: 0x8, addend: 0x0, symName: __ZNSt3__16vectorIhNS_9allocatorIhEEEC2B8ne200100Em, symObjAddr: 0x5B4A, symBinAddr: 0x1000063BA, symSize: 0x64 }
  - { offset: 0x102C88, size: 0x8, addend: 0x0, symName: __ZNSt3__16vectorIhNS_9allocatorIhEEE18__insert_with_sizeB8ne200100INS_11__wrap_iterIPhEES7_EES7_NS5_IPKhEET_T0_l, symObjAddr: 0x5CBA, symBinAddr: 0x10000652A, symSize: 0x265 }
  - { offset: 0x103ABE, size: 0x8, addend: 0x0, symName: __ZNSt3__1plB8ne200100IcNS_11char_traitsIcEENS_9allocatorIcEEEENS_12basic_stringIT_T0_T1_EEOS9_RKS9_, symObjAddr: 0x5F1F, symBinAddr: 0x10000678F, symSize: 0x53 }
  - { offset: 0x103ADB, size: 0x8, addend: 0x0, symName: __ZNSt3__112basic_stringIcNS_11char_traitsIcEENS_9allocatorIcEEE17__assign_externalEPKc, symObjAddr: 0x5C92, symBinAddr: 0x100006502, symSize: 0x28 }
  - { offset: 0x103B7A, size: 0x8, addend: 0x0, symName: __ZL22get_system_fingerprintRKNSt3__112basic_stringIcNS_11char_traitsIcEENS_9allocatorIcEEEES7_, symObjAddr: 0x2997, symBinAddr: 0x1000032AB, symSize: 0x230 }
  - { offset: 0x1046DA, size: 0x8, addend: 0x0, symName: __ZNSt3__112basic_stringIcNS_11char_traitsIcEENS_9allocatorIcEEE25__init_copy_ctor_externalEPKcm, symObjAddr: 0x73B4, symBinAddr: 0x100007C24, symSize: 0x7C }
  - { offset: 0x104947, size: 0x8, addend: 0x0, symName: __ZL14get_model_nameNSt3__112basic_stringIcNS_11char_traitsIcEENS_9allocatorIcEEEE, symObjAddr: 0x2BC7, symBinAddr: 0x1000034DB, symSize: 0x103 }
  - { offset: 0x10532B, size: 0x8, addend: 0x0, symName: __ZN8OgaModel6CreateEPKc, symObjAddr: 0x2CCA, symBinAddr: 0x1000035DE, symSize: 0x98 }
  - { offset: 0x1054EE, size: 0x8, addend: 0x0, symName: __ZN12OgaTokenizer6CreateERK8OgaModel, symObjAddr: 0x2D62, symBinAddr: 0x100003676, symSize: 0x98 }
  - { offset: 0x1056CC, size: 0x8, addend: 0x0, symName: __ZN3Ort3EnvC2E15OrtLoggingLevelPKc, symObjAddr: 0x7452, symBinAddr: 0x100007CC2, symSize: 0x29C }
  - { offset: 0x10628B, size: 0x8, addend: 0x0, symName: __ZN3Ort14SessionOptionsC2Ev, symObjAddr: 0x76EE, symBinAddr: 0x100007F5E, symSize: 0xF6 }
  - { offset: 0x1067CE, size: 0x8, addend: 0x0, symName: __ZN3Ort7SessionC2ERKNS_3EnvEPKcRKNS_14SessionOptionsE, symObjAddr: 0x33EBC, symBinAddr: 0x100033470, symSize: 0x106 }
  - { offset: 0x106D1A, size: 0x8, addend: 0x0, symName: __ZNKSt3__114default_deleteIN3Ort7SessionEEclB8ne200100EPS2_, symObjAddr: 0x33E80, symBinAddr: 0x100033434, symSize: 0x3C }
  - { offset: 0x106E0E, size: 0x8, addend: 0x0, symName: __ZNK3Ort6detail16ConstSessionImplI10OrtSessionE13GetInputCountEv, symObjAddr: 0x2DFA, symBinAddr: 0x10000370E, symSize: 0xE4 }
  - { offset: 0x1071F3, size: 0x8, addend: 0x0, symName: __ZNK3Ort6detail16ConstSessionImplI10OrtSessionE14GetOutputCountEv, symObjAddr: 0x2EDE, symBinAddr: 0x1000037F2, symSize: 0xE4 }
  - { offset: 0x1075D8, size: 0x8, addend: 0x0, symName: __ZNSt3__16vectorIxNS_9allocatorIxEEE16__init_with_sizeB8ne200100IPKxS6_EEvT_T0_m, symObjAddr: 0x7866, symBinAddr: 0x1000080D6, symSize: 0x64 }
  - { offset: 0x1078FF, size: 0x8, addend: 0x0, symName: __ZNK3Ort6detail16ConstSessionImplI10OrtSessionE21GetInputNameAllocatedEmP12OrtAllocator, symObjAddr: 0x2FC2, symBinAddr: 0x1000038D6, symSize: 0xFE }
  - { offset: 0x107D62, size: 0x8, addend: 0x0, symName: __ZNSt3__16vectorINS_12basic_stringIcNS_11char_traitsIcEENS_9allocatorIcEEEENS4_IS6_EEE9push_backB8ne200100EOS6_, symObjAddr: 0x30C0, symBinAddr: 0x1000039D4, symSize: 0x14A }
  - { offset: 0x1081E4, size: 0x8, addend: 0x0, symName: __ZNK3Ort6detail16ConstSessionImplI10OrtSessionE22GetOutputNameAllocatedEmP12OrtAllocator, symObjAddr: 0x320A, symBinAddr: 0x100003B1E, symSize: 0xFE }
  - { offset: 0x1081EF, size: 0x8, addend: 0x0, symName: __ZNK3Ort6detail16ConstSessionImplI10OrtSessionE22GetOutputNameAllocatedEmP12OrtAllocator, symObjAddr: 0x320A, symBinAddr: 0x100003B1E, symSize: 0xFE }
  - { offset: 0x108652, size: 0x8, addend: 0x0, symName: __ZNSt3__16vectorIPKcNS_9allocatorIS2_EEE9push_backB8ne200100EOS2_, symObjAddr: 0x3308, symBinAddr: 0x100003C1C, symSize: 0xE8 }
  - { offset: 0x108A9B, size: 0x8, addend: 0x0, symName: __ZN7httplib6Server4PostERKNSt3__112basic_stringIcNS1_11char_traitsIcEENS1_9allocatorIcEEEENS1_8functionIFvRKNS_7RequestERNS_8ResponseEEEE, symObjAddr: 0x33F0, symBinAddr: 0x100003D04, symSize: 0xFC }
  - { offset: 0x108E67, size: 0x8, addend: 0x0, symName: __ZNSt3__16vectorIhNS_9allocatorIhEEE8__appendEm, symObjAddr: 0x11FFE, symBinAddr: 0x1000124BE, symSize: 0x102 }
  - { offset: 0x109375, size: 0x8, addend: 0x0, symName: __ZNSt3__112basic_stringIcNS_11char_traitsIcEENS_9allocatorIcEEEC2B8ne200100EPKcm, symObjAddr: 0x12100, symBinAddr: 0x1000125C0, symSize: 0x84 }
  - { offset: 0x109380, size: 0x8, addend: 0x0, symName: __ZN7httplib6Server3GetERKNSt3__112basic_stringIcNS1_11char_traitsIcEENS1_9allocatorIcEEEENS1_8functionIFvRKNS_7RequestERNS_8ResponseEEEE, symObjAddr: 0x34EC, symBinAddr: 0x100003E00, symSize: 0xFC }
  - { offset: 0x109704, size: 0x8, addend: 0x0, symName: __ZN7httplib6Server13bind_internalERKNSt3__112basic_stringIcNS1_11char_traitsIcEENS1_9allocatorIcEEEEii, symObjAddr: 0x11328, symBinAddr: 0x100011834, symSize: 0x2CE }
  - { offset: 0x10A0C1, size: 0x8, addend: 0x0, symName: __ZNSt3__112basic_stringIcNS_11char_traitsIcEENS_9allocatorIcEEEC2B8ne200100EPKcm, symObjAddr: 0x12100, symBinAddr: 0x1000125C0, symSize: 0x84 }
  - { offset: 0x10A37E, size: 0x8, addend: 0x0, symName: __ZL20before_run_inferenceRKNSt3__112basic_stringIcNS_11char_traitsIcEENS_9allocatorIcEEEERS5_PjS9_PdSA_S9_Pb, symObjAddr: 0x35E8, symBinAddr: 0x100003EFC, symSize: 0x6E7 }
  - { offset: 0x10B2C0, size: 0x8, addend: 0x0, symName: __ZL13run_inferenceP8OgaModelP12OgaTokenizerRKNSt3__112basic_stringIcNS3_11char_traitsIcEENS3_9allocatorIcEEEESB_xjjddjS9_, symObjAddr: 0x3CCF, symBinAddr: 0x1000045E3, symSize: 0xF81 }
  - { offset: 0x10CEAF, size: 0x8, addend: 0x0, symName: __ZL5usagev, symObjAddr: 0x2844, symBinAddr: 0x100003158, symSize: 0xD2 }
  - { offset: 0x10CF57, size: 0x8, addend: 0x0, symName: __ZNSt3__14endlB8ne200100IcNS_11char_traitsIcEEEERNS_13basic_ostreamIT_T0_EES7_, symObjAddr: 0x2916, symBinAddr: 0x10000322A, symSize: 0x81 }
  - { offset: 0x10CF9F, size: 0x8, addend: 0x0, symName: __ZNSt3__110unique_ptrI12OgaTokenizerNS_14default_deleteIS1_EEE5resetB8ne200100EPS1_, symObjAddr: 0x33478, symBinAddr: 0x100032BFC, symSize: 0x21 }
  - { offset: 0x10D015, size: 0x8, addend: 0x0, symName: __ZNSt3__110unique_ptrI8OgaModelNS_14default_deleteIS1_EEE5resetB8ne200100EPS1_, symObjAddr: 0x33456, symBinAddr: 0x100032BDA, symSize: 0x22 }
  - { offset: 0x10D2F6, size: 0x8, addend: 0x0, symName: __ZNSt3__112basic_stringIcNS_11char_traitsIcEENS_9allocatorIcEEEC2B8ne200100ENS_24__uninitialized_size_tagEmRKS4_, symObjAddr: 0x6100, symBinAddr: 0x100006970, symSize: 0x72 }
  - { offset: 0x10D4FA, size: 0x8, addend: 0x0, symName: __ZNKSt3__113__string_hashIcNS_9allocatorIcEEEclB8ne200100ERKNS_12basic_stringIcNS_11char_traitsIcEES2_EE, symObjAddr: 0x5F72, symBinAddr: 0x1000067E2, symSize: 0x36 }
  - { offset: 0x10D5D5, size: 0x8, addend: 0x0, symName: __ZNSt3__118basic_stringstreamIcNS_11char_traitsIcEENS_9allocatorIcEEEC1B8ne200100Ev, symObjAddr: 0x5FA8, symBinAddr: 0x100006818, symSize: 0xD0 }
  - { offset: 0x10D716, size: 0x8, addend: 0x0, symName: __ZNKSt3__115basic_stringbufIcNS_11char_traitsIcEENS_9allocatorIcEEE3strB8ne200100IS4_EENS_12basic_stringIcS2_T_EERKS8_, symObjAddr: 0x6E84, symBinAddr: 0x1000076F4, symSize: 0x9A }
  - { offset: 0x10DA0D, size: 0x8, addend: 0x0, symName: __ZNKSt3__115basic_stringbufIcNS_11char_traitsIcEENS_9allocatorIcEEE4viewB8ne200100Ev, symObjAddr: 0x6F1E, symBinAddr: 0x10000778E, symSize: 0x40 }
  - { offset: 0x10DA21, size: 0x8, addend: 0x0, symName: __ZNSt3__118basic_stringstreamIcNS_11char_traitsIcEENS_9allocatorIcEEED1Ev, symObjAddr: 0x6078, symBinAddr: 0x1000068E8, symSize: 0x88 }
  - { offset: 0x10DCB6, size: 0x8, addend: 0x0, symName: __ZNSt3__14__fs10filesystem4pathC2B8ne200100INS_12basic_stringIcNS_11char_traitsIcEENS_9allocatorIcEEEEvEERKT_NS2_6formatE, symObjAddr: 0x7174, symBinAddr: 0x1000079E4, symSize: 0x5A }
  - { offset: 0x10DF52, size: 0x8, addend: 0x0, symName: __ZNKSt3__14__fs10filesystem4path8filenameB8ne200100Ev, symObjAddr: 0x6F5E, symBinAddr: 0x1000077CE, symSize: 0xB2 }
  - { offset: 0x10E2CE, size: 0x8, addend: 0x0, symName: __ZNKSt3__14__fs10filesystem4path11parent_pathB8ne200100Ev, symObjAddr: 0x7010, symBinAddr: 0x100007880, symSize: 0xB2 }
  - { offset: 0x10E2D9, size: 0x8, addend: 0x0, symName: __ZNKSt3__14__fs10filesystem4path11parent_pathB8ne200100Ev, symObjAddr: 0x7010, symBinAddr: 0x100007880, symSize: 0xB2 }
  - { offset: 0x10E655, size: 0x8, addend: 0x0, symName: __ZNKSt3__14__fs10filesystem4path4stemB8ne200100Ev, symObjAddr: 0x70C2, symBinAddr: 0x100007932, symSize: 0xB2 }
  - { offset: 0x10E660, size: 0x8, addend: 0x0, symName: __ZNKSt3__14__fs10filesystem4path4stemB8ne200100Ev, symObjAddr: 0x70C2, symBinAddr: 0x100007932, symSize: 0xB2 }
  - { offset: 0x10E9DC, size: 0x8, addend: 0x0, symName: __ZNSt3__14__fs10filesystem4pathC2B8ne200100INS_12basic_stringIcNS_11char_traitsIcEENS_9allocatorIcEEEEvEERKT_NS2_6formatE, symObjAddr: 0x7174, symBinAddr: 0x1000079E4, symSize: 0x5A }
  - { offset: 0x10EBAA, size: 0x8, addend: 0x0, symName: __ZNSt3__110unique_ptrI9OgaResultNS_14default_deleteIS1_EEE5resetB8ne200100EPS1_, symObjAddr: 0x7430, symBinAddr: 0x100007CA0, symSize: 0x22 }
  - { offset: 0x10EF6D, size: 0x8, addend: 0x0, symName: __ZNSt3__114__split_bufferINS_12basic_stringIcNS_11char_traitsIcEENS_9allocatorIcEEEERNS4_IS6_EEED2Ev, symObjAddr: 0x7982, symBinAddr: 0x1000081F2, symSize: 0x28 }
  - { offset: 0x10F02F, size: 0x8, addend: 0x0, symName: __ZNSt3__16vectorINS_12basic_stringIcNS_11char_traitsIcEENS_9allocatorIcEEEENS4_IS6_EEE20__throw_length_errorB8ne200100Ev, symObjAddr: 0x793A, symBinAddr: 0x1000081AA, symSize: 0x10 }
  - { offset: 0x10F047, size: 0x8, addend: 0x0, symName: __ZNSt3__119__allocate_at_leastB8ne200100INS_9allocatorINS_12basic_stringIcNS_11char_traitsIcEENS1_IcEEEEEEEENS_19__allocation_resultINS_16allocator_traitsIT_E7pointerEEERSA_m, symObjAddr: 0x794A, symBinAddr: 0x1000081BA, symSize: 0x38 }
  - { offset: 0x10F2C4, size: 0x8, addend: 0x0, symName: __ZNSt3__16vectorIPKcNS_9allocatorIS2_EEE20__throw_length_errorB8ne200100Ev, symObjAddr: 0x79E8, symBinAddr: 0x100008258, symSize: 0x10 }
  - { offset: 0x10F403, size: 0x8, addend: 0x0, symName: __ZNSt3__16vectorINS_4pairINS_10unique_ptrIN7httplib6detail11MatcherBaseENS_14default_deleteIS5_EEEENS_8functionIFvRKNS3_7RequestERNS3_8ResponseEEEEEENS_9allocatorISH_EEE12emplace_backIJS8_SG_EEERSH_DpOT_, symObjAddr: 0x8F96, symBinAddr: 0x1000097DA, symSize: 0x14C }
  - { offset: 0x11027B, size: 0x8, addend: 0x0, symName: __ZN18OgaTokenizerStream6CreateERK12OgaTokenizer, symObjAddr: 0x12184, symBinAddr: 0x100012644, symSize: 0x98 }
  - { offset: 0x11042F, size: 0x8, addend: 0x0, symName: __ZN12OgaSequences6CreateEv, symObjAddr: 0x1221C, symBinAddr: 0x1000126DC, symSize: 0x92 }
  - { offset: 0x1105CA, size: 0x8, addend: 0x0, symName: __ZNK12OgaTokenizer6EncodeEPKcR12OgaSequences, symObjAddr: 0x122AE, symBinAddr: 0x10001276E, symSize: 0x80 }
  - { offset: 0x110768, size: 0x8, addend: 0x0, symName: __ZN18OgaGeneratorParams6CreateERK8OgaModel, symObjAddr: 0x1232E, symBinAddr: 0x1000127EE, symSize: 0x98 }
  - { offset: 0x11091C, size: 0x8, addend: 0x0, symName: __ZN18OgaGeneratorParams15SetSearchOptionEPKcd, symObjAddr: 0x123C6, symBinAddr: 0x100012886, symSize: 0x80 }
  - { offset: 0x110A9E, size: 0x8, addend: 0x0, symName: __ZN12OgaGenerator6CreateERK8OgaModelR18OgaGeneratorParams, symObjAddr: 0x12446, symBinAddr: 0x100012906, symSize: 0x9A }
  - { offset: 0x110C6B, size: 0x8, addend: 0x0, symName: __ZN12OgaGenerator20AppendTokenSequencesERK12OgaSequences, symObjAddr: 0x124E0, symBinAddr: 0x1000129A0, symSize: 0x80 }
  - { offset: 0x110DD4, size: 0x8, addend: 0x0, symName: __ZNSt3__16vectorINS_12basic_stringIcNS_11char_traitsIcEENS_9allocatorIcEEEENS4_IS6_EEEC2B8ne200100Em, symObjAddr: 0x1289C, symBinAddr: 0x100012D5C, symSize: 0x94 }
  - { offset: 0x11103F, size: 0x8, addend: 0x0, symName: __ZNSt3__16vectorINS_10unique_ptrI18OgaTokenizerStreamNS_14default_deleteIS2_EEEENS_9allocatorIS5_EEE9push_backB8ne200100EOS5_, symObjAddr: 0x12560, symBinAddr: 0x100012A20, symSize: 0x138 }
  - { offset: 0x11151C, size: 0x8, addend: 0x0, symName: __ZN12OgaGenerator17GenerateNextTokenEv, symObjAddr: 0x12698, symBinAddr: 0x100012B58, symSize: 0x80 }
  - { offset: 0x1116C9, size: 0x8, addend: 0x0, symName: __ZN18OgaTokenizerStream6DecodeEi, symObjAddr: 0x12718, symBinAddr: 0x100012BD8, symSize: 0x88 }
  - { offset: 0x11184A, size: 0x8, addend: 0x0, symName: __ZL19get_openai_style_idv, symObjAddr: 0x127A0, symBinAddr: 0x100012C60, symSize: 0xFC }
  - { offset: 0x111C0B, size: 0x8, addend: 0x0, symName: __ZNSt3__16vectorINS_10unique_ptrI18OgaTokenizerStreamNS_14default_deleteIS2_EEEENS_9allocatorIS5_EEE16__destroy_vectorclB8ne200100Ev, symObjAddr: 0x12BBC, symBinAddr: 0x100013050, symSize: 0x58 }
  - { offset: 0x111DF2, size: 0x8, addend: 0x0, symName: __ZNSt3__110unique_ptrI18OgaTokenizerStreamNS_14default_deleteIS1_EEE5resetB8ne200100EPS1_, symObjAddr: 0x129EC, symBinAddr: 0x100012E80, symSize: 0x22 }
  - { offset: 0x111E68, size: 0x8, addend: 0x0, symName: __ZNSt3__110unique_ptrI12OgaGeneratorNS_14default_deleteIS1_EEE5resetB8ne200100EPS1_, symObjAddr: 0x12C14, symBinAddr: 0x1000130A8, symSize: 0x22 }
  - { offset: 0x111EDE, size: 0x8, addend: 0x0, symName: __ZNSt3__110unique_ptrI18OgaGeneratorParamsNS_14default_deleteIS1_EEE5resetB8ne200100EPS1_, symObjAddr: 0x12C36, symBinAddr: 0x1000130CA, symSize: 0x22 }
  - { offset: 0x111F54, size: 0x8, addend: 0x0, symName: __ZNSt3__110unique_ptrI12OgaSequencesNS_14default_deleteIS1_EEE5resetB8ne200100EPS1_, symObjAddr: 0x12C58, symBinAddr: 0x1000130EC, symSize: 0x21 }
  - { offset: 0x112001, size: 0x8, addend: 0x0, symName: __ZN7httplib6detail17PathParamsMatcherD1Ev, symObjAddr: 0x4C50, symBinAddr: 0x100005564, symSize: 0x54 }
  - { offset: 0x1122CE, size: 0x8, addend: 0x0, symName: __ZN7httplib6detail17PathParamsMatcherD0Ev, symObjAddr: 0x4CA4, symBinAddr: 0x1000055B8, symSize: 0x5C }
  - { offset: 0x11267B, size: 0x8, addend: 0x0, symName: __ZN7httplib6detail12RegexMatcherD1Ev, symObjAddr: 0x4D00, symBinAddr: 0x100005614, symSize: 0x42 }
  - { offset: 0x11286E, size: 0x8, addend: 0x0, symName: __ZNSt3__110shared_ptrINS_13__empty_stateIcEEED2B8ne200100Ev, symObjAddr: 0x10EA4, symBinAddr: 0x1000113B0, symSize: 0x40 }
  - { offset: 0x112913, size: 0x8, addend: 0x0, symName: __ZN7httplib6detail12RegexMatcherD0Ev, symObjAddr: 0x4D42, symBinAddr: 0x100005656, symSize: 0x44 }
  - { offset: 0x112B7F, size: 0x8, addend: 0x0, symName: __ZN7httplib6detail12BufferStreamD1Ev, symObjAddr: 0x4D86, symBinAddr: 0x10000569A, symSize: 0x16 }
  - { offset: 0x112CCA, size: 0x8, addend: 0x0, symName: __ZN7httplib6detail12BufferStreamD0Ev, symObjAddr: 0x4D9C, symBinAddr: 0x1000056B0, symSize: 0x26 }
  - { offset: 0x112E4C, size: 0x8, addend: 0x0, symName: __ZNK7httplib6detail12BufferStream13wait_readableEv, symObjAddr: 0x4DC2, symBinAddr: 0x1000056D6, symSize: 0x8 }
  - { offset: 0x112E73, size: 0x8, addend: 0x0, symName: __ZNK7httplib6detail12BufferStream13wait_writableEv, symObjAddr: 0x4DCA, symBinAddr: 0x1000056DE, symSize: 0x8 }
  - { offset: 0x112E9A, size: 0x8, addend: 0x0, symName: __ZN7httplib6detail12BufferStream4readEPcm, symObjAddr: 0x4DD2, symBinAddr: 0x1000056E6, symSize: 0x22 }
  - { offset: 0x112EF6, size: 0x8, addend: 0x0, symName: __ZN7httplib6detail12BufferStream5writeEPKcm, symObjAddr: 0x4DF4, symBinAddr: 0x100005708, symSize: 0x1C }
  - { offset: 0x112F41, size: 0x8, addend: 0x0, symName: __ZNK7httplib6detail12BufferStream22get_remote_ip_and_portERNSt3__112basic_stringIcNS2_11char_traitsIcEENS2_9allocatorIcEEEERi, symObjAddr: 0x4E10, symBinAddr: 0x100005724, symSize: 0x6 }
  - { offset: 0x112F7E, size: 0x8, addend: 0x0, symName: __ZNK7httplib6detail12BufferStream21get_local_ip_and_portERNSt3__112basic_stringIcNS2_11char_traitsIcEENS2_9allocatorIcEEEERi, symObjAddr: 0x4E16, symBinAddr: 0x10000572A, symSize: 0x6 }
  - { offset: 0x112FBB, size: 0x8, addend: 0x0, symName: __ZNK7httplib6detail12BufferStream6socketEv, symObjAddr: 0x4E1C, symBinAddr: 0x100005730, symSize: 0x8 }
  - { offset: 0x112FE2, size: 0x8, addend: 0x0, symName: __ZNK7httplib6detail12BufferStream8durationEv, symObjAddr: 0x4E24, symBinAddr: 0x100005738, symSize: 0x8 }
  - { offset: 0x113009, size: 0x8, addend: 0x0, symName: __ZN7httplib6detail12nocompressorD1Ev, symObjAddr: 0x4E2C, symBinAddr: 0x100005740, symSize: 0x6 }
  - { offset: 0x113032, size: 0x8, addend: 0x0, symName: __ZN7httplib6detail12nocompressorD0Ev, symObjAddr: 0x4E32, symBinAddr: 0x100005746, symSize: 0xA }
  - { offset: 0x11305B, size: 0x8, addend: 0x0, symName: __ZNK7httplib6detail12SocketStream11is_readableEv, symObjAddr: 0x4E3C, symBinAddr: 0x100005750, symSize: 0x12 }
  - { offset: 0x1130D1, size: 0x8, addend: 0x0, symName: __ZNK7httplib6detail12SocketStream13wait_readableEv, symObjAddr: 0x4E4E, symBinAddr: 0x100005762, symSize: 0xBC }
  - { offset: 0x1131E7, size: 0x8, addend: 0x0, symName: __ZNK7httplib6detail12SocketStream13wait_writableEv, symObjAddr: 0x4F0A, symBinAddr: 0x10000581E, symSize: 0x36 }
  - { offset: 0x1132CC, size: 0x8, addend: 0x0, symName: __ZN7httplib6detail12SocketStream4readEPcm, symObjAddr: 0x4F40, symBinAddr: 0x100005854, symSize: 0x238 }
  - { offset: 0x113737, size: 0x8, addend: 0x0, symName: __ZN7httplib6detail12SocketStream5writeEPKcm, symObjAddr: 0x5178, symBinAddr: 0x100005A8C, symSize: 0xAE }
  - { offset: 0x113A2C, size: 0x8, addend: 0x0, symName: __ZNK7httplib6detail12SocketStream22get_remote_ip_and_portERNSt3__112basic_stringIcNS2_11char_traitsIcEENS2_9allocatorIcEEEERi, symObjAddr: 0x5226, symBinAddr: 0x100005B3A, symSize: 0xEE }
  - { offset: 0x113C1E, size: 0x8, addend: 0x0, symName: __ZNK7httplib6detail12SocketStream21get_local_ip_and_portERNSt3__112basic_stringIcNS2_11char_traitsIcEENS2_9allocatorIcEEEERi, symObjAddr: 0x5314, symBinAddr: 0x100005C28, symSize: 0xEE }
  - { offset: 0x113DD3, size: 0x8, addend: 0x0, symName: __ZNK7httplib6detail12SocketStream6socketEv, symObjAddr: 0x5402, symBinAddr: 0x100005D16, symSize: 0xA }
  - { offset: 0x113DFA, size: 0x8, addend: 0x0, symName: __ZNK7httplib6detail12SocketStream8durationEv, symObjAddr: 0x540C, symBinAddr: 0x100005D20, symSize: 0x34 }
  - { offset: 0x113E7F, size: 0x8, addend: 0x0, symName: __ZNK7httplib6Server8is_validEv, symObjAddr: 0x5440, symBinAddr: 0x100005D54, symSize: 0x8 }
  - { offset: 0x113EA6, size: 0x8, addend: 0x0, symName: __ZN7httplib6Server24process_and_close_socketEi, symObjAddr: 0x5448, symBinAddr: 0x100005D5C, symSize: 0x2F4 }
  - { offset: 0x114842, size: 0x8, addend: 0x0, symName: ___cxx_global_var_init, symObjAddr: 0x3C050, symBinAddr: 0x100037A19, symSize: 0x2A }
  - { offset: 0x114878, size: 0x8, addend: 0x0, symName: __ZNSt3__112basic_stringIcNS_11char_traitsIcEENS_9allocatorIcEEE20__throw_out_of_rangeB8ne200100Ev, symObjAddr: 0x573C, symBinAddr: 0x100006050, symSize: 0x10 }
  - { offset: 0x114890, size: 0x8, addend: 0x0, symName: __ZNSt3__120__throw_out_of_rangeB8ne200100EPKc, symObjAddr: 0x574C, symBinAddr: 0x100006060, symSize: 0x4C }
  - { offset: 0x11489B, size: 0x8, addend: 0x0, symName: __ZNSt12out_of_rangeC1B8ne200100EPKc, symObjAddr: 0x5798, symBinAddr: 0x1000060AC, symSize: 0x24 }
  - { offset: 0x114928, size: 0x8, addend: 0x0, symName: __ZNSt3__112basic_stringIcNS_11char_traitsIcEENS_9allocatorIcEEE20__throw_length_errorB8ne200100Ev, symObjAddr: 0x57BC, symBinAddr: 0x1000060D0, symSize: 0x10 }
  - { offset: 0x114940, size: 0x8, addend: 0x0, symName: __ZNSt3__120__throw_length_errorB8ne200100EPKc, symObjAddr: 0x57CC, symBinAddr: 0x1000060E0, symSize: 0x4C }
  - { offset: 0x11494B, size: 0x8, addend: 0x0, symName: __ZNSt12length_errorC1B8ne200100EPKc, symObjAddr: 0x5818, symBinAddr: 0x10000612C, symSize: 0x23 }
  - { offset: 0x114E71, size: 0x8, addend: 0x0, symName: __ZNSt3__16vectorINS_12basic_stringIcNS_11char_traitsIcEENS_9allocatorIcEEEENS4_IS6_EEE22__base_destruct_at_endB8ne200100EPS6_, symObjAddr: 0x5A7C, symBinAddr: 0x1000062EC, symSize: 0x42 }
  - { offset: 0x11526F, size: 0x8, addend: 0x0, symName: __ZNSt3__16vectorIhNS_9allocatorIhEEE11__vallocateB8ne200100Em, symObjAddr: 0x5BAE, symBinAddr: 0x10000641E, symSize: 0x32 }
  - { offset: 0x115353, size: 0x8, addend: 0x0, symName: __ZNSt3__16vectorIhNS_9allocatorIhEEE20__throw_length_errorB8ne200100Ev, symObjAddr: 0x5BE0, symBinAddr: 0x100006450, symSize: 0x10 }
  - { offset: 0x11537F, size: 0x8, addend: 0x0, symName: __ZNSt3__16vectorIhNS_9allocatorIhEEE20__throw_length_errorB8ne200100Ev, symObjAddr: 0x5BE0, symBinAddr: 0x100006450, symSize: 0x10 }
  - { offset: 0x115397, size: 0x8, addend: 0x0, symName: __ZNSt3__112basic_stringIcNS_11char_traitsIcEENS_9allocatorIcEEE17__assign_externalEPKcm, symObjAddr: 0x5BF0, symBinAddr: 0x100006460, symSize: 0xA2 }
  - { offset: 0x11542B, size: 0x8, addend: 0x0, symName: __ZNSt3__112basic_stringIcNS_11char_traitsIcEENS_9allocatorIcEEE17__assign_externalEPKcm, symObjAddr: 0x5BF0, symBinAddr: 0x100006460, symSize: 0xA2 }
  - { offset: 0x115BBD, size: 0x8, addend: 0x0, symName: __ZNKSt3__121__murmur2_or_cityhashImLm64EEclB8ne200100EPKvm, symObjAddr: 0x6172, symBinAddr: 0x1000069E2, symSize: 0x286 }
  - { offset: 0x116452, size: 0x8, addend: 0x0, symName: __ZNSt3__115basic_stringbufIcNS_11char_traitsIcEENS_9allocatorIcEEEC2B8ne200100Ej, symObjAddr: 0x6924, symBinAddr: 0x100007194, symSize: 0x98 }
  - { offset: 0x1166E4, size: 0x8, addend: 0x0, symName: __ZNSt3__121__murmur2_or_cityhashImLm64EE18__hash_len_0_to_16B8ne200100EPKcm, symObjAddr: 0x63F8, symBinAddr: 0x100006C68, symSize: 0xE0 }
  - { offset: 0x1168FA, size: 0x8, addend: 0x0, symName: __ZNSt3__121__murmur2_or_cityhashImLm64EE19__hash_len_17_to_32B8ne200100EPKcm, symObjAddr: 0x64D8, symBinAddr: 0x100006D48, symSize: 0x94 }
  - { offset: 0x116A4C, size: 0x8, addend: 0x0, symName: __ZNSt3__121__murmur2_or_cityhashImLm64EE19__hash_len_33_to_64B8ne200100EPKcm, symObjAddr: 0x656C, symBinAddr: 0x100006DDC, symSize: 0xD8 }
  - { offset: 0x116CE0, size: 0x8, addend: 0x0, symName: __ZNSt3__118basic_stringstreamIcNS_11char_traitsIcEENS_9allocatorIcEEED0Ev, symObjAddr: 0x6644, symBinAddr: 0x100006EB4, symSize: 0x90 }
  - { offset: 0x116EBD, size: 0x8, addend: 0x0, symName: __ZThn16_NSt3__118basic_stringstreamIcNS_11char_traitsIcEENS_9allocatorIcEEED1Ev, symObjAddr: 0x66D4, symBinAddr: 0x100006F44, symSize: 0x92 }
  - { offset: 0x1170AB, size: 0x8, addend: 0x0, symName: __ZThn16_NSt3__118basic_stringstreamIcNS_11char_traitsIcEENS_9allocatorIcEEED0Ev, symObjAddr: 0x6766, symBinAddr: 0x100006FD6, symSize: 0x9A }
  - { offset: 0x11729B, size: 0x8, addend: 0x0, symName: __ZTv0_n24_NSt3__118basic_stringstreamIcNS_11char_traitsIcEENS_9allocatorIcEEED1Ev, symObjAddr: 0x6800, symBinAddr: 0x100007070, symSize: 0x8E }
  - { offset: 0x11746D, size: 0x8, addend: 0x0, symName: __ZTv0_n24_NSt3__118basic_stringstreamIcNS_11char_traitsIcEENS_9allocatorIcEEED0Ev, symObjAddr: 0x688E, symBinAddr: 0x1000070FE, symSize: 0x96 }
  - { offset: 0x117677, size: 0x8, addend: 0x0, symName: __ZNSt3__115basic_stringbufIcNS_11char_traitsIcEENS_9allocatorIcEEE15__init_buf_ptrsB8ne200100Ev, symObjAddr: 0x69BC, symBinAddr: 0x10000722C, symSize: 0x10A }
  - { offset: 0x1179C4, size: 0x8, addend: 0x0, symName: __ZNSt3__115basic_stringbufIcNS_11char_traitsIcEENS_9allocatorIcEEED1Ev, symObjAddr: 0x6AC6, symBinAddr: 0x100007336, symSize: 0x46 }
  - { offset: 0x117B45, size: 0x8, addend: 0x0, symName: __ZNSt3__115basic_stringbufIcNS_11char_traitsIcEENS_9allocatorIcEEED0Ev, symObjAddr: 0x6B0C, symBinAddr: 0x10000737C, symSize: 0x4C }
  - { offset: 0x117D8C, size: 0x8, addend: 0x0, symName: __ZNSt3__115basic_stringbufIcNS_11char_traitsIcEENS_9allocatorIcEEE7seekoffExNS_8ios_base7seekdirEj, symObjAddr: 0x6B58, symBinAddr: 0x1000073C8, symSize: 0x11C }
  - { offset: 0x117F75, size: 0x8, addend: 0x0, symName: __ZNSt3__115basic_stringbufIcNS_11char_traitsIcEENS_9allocatorIcEEE7seekposENS_4fposI11__mbstate_tEEj, symObjAddr: 0x6C74, symBinAddr: 0x1000074E4, symSize: 0x26 }
  - { offset: 0x11801E, size: 0x8, addend: 0x0, symName: __ZNSt3__115basic_stringbufIcNS_11char_traitsIcEENS_9allocatorIcEEE9underflowEv, symObjAddr: 0x6C9A, symBinAddr: 0x10000750A, symSize: 0x42 }
  - { offset: 0x118046, size: 0x8, addend: 0x0, symName: __ZNSt3__115basic_stringbufIcNS_11char_traitsIcEENS_9allocatorIcEEE9underflowEv, symObjAddr: 0x6C9A, symBinAddr: 0x10000750A, symSize: 0x42 }
  - { offset: 0x118105, size: 0x8, addend: 0x0, symName: __ZNSt3__115basic_stringbufIcNS_11char_traitsIcEENS_9allocatorIcEEE9pbackfailEi, symObjAddr: 0x6CDC, symBinAddr: 0x10000754C, symSize: 0x5A }
  - { offset: 0x11813C, size: 0x8, addend: 0x0, symName: __ZNSt3__115basic_stringbufIcNS_11char_traitsIcEENS_9allocatorIcEEE9pbackfailEi, symObjAddr: 0x6CDC, symBinAddr: 0x10000754C, symSize: 0x5A }
  - { offset: 0x1182CE, size: 0x8, addend: 0x0, symName: __ZNSt3__115basic_stringbufIcNS_11char_traitsIcEENS_9allocatorIcEEE8overflowEi, symObjAddr: 0x6D36, symBinAddr: 0x1000075A6, symSize: 0x14E }
  - { offset: 0x1187EB, size: 0x8, addend: 0x0, symName: __ZNKSt3__115basic_stringbufIcNS_11char_traitsIcEENS_9allocatorIcEEE4viewB8ne200100Ev, symObjAddr: 0x6F1E, symBinAddr: 0x10000778E, symSize: 0x40 }
  - { offset: 0x118AD1, size: 0x8, addend: 0x0, symName: __ZNSt3__112basic_stringIcNS_11char_traitsIcEENS_9allocatorIcEEE6appendB8ne200100IPKcLi0EEERS5_T_SA_, symObjAddr: 0x71CE, symBinAddr: 0x100007A3E, symSize: 0x156 }
  - { offset: 0x119496, size: 0x8, addend: 0x0, symName: __ZNSt3__112basic_stringIcNS_11char_traitsIcEENS_9allocatorIcEEE16__init_with_sizeB8ne200100IPKcS8_EEvT_T0_m, symObjAddr: 0x7324, symBinAddr: 0x100007B94, symSize: 0x90 }
  - { offset: 0x119895, size: 0x8, addend: 0x0, symName: __ZN3Ort9ExceptionD1Ev, symObjAddr: 0x77E4, symBinAddr: 0x100008054, symSize: 0x30 }
  - { offset: 0x119A0C, size: 0x8, addend: 0x0, symName: __ZN3Ort9ExceptionD0Ev, symObjAddr: 0x7814, symBinAddr: 0x100008084, symSize: 0x38 }
  - { offset: 0x119B8D, size: 0x8, addend: 0x0, symName: __ZNK3Ort9Exception4whatEv, symObjAddr: 0x784C, symBinAddr: 0x1000080BC, symSize: 0x1A }
  - { offset: 0x119E23, size: 0x8, addend: 0x0, symName: __ZNSt3__16vectorIxNS_9allocatorIxEEE11__vallocateB8ne200100Em, symObjAddr: 0x78CA, symBinAddr: 0x10000813A, symSize: 0x32 }
  - { offset: 0x119E7D, size: 0x8, addend: 0x0, symName: __ZNSt3__16vectorIxNS_9allocatorIxEEE20__throw_length_errorB8ne200100Ev, symObjAddr: 0x78FC, symBinAddr: 0x10000816C, symSize: 0x10 }
  - { offset: 0x119E88, size: 0x8, addend: 0x0, symName: __ZNSt3__16vectorIxNS_9allocatorIxEEE20__throw_length_errorB8ne200100Ev, symObjAddr: 0x78FC, symBinAddr: 0x10000816C, symSize: 0x10 }
  - { offset: 0x119EA0, size: 0x8, addend: 0x0, symName: __ZNSt3__119__allocate_at_leastB8ne200100INS_9allocatorIxEEEENS_19__allocation_resultINS_16allocator_traitsIT_E7pointerEEERS5_m, symObjAddr: 0x790C, symBinAddr: 0x10000817C, symSize: 0x2E }
  - { offset: 0x119F03, size: 0x8, addend: 0x0, symName: __ZNSt3__114__split_bufferINS_12basic_stringIcNS_11char_traitsIcEENS_9allocatorIcEEEERNS4_IS6_EEE17__destruct_at_endB8ne200100EPS6_, symObjAddr: 0x79AA, symBinAddr: 0x10000821A, symSize: 0x3E }
  - { offset: 0x119F3D, size: 0x8, addend: 0x0, symName: __ZNSt3__114__split_bufferINS_12basic_stringIcNS_11char_traitsIcEENS_9allocatorIcEEEERNS4_IS6_EEE17__destruct_at_endB8ne200100EPS6_, symObjAddr: 0x79AA, symBinAddr: 0x10000821A, symSize: 0x3E }
  - { offset: 0x11ADCA, size: 0x8, addend: 0x0, symName: __ZNSt3__110__function6__funcIZN7httplib6ServerC1EvEUlvE_NS_9allocatorIS4_EEFPNS2_9TaskQueueEvEED1Ev, symObjAddr: 0x81DA, symBinAddr: 0x100008A1E, symSize: 0x6 }
  - { offset: 0x11ADF6, size: 0x8, addend: 0x0, symName: __ZNSt3__110__function6__funcIZN7httplib6ServerC1EvEUlvE_NS_9allocatorIS4_EEFPNS2_9TaskQueueEvEED0Ev, symObjAddr: 0x81E0, symBinAddr: 0x100008A24, symSize: 0xA }
  - { offset: 0x11AEAC, size: 0x8, addend: 0x0, symName: __ZNKSt3__110__function6__funcIZN7httplib6ServerC1EvEUlvE_NS_9allocatorIS4_EEFPNS2_9TaskQueueEvEE7__cloneEv, symObjAddr: 0x81EA, symBinAddr: 0x100008A2E, symSize: 0x1A }
  - { offset: 0x11B005, size: 0x8, addend: 0x0, symName: __ZNKSt3__110__function6__funcIZN7httplib6ServerC1EvEUlvE_NS_9allocatorIS4_EEFPNS2_9TaskQueueEvEE7__cloneEPNS0_6__baseIS9_EE, symObjAddr: 0x8204, symBinAddr: 0x100008A48, symSize: 0x10 }
  - { offset: 0x11B09F, size: 0x8, addend: 0x0, symName: __ZNSt3__110__function6__funcIZN7httplib6ServerC1EvEUlvE_NS_9allocatorIS4_EEFPNS2_9TaskQueueEvEE7destroyEv, symObjAddr: 0x8214, symBinAddr: 0x100008A58, symSize: 0x6 }
  - { offset: 0x11B0F5, size: 0x8, addend: 0x0, symName: __ZNSt3__110__function6__funcIZN7httplib6ServerC1EvEUlvE_NS_9allocatorIS4_EEFPNS2_9TaskQueueEvEE18destroy_deallocateEv, symObjAddr: 0x821A, symBinAddr: 0x100008A5E, symSize: 0xA }
  - { offset: 0x11B1CA, size: 0x8, addend: 0x0, symName: __ZNSt3__110__function6__funcIZN7httplib6ServerC1EvEUlvE_NS_9allocatorIS4_EEFPNS2_9TaskQueueEvEEclEv, symObjAddr: 0x8224, symBinAddr: 0x100008A68, symSize: 0xE }
  - { offset: 0x11B23C, size: 0x8, addend: 0x0, symName: __ZNSt3__128__invoke_void_return_wrapperIPN7httplib9TaskQueueELb0EE6__callB8ne200100IJRZNS1_6ServerC1EvEUlvE_EEES3_DpOT_, symObjAddr: 0x825C, symBinAddr: 0x100008AA0, symSize: 0x5C }
  - { offset: 0x11B32B, size: 0x8, addend: 0x0, symName: __ZNKSt3__110__function6__funcIZN7httplib6ServerC1EvEUlvE_NS_9allocatorIS4_EEFPNS2_9TaskQueueEvEE6targetERKSt9type_info, symObjAddr: 0x8232, symBinAddr: 0x100008A76, symSize: 0x1C }
  - { offset: 0x11B39F, size: 0x8, addend: 0x0, symName: __ZNKSt3__110__function6__funcIZN7httplib6ServerC1EvEUlvE_NS_9allocatorIS4_EEFPNS2_9TaskQueueEvEE11target_typeEv, symObjAddr: 0x824E, symBinAddr: 0x100008A92, symSize: 0xE }
  - { offset: 0x11B41F, size: 0x8, addend: 0x0, symName: __ZN7httplib10ThreadPoolC2Emm, symObjAddr: 0x82B8, symBinAddr: 0x100008AFC, symSize: 0xEC }
  - { offset: 0x11B962, size: 0x8, addend: 0x0, symName: __ZNSt3__16vectorINS_6threadENS_9allocatorIS1_EEE7reserveEm, symObjAddr: 0x83A4, symBinAddr: 0x100008BE8, symSize: 0x8E }
  - { offset: 0x11BB16, size: 0x8, addend: 0x0, symName: __ZNSt3__16vectorINS_6threadENS_9allocatorIS1_EEE12emplace_backIJN7httplib10ThreadPool6workerEEEERS1_DpOT_, symObjAddr: 0x8432, symBinAddr: 0x100008C76, symSize: 0x10C }
  - { offset: 0x11BF3E, size: 0x8, addend: 0x0, symName: __ZNSt3__110__list_impINS_8functionIFvvEEENS_9allocatorIS3_EEE5clearEv, symObjAddr: 0x8CAC, symBinAddr: 0x1000094F0, symSize: 0x7A }
  - { offset: 0x11BF68, size: 0x8, addend: 0x0, symName: __ZNSt3__110__list_impINS_8functionIFvvEEENS_9allocatorIS3_EEE5clearEv, symObjAddr: 0x8CAC, symBinAddr: 0x1000094F0, symSize: 0x7A }
  - { offset: 0x11C19F, size: 0x8, addend: 0x0, symName: __ZNSt3__16vectorINS_6threadENS_9allocatorIS1_EEE16__destroy_vectorclB8ne200100Ev, symObjAddr: 0x8D26, symBinAddr: 0x10000956A, symSize: 0x56 }
  - { offset: 0x11C3CF, size: 0x8, addend: 0x0, symName: __ZNSt3__16vectorINS_6threadENS_9allocatorIS1_EEE26__swap_out_circular_bufferERNS_14__split_bufferIS1_RS3_EE, symObjAddr: 0x863E, symBinAddr: 0x100008E82, symSize: 0xA7 }
  - { offset: 0x11C638, size: 0x8, addend: 0x0, symName: __ZNSt3__114__split_bufferINS_6threadERNS_9allocatorIS1_EEED2Ev, symObjAddr: 0x8714, symBinAddr: 0x100008F58, symSize: 0x40 }
  - { offset: 0x11C78D, size: 0x8, addend: 0x0, symName: __ZNSt3__16vectorINS_6threadENS_9allocatorIS1_EEE20__throw_length_errorB8ne200100Ev, symObjAddr: 0x862E, symBinAddr: 0x100008E72, symSize: 0x10 }
  - { offset: 0x11C7A5, size: 0x8, addend: 0x0, symName: __ZNSt3__16vectorINS_6threadENS_9allocatorIS1_EEE26__swap_out_circular_bufferERNS_14__split_bufferIS1_RS3_EE, symObjAddr: 0x863E, symBinAddr: 0x100008E82, symSize: 0xA7 }
  - { offset: 0x11C936, size: 0x8, addend: 0x0, symName: __ZNSt3__16threadC2IN7httplib10ThreadPool6workerEJELi0EEEOT_DpOT0_, symObjAddr: 0x8754, symBinAddr: 0x100008F98, symSize: 0xA0 }
  - { offset: 0x11CC54, size: 0x8, addend: 0x0, symName: __ZN7httplib10ThreadPoolD1Ev, symObjAddr: 0x853E, symBinAddr: 0x100008D82, symSize: 0xA }
  - { offset: 0x11CC8C, size: 0x8, addend: 0x0, symName: __ZN7httplib10ThreadPoolD2Ev, symObjAddr: 0x8D7C, symBinAddr: 0x1000095C0, symSize: 0x3C }
  - { offset: 0x11CDE9, size: 0x8, addend: 0x0, symName: __ZN7httplib10ThreadPoolD0Ev, symObjAddr: 0x8548, symBinAddr: 0x100008D8C, symSize: 0x1C }
  - { offset: 0x11CECD, size: 0x8, addend: 0x0, symName: __ZN7httplib10ThreadPool7enqueueENSt3__18functionIFvvEEE, symObjAddr: 0x8564, symBinAddr: 0x100008DA8, symSize: 0x78 }
  - { offset: 0x11CFC7, size: 0x8, addend: 0x0, symName: __ZNSt3__14listINS_8functionIFvvEEENS_9allocatorIS3_EEE9push_backEOS3_, symObjAddr: 0x8DB8, symBinAddr: 0x1000095FC, symSize: 0x50 }
  - { offset: 0x11D384, size: 0x8, addend: 0x0, symName: __ZN7httplib10ThreadPool8shutdownEv, symObjAddr: 0x85DC, symBinAddr: 0x100008E20, symSize: 0x4C }
  - { offset: 0x11D4F9, size: 0x8, addend: 0x0, symName: __ZN7httplib9TaskQueue7on_idleEv, symObjAddr: 0x8628, symBinAddr: 0x100008E6C, symSize: 0x6 }
  - { offset: 0x11DB13, size: 0x8, addend: 0x0, symName: __ZNSt3__110unique_ptrINS_5tupleIJNS0_INS_15__thread_structENS_14default_deleteIS2_EEEEN7httplib10ThreadPool6workerEEEENS3_IS9_EEE5resetB8ne200100EPS9_, symObjAddr: 0x8C4E, symBinAddr: 0x100009492, symSize: 0x30 }
  - { offset: 0x11DDD7, size: 0x8, addend: 0x0, symName: __ZN7httplib10ThreadPool6workerclEv, symObjAddr: 0x8852, symBinAddr: 0x100009096, symSize: 0x180 }
  - { offset: 0x11E2A5, size: 0x8, addend: 0x0, symName: __ZNSt3__110unique_ptrINS_15__thread_structENS_14default_deleteIS1_EEE5resetB8ne200100EPS1_, symObjAddr: 0x8C7E, symBinAddr: 0x1000094C2, symSize: 0x2E }
  - { offset: 0x11E4FA, size: 0x8, addend: 0x0, symName: __ZNSt3__18functionIFvvEEaSERKS2_, symObjAddr: 0x89D2, symBinAddr: 0x100009216, symSize: 0x74 }
  - { offset: 0x11E6AB, size: 0x8, addend: 0x0, symName: __ZNSt3__14listINS_8functionIFvvEEENS_9allocatorIS3_EEE9pop_frontEv, symObjAddr: 0x8A46, symBinAddr: 0x10000928A, symSize: 0x4E }
  - { offset: 0x11E97C, size: 0x8, addend: 0x0, symName: __ZNSt3__110__function12__value_funcIFvvEEC2B8ne200100ERKS3_, symObjAddr: 0x8A94, symBinAddr: 0x1000092D8, symSize: 0x4C }
  - { offset: 0x11E9D0, size: 0x8, addend: 0x0, symName: __ZNSt3__110__function12__value_funcIFvvEE4swapB8ne200100ERS3_, symObjAddr: 0x8AE0, symBinAddr: 0x100009324, symSize: 0x116 }
  - { offset: 0x11EC52, size: 0x8, addend: 0x0, symName: __ZNSt3__117bad_function_callD1Ev, symObjAddr: 0x8C28, symBinAddr: 0x10000946C, symSize: 0xA }
  - { offset: 0x11ECAB, size: 0x8, addend: 0x0, symName: __ZNSt3__117bad_function_callD0Ev, symObjAddr: 0x8C32, symBinAddr: 0x100009476, symSize: 0x1C }
  - { offset: 0x11F013, size: 0x8, addend: 0x0, symName: __ZNSt3__110__function12__value_funcIFvvEEC2B8ne200100EOS3_, symObjAddr: 0x8E08, symBinAddr: 0x10000964C, symSize: 0x4A }
  - { offset: 0x11F05B, size: 0x8, addend: 0x0, symName: __ZNSt3__110__function6__funcIPFviENS_9allocatorIS3_EES2_ED1Ev, symObjAddr: 0x8E52, symBinAddr: 0x100009696, symSize: 0x6 }
  - { offset: 0x11F087, size: 0x8, addend: 0x0, symName: __ZNSt3__110__function6__funcIPFviENS_9allocatorIS3_EES2_ED0Ev, symObjAddr: 0x8E58, symBinAddr: 0x10000969C, symSize: 0xA }
  - { offset: 0x11F19D, size: 0x8, addend: 0x0, symName: __ZNKSt3__110__function6__funcIPFviENS_9allocatorIS3_EES2_E7__cloneEv, symObjAddr: 0x8E62, symBinAddr: 0x1000096A6, symSize: 0x30 }
  - { offset: 0x11F3BF, size: 0x8, addend: 0x0, symName: __ZNKSt3__110__function6__funcIPFviENS_9allocatorIS3_EES2_E7__cloneEPNS0_6__baseIS2_EE, symObjAddr: 0x8E92, symBinAddr: 0x1000096D6, symSize: 0x1C }
  - { offset: 0x11F4C2, size: 0x8, addend: 0x0, symName: __ZNSt3__110__function6__funcIPFviENS_9allocatorIS3_EES2_E7destroyEv, symObjAddr: 0x8EAE, symBinAddr: 0x1000096F2, symSize: 0x6 }
  - { offset: 0x11F518, size: 0x8, addend: 0x0, symName: __ZNSt3__110__function6__funcIPFviENS_9allocatorIS3_EES2_E18destroy_deallocateEv, symObjAddr: 0x8EB4, symBinAddr: 0x1000096F8, symSize: 0xA }
  - { offset: 0x11F626, size: 0x8, addend: 0x0, symName: __ZNSt3__110__function6__funcIPFviENS_9allocatorIS3_EES2_EclEOi, symObjAddr: 0x8EBE, symBinAddr: 0x100009702, symSize: 0xE }
  - { offset: 0x11F70A, size: 0x8, addend: 0x0, symName: __ZNKSt3__110__function6__funcIPFviENS_9allocatorIS3_EES2_E6targetERKSt9type_info, symObjAddr: 0x8ECC, symBinAddr: 0x100009710, symSize: 0x1C }
  - { offset: 0x11F77C, size: 0x8, addend: 0x0, symName: __ZNKSt3__110__function6__funcIPFviENS_9allocatorIS3_EES2_E11target_typeEv, symObjAddr: 0x8EE8, symBinAddr: 0x10000972C, symSize: 0xE }
  - { offset: 0x11F7A1, size: 0x8, addend: 0x0, symName: __ZNSt3__110__function6__funcIPFlRN7httplib6StreamERKNS_18unordered_multimapINS_12basic_stringIcNS_11char_traitsIcEENS_9allocatorIcEEEESB_NS2_6detail11case_ignore4hashENSD_8equal_toENS9_INS_4pairIKSB_SB_EEEEEEENS9_ISO_EEFlS4_RSK_EED1Ev, symObjAddr: 0x8EF6, symBinAddr: 0x10000973A, symSize: 0x6 }
  - { offset: 0x11F7CD, size: 0x8, addend: 0x0, symName: __ZNSt3__110__function6__funcIPFlRN7httplib6StreamERKNS_18unordered_multimapINS_12basic_stringIcNS_11char_traitsIcEENS_9allocatorIcEEEESB_NS2_6detail11case_ignore4hashENSD_8equal_toENS9_INS_4pairIKSB_SB_EEEEEEENS9_ISO_EEFlS4_RSK_EED0Ev, symObjAddr: 0x8EFC, symBinAddr: 0x100009740, symSize: 0xA }
  - { offset: 0x11F8E3, size: 0x8, addend: 0x0, symName: __ZNKSt3__110__function6__funcIPFlRN7httplib6StreamERKNS_18unordered_multimapINS_12basic_stringIcNS_11char_traitsIcEENS_9allocatorIcEEEESB_NS2_6detail11case_ignore4hashENSD_8equal_toENS9_INS_4pairIKSB_SB_EEEEEEENS9_ISO_EEFlS4_RSK_EE7__cloneEv, symObjAddr: 0x8F06, symBinAddr: 0x10000974A, symSize: 0x2C }
  - { offset: 0x11FB05, size: 0x8, addend: 0x0, symName: __ZNKSt3__110__function6__funcIPFlRN7httplib6StreamERKNS_18unordered_multimapINS_12basic_stringIcNS_11char_traitsIcEENS_9allocatorIcEEEESB_NS2_6detail11case_ignore4hashENSD_8equal_toENS9_INS_4pairIKSB_SB_EEEEEEENS9_ISO_EEFlS4_RSK_EE7__cloneEPNS0_6__baseISR_EE, symObjAddr: 0x8F32, symBinAddr: 0x100009776, symSize: 0x18 }
  - { offset: 0x11FC08, size: 0x8, addend: 0x0, symName: __ZNSt3__110__function6__funcIPFlRN7httplib6StreamERKNS_18unordered_multimapINS_12basic_stringIcNS_11char_traitsIcEENS_9allocatorIcEEEESB_NS2_6detail11case_ignore4hashENSD_8equal_toENS9_INS_4pairIKSB_SB_EEEEEEENS9_ISO_EEFlS4_RSK_EE7destroyEv, symObjAddr: 0x8F4A, symBinAddr: 0x10000978E, symSize: 0x6 }
  - { offset: 0x11FC5E, size: 0x8, addend: 0x0, symName: __ZNSt3__110__function6__funcIPFlRN7httplib6StreamERKNS_18unordered_multimapINS_12basic_stringIcNS_11char_traitsIcEENS_9allocatorIcEEEESB_NS2_6detail11case_ignore4hashENSD_8equal_toENS9_INS_4pairIKSB_SB_EEEEEEENS9_ISO_EEFlS4_RSK_EE18destroy_deallocateEv, symObjAddr: 0x8F50, symBinAddr: 0x100009794, symSize: 0xA }
  - { offset: 0x11FD87, size: 0x8, addend: 0x0, symName: __ZNSt3__110__function6__funcIPFlRN7httplib6StreamERKNS_18unordered_multimapINS_12basic_stringIcNS_11char_traitsIcEENS_9allocatorIcEEEESB_NS2_6detail11case_ignore4hashENSD_8equal_toENS9_INS_4pairIKSB_SB_EEEEEEENS9_ISO_EEFlS4_RSK_EEclES4_SQ_, symObjAddr: 0x8F5A, symBinAddr: 0x10000979E, symSize: 0x12 }
  - { offset: 0x11FEB7, size: 0x8, addend: 0x0, symName: __ZNKSt3__110__function6__funcIPFlRN7httplib6StreamERKNS_18unordered_multimapINS_12basic_stringIcNS_11char_traitsIcEENS_9allocatorIcEEEESB_NS2_6detail11case_ignore4hashENSD_8equal_toENS9_INS_4pairIKSB_SB_EEEEEEENS9_ISO_EEFlS4_RSK_EE6targetERKSt9type_info, symObjAddr: 0x8F6C, symBinAddr: 0x1000097B0, symSize: 0x1C }
  - { offset: 0x11FF2B, size: 0x8, addend: 0x0, symName: __ZNKSt3__110__function6__funcIPFlRN7httplib6StreamERKNS_18unordered_multimapINS_12basic_stringIcNS_11char_traitsIcEENS_9allocatorIcEEEESB_NS2_6detail11case_ignore4hashENSD_8equal_toENS9_INS_4pairIKSB_SB_EEEEEEENS9_ISO_EEFlS4_RSK_EE11target_typeEv, symObjAddr: 0x8F88, symBinAddr: 0x1000097CC, symSize: 0xE }
  - { offset: 0x1202FD, size: 0x8, addend: 0x0, symName: __ZNSt3__110__function12__value_funcIFvRKN7httplib7RequestERNS2_8ResponseEEEC2B8ne200100EOS9_, symObjAddr: 0x90E2, symBinAddr: 0x100009926, symSize: 0x4A }
  - { offset: 0x120345, size: 0x8, addend: 0x0, symName: __ZNSt3__16vectorINS_4pairINS_10unique_ptrIN7httplib6detail11MatcherBaseENS_14default_deleteIS5_EEEENS_8functionIFvRKNS3_7RequestERNS3_8ResponseEEEEEENS_9allocatorISH_EEE26__swap_out_circular_bufferERNS_14__split_bufferISH_RSJ_EE, symObjAddr: 0x912C, symBinAddr: 0x100009970, symSize: 0x72 }
  - { offset: 0x12043D, size: 0x8, addend: 0x0, symName: __ZNSt3__114__split_bufferINS_4pairINS_10unique_ptrIN7httplib6detail11MatcherBaseENS_14default_deleteIS5_EEEENS_8functionIFvRKNS3_7RequestERNS3_8ResponseEEEEEERNS_9allocatorISH_EEED2Ev, symObjAddr: 0x924A, symBinAddr: 0x100009A8E, symSize: 0x40 }
  - { offset: 0x120581, size: 0x8, addend: 0x0, symName: __ZNSt3__16vectorINS_4pairINS_10unique_ptrIN7httplib6detail11MatcherBaseENS_14default_deleteIS5_EEEENS_8functionIFvRKNS3_7RequestERNS3_8ResponseEEEEEENS_9allocatorISH_EEE20__throw_length_errorB8ne200100Ev, symObjAddr: 0x919E, symBinAddr: 0x1000099E2, symSize: 0x10 }
  - { offset: 0x120599, size: 0x8, addend: 0x0, symName: __ZNSt3__119__allocate_at_leastB8ne200100INS_9allocatorINS_4pairINS_10unique_ptrIN7httplib6detail11MatcherBaseENS_14default_deleteIS6_EEEENS_8functionIFvRKNS4_7RequestERNS4_8ResponseEEEEEEEEEENS_19__allocation_resultINS_16allocator_traitsIT_E7pointerEEERSM_m, symObjAddr: 0x91AE, symBinAddr: 0x1000099F2, symSize: 0x2D }
  - { offset: 0x12073A, size: 0x8, addend: 0x0, symName: __ZN7httplib6detail17PathParamsMatcherC2ERKNSt3__112basic_stringIcNS2_11char_traitsIcEENS2_9allocatorIcEEEE, symObjAddr: 0x9322, symBinAddr: 0x100009B66, symSize: 0x484 }
  - { offset: 0x121F66, size: 0x8, addend: 0x0, symName: __ZN7httplib6detail12RegexMatcherC2ERKNSt3__112basic_stringIcNS2_11char_traitsIcEENS2_9allocatorIcEEEE, symObjAddr: 0x9A02, symBinAddr: 0x10000A23A, symSize: 0x9E }
  - { offset: 0x122430, size: 0x8, addend: 0x0, symName: __ZNSt3__112__hash_tableINS_12basic_stringIcNS_11char_traitsIcEENS_9allocatorIcEEEENS_4hashIS6_EENS_8equal_toIS6_EENS4_IS6_EEE4findIS6_EENS_15__hash_iteratorIPNS_11__hash_nodeIS6_PvEEEERKT_, symObjAddr: 0x9806, symBinAddr: 0x10000A03E, symSize: 0x130 }
  - { offset: 0x122601, size: 0x8, addend: 0x0, symName: __ZNSt3__112__hash_tableINS_12basic_stringIcNS_11char_traitsIcEENS_9allocatorIcEEEENS_4hashIS6_EENS_8equal_toIS6_EENS4_IS6_EEED2Ev, symObjAddr: 0x999C, symBinAddr: 0x10000A1D4, symSize: 0x30 }
  - { offset: 0x12272F, size: 0x8, addend: 0x0, symName: __ZN7httplib6detail11MatcherBaseD1Ev, symObjAddr: 0x97FA, symBinAddr: 0x1000570A2, symSize: 0x6 }
  - { offset: 0x122758, size: 0x8, addend: 0x0, symName: __ZN7httplib6detail11MatcherBaseD0Ev, symObjAddr: 0x9800, symBinAddr: 0x1000570A8, symSize: 0x6 }
  - { offset: 0x12280F, size: 0x8, addend: 0x0, symName: __ZNKSt3__18equal_toINS_12basic_stringIcNS_11char_traitsIcEENS_9allocatorIcEEEEEclB8ne200100ERKS6_S9_, symObjAddr: 0x9936, symBinAddr: 0x10000A16E, symSize: 0x66 }
  - { offset: 0x122AD1, size: 0x8, addend: 0x0, symName: __ZNSt3__112__hash_tableINS_12basic_stringIcNS_11char_traitsIcEENS_9allocatorIcEEEENS_4hashIS6_EENS_8equal_toIS6_EENS4_IS6_EEE17__deallocate_nodeEPNS_16__hash_node_baseIPNS_11__hash_nodeIS6_PvEEEE, symObjAddr: 0x99CC, symBinAddr: 0x10000A204, symSize: 0x36 }
  - { offset: 0x122E1A, size: 0x8, addend: 0x0, symName: __ZNSt3__111basic_regexIcNS_12regex_traitsIcEEEC2B8ne200100INS_11char_traitsIcEENS_9allocatorIcEEEERKNS_12basic_stringIcT_T0_EENS_15regex_constants18syntax_option_typeE, symObjAddr: 0x9AA0, symBinAddr: 0x10000A2D8, symSize: 0x8C }
  - { offset: 0x12307E, size: 0x8, addend: 0x0, symName: __ZNSt3__112regex_traitsIcEC2Ev, symObjAddr: 0x9B2C, symBinAddr: 0x10000A364, symSize: 0x4E }
  - { offset: 0x123108, size: 0x8, addend: 0x0, symName: __ZNSt3__111basic_regexIcNS_12regex_traitsIcEEE7__parseINS_11__wrap_iterIPKcEEEET_S9_S9_, symObjAddr: 0x9B7A, symBinAddr: 0x10000A3B2, symSize: 0x11C }
  - { offset: 0x123563, size: 0x8, addend: 0x0, symName: __ZNSt3__110shared_ptrINS_13__empty_stateIcEEE5resetB8ne200100IS2_Li0EEEvPT_, symObjAddr: 0x9CE0, symBinAddr: 0x10000A518, symSize: 0x64 }
  - { offset: 0x1236E6, size: 0x8, addend: 0x0, symName: __ZNSt3__111basic_regexIcNS_12regex_traitsIcEEE13__parse_egrepINS_11__wrap_iterIPKcEEEET_S9_S9_, symObjAddr: 0xA0FA, symBinAddr: 0x10000A932, symSize: 0x13A }
  - { offset: 0x123B5B, size: 0x8, addend: 0x0, symName: __ZNSt3__111basic_regexIcNS_12regex_traitsIcEEE24__parse_extended_reg_expINS_11__wrap_iterIPKcEEEET_S9_S9_, symObjAddr: 0x9F38, symBinAddr: 0x10000A770, symSize: 0x88 }
  - { offset: 0x123CAA, size: 0x8, addend: 0x0, symName: __ZNSt3__111basic_regexIcNS_12regex_traitsIcEEE12__parse_grepINS_11__wrap_iterIPKcEEEET_S9_S9_, symObjAddr: 0x9FC0, symBinAddr: 0x10000A7F8, symSize: 0x13A }
  - { offset: 0x123CBE, size: 0x8, addend: 0x0, symName: __ZNSt3__111basic_regexIcNS_12regex_traitsIcEEE21__parse_basic_reg_expINS_11__wrap_iterIPKcEEEET_S9_S9_, symObjAddr: 0x9E34, symBinAddr: 0x10000A66C, symSize: 0x104 }
  - { offset: 0x124032, size: 0x8, addend: 0x0, symName: __ZNSt3__111basic_regexIcNS_12regex_traitsIcEEE24__parse_extended_reg_expINS_11__wrap_iterIPKcEEEET_S9_S9_, symObjAddr: 0x9F38, symBinAddr: 0x10000A770, symSize: 0x88 }
  - { offset: 0x124046, size: 0x8, addend: 0x0, symName: __ZNSt3__111basic_regexIcNS_12regex_traitsIcEEE12__parse_grepINS_11__wrap_iterIPKcEEEET_S9_S9_, symObjAddr: 0x9FC0, symBinAddr: 0x10000A7F8, symSize: 0x13A }
  - { offset: 0x1244BB, size: 0x8, addend: 0x0, symName: __ZNSt3__111basic_regexIcNS_12regex_traitsIcEEE16__parse_ecma_expINS_11__wrap_iterIPKcEEEET_S9_S9_, symObjAddr: 0x9D44, symBinAddr: 0x10000A57C, symSize: 0xF0 }
  - { offset: 0x124836, size: 0x8, addend: 0x0, symName: __ZNSt3__110shared_ptrINS_13__empty_stateIcEEEC2B8ne200100IS2_Li0EEEPT_, symObjAddr: 0xA2A6, symBinAddr: 0x10000AADE, symSize: 0x56 }
  - { offset: 0x1249CD, size: 0x8, addend: 0x0, symName: __ZNSt3__111basic_regexIcNS_12regex_traitsIcEEE19__parse_alternativeINS_11__wrap_iterIPKcEEEET_S9_S9_, symObjAddr: 0xA41E, symBinAddr: 0x10000AC56, symSize: 0x38 }
  - { offset: 0x124A72, size: 0x8, addend: 0x0, symName: __ZNSt3__111basic_regexIcNS_12regex_traitsIcEEE18__push_alternationEPNS_16__owns_one_stateIcEES6_, symObjAddr: 0xA456, symBinAddr: 0x10000AC8E, symSize: 0xB2 }
  - { offset: 0x124E63, size: 0x8, addend: 0x0, symName: __ZNSt3__111basic_regexIcNS_12regex_traitsIcEEE17__parse_simple_REINS_11__wrap_iterIPKcEEEET_S9_S9_, symObjAddr: 0x106AE, symBinAddr: 0x100010BBA, symSize: 0x70 }
  - { offset: 0x124F47, size: 0x8, addend: 0x0, symName: __ZNSt3__111basic_regexIcNS_12regex_traitsIcEEE18__parse_ERE_branchINS_11__wrap_iterIPKcEEEET_S9_S9_, symObjAddr: 0x10B82, symBinAddr: 0x10001108E, symSize: 0x46 }
  - { offset: 0x125014, size: 0x8, addend: 0x0, symName: __ZNSt3__111basic_regexIcNS_12regex_traitsIcEEE22__parse_ERE_expressionINS_11__wrap_iterIPKcEEEET_S9_S9_, symObjAddr: 0x10BC8, symBinAddr: 0x1000110D4, symSize: 0x15C }
  - { offset: 0x12502E, size: 0x8, addend: 0x0, symName: __ZNSt3__111__end_stateIcED1Ev, symObjAddr: 0xA27E, symBinAddr: 0x10000AAB6, symSize: 0x6 }
  - { offset: 0x12505A, size: 0x8, addend: 0x0, symName: __ZNSt3__111__end_stateIcED0Ev, symObjAddr: 0xA284, symBinAddr: 0x10000AABC, symSize: 0xA }
  - { offset: 0x125086, size: 0x8, addend: 0x0, symName: __ZNKSt3__111__end_stateIcE6__execERNS_7__stateIcEE, symObjAddr: 0xA28E, symBinAddr: 0x10000AAC6, symSize: 0xC }
  - { offset: 0x1250BA, size: 0x8, addend: 0x0, symName: __ZNKSt3__16__nodeIcE12__exec_splitEbRNS_7__stateIcEE, symObjAddr: 0xA29A, symBinAddr: 0x10000AAD2, symSize: 0x6 }
  - { offset: 0x125101, size: 0x8, addend: 0x0, symName: __ZNKSt3__16__nodeIcE6__execERNS_7__stateIcEE, symObjAddr: 0xA2A0, symBinAddr: 0x10000AAD8, symSize: 0x6 }
  - { offset: 0x1252CF, size: 0x8, addend: 0x0, symName: __ZNSt3__120__shared_ptr_pointerIPNS_13__empty_stateIcEENS_10shared_ptrIS2_E27__shared_ptr_default_deleteIS2_S2_EENS_9allocatorIS2_EEED1Ev, symObjAddr: 0xA2FC, symBinAddr: 0x10000AB34, symSize: 0xA }
  - { offset: 0x12532A, size: 0x8, addend: 0x0, symName: __ZNSt3__120__shared_ptr_pointerIPNS_13__empty_stateIcEENS_10shared_ptrIS2_E27__shared_ptr_default_deleteIS2_S2_EENS_9allocatorIS2_EEED0Ev, symObjAddr: 0xA306, symBinAddr: 0x10000AB3E, symSize: 0x1C }
  - { offset: 0x125393, size: 0x8, addend: 0x0, symName: __ZNSt3__120__shared_ptr_pointerIPNS_13__empty_stateIcEENS_10shared_ptrIS2_E27__shared_ptr_default_deleteIS2_S2_EENS_9allocatorIS2_EEE16__on_zero_sharedEv, symObjAddr: 0xA322, symBinAddr: 0x10000AB5A, symSize: 0x16 }
  - { offset: 0x1253E4, size: 0x8, addend: 0x0, symName: __ZNKSt3__120__shared_ptr_pointerIPNS_13__empty_stateIcEENS_10shared_ptrIS2_E27__shared_ptr_default_deleteIS2_S2_EENS_9allocatorIS2_EEE13__get_deleterERKSt9type_info, symObjAddr: 0xA338, symBinAddr: 0x10000AB70, symSize: 0x18 }
  - { offset: 0x125494, size: 0x8, addend: 0x0, symName: __ZNSt3__120__shared_ptr_pointerIPNS_13__empty_stateIcEENS_10shared_ptrIS2_E27__shared_ptr_default_deleteIS2_S2_EENS_9allocatorIS2_EEE21__on_zero_shared_weakEv, symObjAddr: 0xA350, symBinAddr: 0x10000AB88, symSize: 0xA }
  - { offset: 0x125583, size: 0x8, addend: 0x0, symName: __ZNSt3__113__empty_stateIcED1Ev, symObjAddr: 0xA35A, symBinAddr: 0x10000AB92, symSize: 0x24 }
  - { offset: 0x125611, size: 0x8, addend: 0x0, symName: __ZNSt3__113__empty_stateIcED0Ev, symObjAddr: 0xA37E, symBinAddr: 0x10000ABB6, symSize: 0x34 }
  - { offset: 0x1256B8, size: 0x8, addend: 0x0, symName: __ZNKSt3__113__empty_stateIcE6__execERNS_7__stateIcEE, symObjAddr: 0xA3B2, symBinAddr: 0x10000ABEA, symSize: 0x14 }
  - { offset: 0x12570D, size: 0x8, addend: 0x0, symName: __ZNSt3__116__owns_one_stateIcED1Ev, symObjAddr: 0xA3C6, symBinAddr: 0x10000ABFE, symSize: 0x24 }
  - { offset: 0x125779, size: 0x8, addend: 0x0, symName: __ZNSt3__116__owns_one_stateIcED0Ev, symObjAddr: 0xA3EA, symBinAddr: 0x10000AC22, symSize: 0x34 }
  - { offset: 0x1257F0, size: 0x8, addend: 0x0, symName: __ZNSt3__111basic_regexIcNS_12regex_traitsIcEEE12__parse_termINS_11__wrap_iterIPKcEEEET_S9_S9_, symObjAddr: 0xA508, symBinAddr: 0x10000AD40, symSize: 0x80 }
  - { offset: 0x125A3E, size: 0x8, addend: 0x0, symName: __ZNSt3__111basic_regexIcNS_12regex_traitsIcEEE17__parse_assertionINS_11__wrap_iterIPKcEEEET_S9_S9_, symObjAddr: 0xA588, symBinAddr: 0x10000ADC0, symSize: 0x248 }
  - { offset: 0x126045, size: 0x8, addend: 0x0, symName: __ZNSt3__111basic_regexIcNS_12regex_traitsIcEEE12__parse_atomINS_11__wrap_iterIPKcEEEET_S9_S9_, symObjAddr: 0xA7D0, symBinAddr: 0x10000B008, symSize: 0x196 }
  - { offset: 0x12636F, size: 0x8, addend: 0x0, symName: __ZNSt3__111basic_regexIcNS_12regex_traitsIcEEE23__parse_ERE_dupl_symbolINS_11__wrap_iterIPKcEEEET_S9_S9_PNS_16__owns_one_stateIcEEjj, symObjAddr: 0xA966, symBinAddr: 0x10000B19E, symSize: 0x32A }
  - { offset: 0x126383, size: 0x8, addend: 0x0, symName: __ZNSt3__111basic_regexIcNS_12regex_traitsIcEEE23__parse_ERE_dupl_symbolINS_11__wrap_iterIPKcEEEET_S9_S9_PNS_16__owns_one_stateIcEEjj, symObjAddr: 0xA966, symBinAddr: 0x10000B19E, symSize: 0x32A }
  - { offset: 0x126809, size: 0x8, addend: 0x0, symName: __ZNSt3__111basic_regexIcNS_12regex_traitsIcEEE20__push_word_boundaryEb, symObjAddr: 0xAC90, symBinAddr: 0x10000B4C8, symSize: 0x70 }
  - { offset: 0x126851, size: 0x8, addend: 0x0, symName: __ZNSt3__111basic_regexIcNS_12regex_traitsIcEEE16__push_lookaheadERKS3_bj, symObjAddr: 0xAD00, symBinAddr: 0x10000B538, symSize: 0x76 }
  - { offset: 0x126923, size: 0x8, addend: 0x0, symName: __ZNSt3__111basic_regexIcNS_12regex_traitsIcEEE20__push_word_boundaryEb, symObjAddr: 0xAC90, symBinAddr: 0x10000B4C8, symSize: 0x70 }
  - { offset: 0x126AF6, size: 0x8, addend: 0x0, symName: __ZNSt3__111basic_regexIcNS_12regex_traitsIcEEE26__parse_bracket_expressionINS_11__wrap_iterIPKcEEEET_S9_S9_, symObjAddr: 0xC2D2, symBinAddr: 0x10000CA9A, symSize: 0xE4 }
  - { offset: 0x126D22, size: 0x8, addend: 0x0, symName: __ZNSt3__111basic_regexIcNS_12regex_traitsIcEEE33__push_begin_marked_subexpressionEv, symObjAddr: 0xC3B6, symBinAddr: 0x10000CB7E, symSize: 0x56 }
  - { offset: 0x126D36, size: 0x8, addend: 0x0, symName: __ZNSt3__111basic_regexIcNS_12regex_traitsIcEEE19__parse_atom_escapeINS_11__wrap_iterIPKcEEEET_S9_S9_, symObjAddr: 0xC25A, symBinAddr: 0x10000CA22, symSize: 0x78 }
  - { offset: 0x126F1E, size: 0x8, addend: 0x0, symName: __ZNSt3__111basic_regexIcNS_12regex_traitsIcEEE33__push_begin_marked_subexpressionEv, symObjAddr: 0xC3B6, symBinAddr: 0x10000CB7E, symSize: 0x56 }
  - { offset: 0x126FF7, size: 0x8, addend: 0x0, symName: __ZNSt3__111basic_regexIcNS_12regex_traitsIcEEE31__push_end_marked_subexpressionEj, symObjAddr: 0xC40C, symBinAddr: 0x10000CBD4, symSize: 0x50 }
  - { offset: 0x1270E1, size: 0x8, addend: 0x0, symName: __ZNSt3__111basic_regexIcNS_12regex_traitsIcEEE25__parse_pattern_characterINS_11__wrap_iterIPKcEEEET_S9_S9_, symObjAddr: 0xC4A6, symBinAddr: 0x10000CC6E, symSize: 0x48 }
  - { offset: 0x1271F9, size: 0x8, addend: 0x0, symName: __ZNSt3__111basic_regexIcNS_12regex_traitsIcEEE17__parse_DUP_COUNTINS_11__wrap_iterIPKcEEEET_S9_S9_Ri, symObjAddr: 0x10198, symBinAddr: 0x1000106A4, symSize: 0x7D }
  - { offset: 0x1273CD, size: 0x8, addend: 0x0, symName: __ZNSt3__119__throw_regex_errorB8ne200100ILNS_15regex_constants10error_typeE8EEEvv, symObjAddr: 0x10215, symBinAddr: 0x100010721, symSize: 0x4A }
  - { offset: 0x1273E1, size: 0x8, addend: 0x0, symName: __ZNSt3__111basic_regexIcNS_12regex_traitsIcEEE11__push_loopEmmPNS_16__owns_one_stateIcEEmmb, symObjAddr: 0x1005E, symBinAddr: 0x10001056A, symSize: 0x13A }
  - { offset: 0x1279D0, size: 0x8, addend: 0x0, symName: __ZNSt3__111__lookaheadIcNS_12regex_traitsIcEEEC2B8ne200100ERKNS_11basic_regexIcS2_EEbPNS_6__nodeIcEEj, symObjAddr: 0xB096, symBinAddr: 0x10000B8CE, symSize: 0x7C }
  - { offset: 0x127BD4, size: 0x8, addend: 0x0, symName: __ZNSt3__111basic_regexIcNS_12regex_traitsIcEEED1Ev, symObjAddr: 0xADC0, symBinAddr: 0x10000B5F8, symSize: 0x20 }
  - { offset: 0x127CA4, size: 0x8, addend: 0x0, symName: __ZNSt3__120__l_anchor_multilineIcED1Ev, symObjAddr: 0xADE0, symBinAddr: 0x10000B618, symSize: 0x24 }
  - { offset: 0x127D32, size: 0x8, addend: 0x0, symName: __ZNSt3__120__l_anchor_multilineIcED0Ev, symObjAddr: 0xAE04, symBinAddr: 0x10000B63C, symSize: 0x34 }
  - { offset: 0x127DC9, size: 0x8, addend: 0x0, symName: __ZNKSt3__120__l_anchor_multilineIcE6__execERNS_7__stateIcEE, symObjAddr: 0xAE38, symBinAddr: 0x10000B670, symSize: 0x4E }
  - { offset: 0x127E2E, size: 0x8, addend: 0x0, symName: __ZNSt3__120__r_anchor_multilineIcED1Ev, symObjAddr: 0xAE86, symBinAddr: 0x10000B6BE, symSize: 0x24 }
  - { offset: 0x127EBC, size: 0x8, addend: 0x0, symName: __ZNSt3__120__r_anchor_multilineIcED0Ev, symObjAddr: 0xAEAA, symBinAddr: 0x10000B6E2, symSize: 0x34 }
  - { offset: 0x127F53, size: 0x8, addend: 0x0, symName: __ZNKSt3__120__r_anchor_multilineIcE6__execERNS_7__stateIcEE, symObjAddr: 0xAEDE, symBinAddr: 0x10000B716, symSize: 0x4E }
  - { offset: 0x127FE2, size: 0x8, addend: 0x0, symName: __ZNSt3__115__word_boundaryIcNS_12regex_traitsIcEEED1Ev, symObjAddr: 0xAF2C, symBinAddr: 0x10000B764, symSize: 0x4A }
  - { offset: 0x1280AE, size: 0x8, addend: 0x0, symName: __ZNSt3__115__word_boundaryIcNS_12regex_traitsIcEEED0Ev, symObjAddr: 0xAF76, symBinAddr: 0x10000B7AE, symSize: 0x4C }
  - { offset: 0x1281E6, size: 0x8, addend: 0x0, symName: __ZNKSt3__115__word_boundaryIcNS_12regex_traitsIcEEE6__execERNS_7__stateIcEE, symObjAddr: 0xAFC2, symBinAddr: 0x10000B7FA, symSize: 0xD4 }
  - { offset: 0x1284A0, size: 0x8, addend: 0x0, symName: __ZNSt3__111__lookaheadIcNS_12regex_traitsIcEEED1Ev, symObjAddr: 0xB112, symBinAddr: 0x10000B94A, symSize: 0x54 }
  - { offset: 0x1285D7, size: 0x8, addend: 0x0, symName: __ZNSt3__111__lookaheadIcNS_12regex_traitsIcEEED0Ev, symObjAddr: 0xB166, symBinAddr: 0x10000B99E, symSize: 0x56 }
  - { offset: 0x1289F9, size: 0x8, addend: 0x0, symName: __ZNKSt3__111__lookaheadIcNS_12regex_traitsIcEEE6__execERNS_7__stateIcEE, symObjAddr: 0xB1BC, symBinAddr: 0x10000B9F4, symSize: 0x188 }
  - { offset: 0x128F98, size: 0x8, addend: 0x0, symName: __ZNSt3__16vectorINS_9sub_matchIPKcEENS_9allocatorIS4_EEE6assignEmRKS4_, symObjAddr: 0xB784, symBinAddr: 0x10000BFBC, symSize: 0x16A }
  - { offset: 0x1295D8, size: 0x8, addend: 0x0, symName: __ZNSt3__16vectorINS_9sub_matchIPKcEENS_9allocatorIS4_EEE11__vallocateB8ne200100Em, symObjAddr: 0xB8EE, symBinAddr: 0x10000C126, symSize: 0x3C }
  - { offset: 0x1295E9, size: 0x8, addend: 0x0, symName: __ZNKSt3__111basic_regexIcNS_12regex_traitsIcEEE21__match_at_start_ecmaINS_9allocatorINS_9sub_matchIPKcEEEEEEbS8_S8_RNS_13match_resultsIS8_T_EENS_15regex_constants15match_flag_typeEb, symObjAddr: 0xB3A2, symBinAddr: 0x10000BBDA, symSize: 0x3E2 }
  - { offset: 0x12A2FF, size: 0x8, addend: 0x0, symName: __ZNSt3__113match_resultsIPKcNS_9allocatorINS_9sub_matchIS2_EEEEE6__initEjS2_S2_b, symObjAddr: 0xB344, symBinAddr: 0x10000BB7C, symSize: 0x5E }
  - { offset: 0x12A7DF, size: 0x8, addend: 0x0, symName: __ZNSt3__16vectorINS_7__stateIcEENS_9allocatorIS2_EEE9push_backB8ne200100EOS2_, symObjAddr: 0xB972, symBinAddr: 0x10000C172, symSize: 0x90 }
  - { offset: 0x12AA06, size: 0x8, addend: 0x0, symName: __ZNSt3__16vectorINS_9sub_matchIPKcEENS_9allocatorIS4_EEE6resizeEmRKS4_, symObjAddr: 0xBA3C, symBinAddr: 0x10000C23C, symSize: 0x42 }
  - { offset: 0x12AAD9, size: 0x8, addend: 0x0, symName: __ZNSt3__16vectorINS_4pairImPKcEENS_9allocatorIS4_EEE6resizeEm, symObjAddr: 0xBA7E, symBinAddr: 0x10000C27E, symSize: 0x32 }
  - { offset: 0x12AB9D, size: 0x8, addend: 0x0, symName: __ZNSt3__16vectorINS_9sub_matchIPKcEENS_9allocatorIS4_EEE16__init_with_sizeB8ne200100IPS4_S9_EEvT_T0_m, symObjAddr: 0xC0FA, symBinAddr: 0x10000C8C2, symSize: 0x6E }
  - { offset: 0x12AEC4, size: 0x8, addend: 0x0, symName: __ZNSt3__16vectorINS_4pairImPKcEENS_9allocatorIS4_EEE16__init_with_sizeB8ne200100IPS4_S9_EEvT_T0_m, symObjAddr: 0xC168, symBinAddr: 0x10000C930, symSize: 0x66 }
  - { offset: 0x12B1EB, size: 0x8, addend: 0x0, symName: __ZNSt3__16vectorINS_7__stateIcEENS_9allocatorIS2_EEE16__destroy_vectorclB8ne200100Ev, symObjAddr: 0xC204, symBinAddr: 0x10000C9CC, symSize: 0x56 }
  - { offset: 0x12B33D, size: 0x8, addend: 0x0, symName: __ZNSt3__17__stateIcED1Ev, symObjAddr: 0xBA02, symBinAddr: 0x10000C202, symSize: 0x3A }
  - { offset: 0x12B812, size: 0x8, addend: 0x0, symName: __ZNSt3__16vectorINS_9sub_matchIPKcEENS_9allocatorIS4_EEE11__vallocateB8ne200100Em, symObjAddr: 0xB8EE, symBinAddr: 0x10000C126, symSize: 0x3C }
  - { offset: 0x12B86C, size: 0x8, addend: 0x0, symName: __ZNSt3__16vectorINS_9sub_matchIPKcEENS_9allocatorIS4_EEE20__throw_length_errorB8ne200100Ev, symObjAddr: 0xB92A, symBinAddr: 0x10000C162, symSize: 0x10 }
  - { offset: 0x12B877, size: 0x8, addend: 0x0, symName: __ZNSt3__16vectorINS_9sub_matchIPKcEENS_9allocatorIS4_EEE20__throw_length_errorB8ne200100Ev, symObjAddr: 0xB92A, symBinAddr: 0x10000C162, symSize: 0x10 }
  - { offset: 0x12BA78, size: 0x8, addend: 0x0, symName: __ZNSt3__16vectorINS_7__stateIcEENS_9allocatorIS2_EEE24__emplace_back_slow_pathIJS2_EEEPS2_DpOT_, symObjAddr: 0xBB44, symBinAddr: 0x10000C344, symSize: 0x190 }
  - { offset: 0x12BE99, size: 0x8, addend: 0x0, symName: __ZNSt3__16vectorINS_9sub_matchIPKcEENS_9allocatorIS4_EEE8__appendEmRKS4_, symObjAddr: 0xBE46, symBinAddr: 0x10000C60E, symSize: 0x170 }
  - { offset: 0x12C442, size: 0x8, addend: 0x0, symName: __ZNSt3__16vectorINS_4pairImPKcEENS_9allocatorIS4_EEE8__appendEm, symObjAddr: 0xBFB6, symBinAddr: 0x10000C77E, symSize: 0x106 }
  - { offset: 0x12C898, size: 0x8, addend: 0x0, symName: __ZNSt3__16vectorINS_4pairImPKcEENS_9allocatorIS4_EEE20__throw_length_errorB8ne200100Ev, symObjAddr: 0xC0BC, symBinAddr: 0x10000C884, symSize: 0x10 }
  - { offset: 0x12C9E3, size: 0x8, addend: 0x0, symName: __ZNSt3__114__split_bufferINS_7__stateIcEERNS_9allocatorIS2_EEED2Ev, symObjAddr: 0xBE06, symBinAddr: 0x10000C5CE, symSize: 0x40 }
  - { offset: 0x12CB27, size: 0x8, addend: 0x0, symName: __ZNSt3__16vectorINS_7__stateIcEENS_9allocatorIS2_EEE20__throw_length_errorB8ne200100Ev, symObjAddr: 0xBCD4, symBinAddr: 0x10000C4D4, symSize: 0x10 }
  - { offset: 0x12CB3F, size: 0x8, addend: 0x0, symName: __ZNSt3__119__allocate_at_leastB8ne200100INS_9allocatorINS_7__stateIcEEEEEENS_19__allocation_resultINS_16allocator_traitsIT_E7pointerEEERS7_m, symObjAddr: 0xBCE4, symBinAddr: 0x10000C4E4, symSize: 0x37 }
  - { offset: 0x12D0CD, size: 0x8, addend: 0x0, symName: __ZNSt3__16vectorINS_4pairImPKcEENS_9allocatorIS4_EEE20__throw_length_errorB8ne200100Ev, symObjAddr: 0xC0BC, symBinAddr: 0x10000C884, symSize: 0x10 }
  - { offset: 0x12D0E5, size: 0x8, addend: 0x0, symName: __ZNSt3__119__allocate_at_leastB8ne200100INS_9allocatorINS_4pairImPKcEEEEEENS_19__allocation_resultINS_16allocator_traitsIT_E7pointerEEERS9_m, symObjAddr: 0xC0CC, symBinAddr: 0x10000C894, symSize: 0x2E }
  - { offset: 0x12D359, size: 0x8, addend: 0x0, symName: __ZNSt3__16vectorINS_4pairImPKcEENS_9allocatorIS4_EEE11__vallocateB8ne200100Em, symObjAddr: 0xC1CE, symBinAddr: 0x10000C996, symSize: 0x36 }
  - { offset: 0x12D3E1, size: 0x8, addend: 0x0, symName: __ZNSt3__111basic_regexIcNS_12regex_traitsIcEEE22__parse_decimal_escapeINS_11__wrap_iterIPKcEEEET_S9_S9_, symObjAddr: 0xC590, symBinAddr: 0x10000CD58, symSize: 0x78 }
  - { offset: 0x12D4AF, size: 0x8, addend: 0x0, symName: __ZNSt3__111basic_regexIcNS_12regex_traitsIcEEE30__parse_character_class_escapeINS_11__wrap_iterIPKcEEEET_S9_S9_, symObjAddr: 0xC608, symBinAddr: 0x10000CDD0, symSize: 0x92 }
  - { offset: 0x12D4C3, size: 0x8, addend: 0x0, symName: __ZNSt3__111basic_regexIcNS_12regex_traitsIcEEE30__parse_character_class_escapeINS_11__wrap_iterIPKcEEEET_S9_S9_, symObjAddr: 0xC608, symBinAddr: 0x10000CDD0, symSize: 0x92 }
  - { offset: 0x12D5A3, size: 0x8, addend: 0x0, symName: __ZNSt3__111basic_regexIcNS_12regex_traitsIcEEE24__parse_character_escapeINS_11__wrap_iterIPKcEEEET_S9_S9_PNS_12basic_stringIcNS_11char_traitsIcEENS_9allocatorIcEEEE, symObjAddr: 0xC69A, symBinAddr: 0x10000CE62, symSize: 0x46A }
  - { offset: 0x12E458, size: 0x8, addend: 0x0, symName: __ZNSt3__111basic_regexIcNS_12regex_traitsIcEEE21__start_matching_listEb, symObjAddr: 0xD30A, symBinAddr: 0x10000DAD2, symSize: 0x74 }
  - { offset: 0x12E56A, size: 0x8, addend: 0x0, symName: __ZNSt3__120__bracket_expressionIcNS_12regex_traitsIcEEE10__add_charB8ne200100Ec, symObjAddr: 0xD37E, symBinAddr: 0x10000DB46, symSize: 0x62 }
  - { offset: 0x12E620, size: 0x8, addend: 0x0, symName: __ZNSt3__111basic_regexIcNS_12regex_traitsIcEEE23__parse_expression_termINS_11__wrap_iterIPKcEEEET_S9_S9_PNS_20__bracket_expressionIcS2_EE, symObjAddr: 0xE5A2, symBinAddr: 0x10000EBCE, symSize: 0x3BE }
  - { offset: 0x12F835, size: 0x8, addend: 0x0, symName: __ZNSt3__111basic_regexIcNS_12regex_traitsIcEEE11__push_charEc, symObjAddr: 0xCB04, symBinAddr: 0x10000D2CC, symSize: 0xE1 }
  - { offset: 0x12FAC3, size: 0x8, addend: 0x0, symName: __ZNSt3__123__match_any_but_newlineIcED1Ev, symObjAddr: 0xC4EE, symBinAddr: 0x10000CCB6, symSize: 0x24 }
  - { offset: 0x12FB51, size: 0x8, addend: 0x0, symName: __ZNSt3__123__match_any_but_newlineIcED0Ev, symObjAddr: 0xC512, symBinAddr: 0x10000CCDA, symSize: 0x34 }
  - { offset: 0x12FBE8, size: 0x8, addend: 0x0, symName: __ZNSt3__111basic_regexIcNS_12regex_traitsIcEEE15__push_back_refEi, symObjAddr: 0xCC30, symBinAddr: 0x10000D3F8, symSize: 0xCA }
  - { offset: 0x1300F1, size: 0x8, addend: 0x0, symName: __ZNSt3__118__match_char_icaseIcNS_12regex_traitsIcEEEC2B8ne200100ERKS2_cPNS_6__nodeIcEE, symObjAddr: 0xCCFA, symBinAddr: 0x10000D4C2, symSize: 0x86 }
  - { offset: 0x1304B3, size: 0x8, addend: 0x0, symName: __ZNSt3__118__match_char_icaseIcNS_12regex_traitsIcEEED1Ev, symObjAddr: 0xCD80, symBinAddr: 0x10000D548, symSize: 0x4A }
  - { offset: 0x13057F, size: 0x8, addend: 0x0, symName: __ZNSt3__118__match_char_icaseIcNS_12regex_traitsIcEEED0Ev, symObjAddr: 0xCDCA, symBinAddr: 0x10000D592, symSize: 0x4C }
  - { offset: 0x130654, size: 0x8, addend: 0x0, symName: __ZNKSt3__118__match_char_icaseIcNS_12regex_traitsIcEEE6__execERNS_7__stateIcEE, symObjAddr: 0xCE16, symBinAddr: 0x10000D5DE, symSize: 0x4C }
  - { offset: 0x130714, size: 0x8, addend: 0x0, symName: __ZNSt3__120__match_char_collateIcNS_12regex_traitsIcEEED1Ev, symObjAddr: 0xCE62, symBinAddr: 0x10000D62A, symSize: 0x4A }
  - { offset: 0x1307E0, size: 0x8, addend: 0x0, symName: __ZNSt3__120__match_char_collateIcNS_12regex_traitsIcEEED0Ev, symObjAddr: 0xCEAC, symBinAddr: 0x10000D674, symSize: 0x4C }
  - { offset: 0x1308B5, size: 0x8, addend: 0x0, symName: __ZNKSt3__120__match_char_collateIcNS_12regex_traitsIcEEE6__execERNS_7__stateIcEE, symObjAddr: 0xCEF8, symBinAddr: 0x10000D6C0, symSize: 0x36 }
  - { offset: 0x130925, size: 0x8, addend: 0x0, symName: __ZNSt3__112__match_charIcED1Ev, symObjAddr: 0xCF2E, symBinAddr: 0x10000D6F6, symSize: 0x24 }
  - { offset: 0x1309B3, size: 0x8, addend: 0x0, symName: __ZNSt3__112__match_charIcED0Ev, symObjAddr: 0xCF52, symBinAddr: 0x10000D71A, symSize: 0x34 }
  - { offset: 0x130A4A, size: 0x8, addend: 0x0, symName: __ZNKSt3__112__match_charIcE6__execERNS_7__stateIcEE, symObjAddr: 0xCF86, symBinAddr: 0x10000D74E, symSize: 0x36 }
  - { offset: 0x130ABA, size: 0x8, addend: 0x0, symName: __ZNSt3__116__back_ref_icaseIcNS_12regex_traitsIcEEED1Ev, symObjAddr: 0xCFBC, symBinAddr: 0x10000D784, symSize: 0x4A }
  - { offset: 0x130B86, size: 0x8, addend: 0x0, symName: __ZNSt3__116__back_ref_icaseIcNS_12regex_traitsIcEEED0Ev, symObjAddr: 0xD006, symBinAddr: 0x10000D7CE, symSize: 0x4C }
  - { offset: 0x130C5B, size: 0x8, addend: 0x0, symName: __ZNKSt3__116__back_ref_icaseIcNS_12regex_traitsIcEEE6__execERNS_7__stateIcEE, symObjAddr: 0xD052, symBinAddr: 0x10000D81A, symSize: 0xBA }
  - { offset: 0x130DDB, size: 0x8, addend: 0x0, symName: __ZNSt3__118__back_ref_collateIcNS_12regex_traitsIcEEED1Ev, symObjAddr: 0xD10C, symBinAddr: 0x10000D8D4, symSize: 0x4A }
  - { offset: 0x130EA7, size: 0x8, addend: 0x0, symName: __ZNSt3__118__back_ref_collateIcNS_12regex_traitsIcEEED0Ev, symObjAddr: 0xD156, symBinAddr: 0x10000D91E, symSize: 0x4C }
  - { offset: 0x130F7C, size: 0x8, addend: 0x0, symName: __ZNKSt3__118__back_ref_collateIcNS_12regex_traitsIcEEE6__execERNS_7__stateIcEE, symObjAddr: 0xD1A2, symBinAddr: 0x10000D96A, symSize: 0x72 }
  - { offset: 0x13105E, size: 0x8, addend: 0x0, symName: __ZNSt3__110__back_refIcED1Ev, symObjAddr: 0xD214, symBinAddr: 0x10000D9DC, symSize: 0x24 }
  - { offset: 0x1310EC, size: 0x8, addend: 0x0, symName: __ZNSt3__110__back_refIcED0Ev, symObjAddr: 0xD238, symBinAddr: 0x10000DA00, symSize: 0x34 }
  - { offset: 0x131189, size: 0x8, addend: 0x0, symName: __ZNKSt3__110__back_refIcE6__execERNS_7__stateIcEE, symObjAddr: 0xD26C, symBinAddr: 0x10000DA34, symSize: 0x9E }
  - { offset: 0x131385, size: 0x8, addend: 0x0, symName: __ZNSt3__120__bracket_expressionIcNS_12regex_traitsIcEEEC2B8ne200100ERKS2_PNS_6__nodeIcEEbbb, symObjAddr: 0xD3E0, symBinAddr: 0x10000DBA8, symSize: 0x19D }
  - { offset: 0x131C29, size: 0x8, addend: 0x0, symName: __ZNSt3__16vectorIcNS_9allocatorIcEEE9push_backB8ne200100EOc, symObjAddr: 0xE398, symBinAddr: 0x10000EA9C, symSize: 0xD8 }
  - { offset: 0x1325FF, size: 0x8, addend: 0x0, symName: __ZNSt3__16vectorINS_4pairINS_12basic_stringIcNS_11char_traitsIcEENS_9allocatorIcEEEES7_EENS5_IS8_EEE16__destroy_vectorclB8ne200100Ev, symObjAddr: 0xDE7C, symBinAddr: 0x10000E644, symSize: 0x56 }
  - { offset: 0x13276E, size: 0x8, addend: 0x0, symName: __ZNSt3__120__bracket_expressionIcNS_12regex_traitsIcEEED1Ev, symObjAddr: 0xD5E2, symBinAddr: 0x10000DDAA, symSize: 0x9E }
  - { offset: 0x132D2E, size: 0x8, addend: 0x0, symName: __ZNSt3__120__bracket_expressionIcNS_12regex_traitsIcEEED0Ev, symObjAddr: 0xD680, symBinAddr: 0x10000DE48, symSize: 0xA6 }
  - { offset: 0x133575, size: 0x8, addend: 0x0, symName: __ZNKSt3__120__bracket_expressionIcNS_12regex_traitsIcEEE6__execERNS_7__stateIcEE, symObjAddr: 0xD726, symBinAddr: 0x10000DEEE, symSize: 0x756 }
  - { offset: 0x1348FA, size: 0x8, addend: 0x0, symName: __ZNKSt3__112regex_traitsIcE20__lookup_collatenameIPcEENS_12basic_stringIcNS_11char_traitsIcEENS_9allocatorIcEEEET_SA_c, symObjAddr: 0xE02E, symBinAddr: 0x10000E7C2, symSize: 0x170 }
  - { offset: 0x135325, size: 0x8, addend: 0x0, symName: __ZNKSt3__112regex_traitsIcE9transformIPcEENS_12basic_stringIcNS_11char_traitsIcEENS_9allocatorIcEEEET_SA_, symObjAddr: 0xDF3A, symBinAddr: 0x10000E6CE, symSize: 0x8E }
  - { offset: 0x13577B, size: 0x8, addend: 0x0, symName: __ZNKSt3__112regex_traitsIcE19__transform_primaryIPcEENS_12basic_stringIcNS_11char_traitsIcEENS_9allocatorIcEEEET_SA_c, symObjAddr: 0xE22E, symBinAddr: 0x10000E932, symSize: 0xE6 }
  - { offset: 0x136328, size: 0x8, addend: 0x0, symName: __ZNSt3__112basic_stringIcNS_11char_traitsIcEENS_9allocatorIcEEEC2B8ne200100Emc, symObjAddr: 0xE314, symBinAddr: 0x10000EA18, symSize: 0x84 }
  - { offset: 0x1365D3, size: 0x8, addend: 0x0, symName: __ZNSt3__16vectorIcNS_9allocatorIcEEE9push_backB8ne200100EOc, symObjAddr: 0xE398, symBinAddr: 0x10000EA9C, symSize: 0xD8 }
  - { offset: 0x136857, size: 0x8, addend: 0x0, symName: __ZNSt3__16vectorIcNS_9allocatorIcEEE20__throw_length_errorB8ne200100Ev, symObjAddr: 0xE548, symBinAddr: 0x10000EB74, symSize: 0x10 }
  - { offset: 0x13686F, size: 0x8, addend: 0x0, symName: __ZNSt3__119__throw_regex_errorB8ne200100ILNS_15regex_constants10error_typeE5EEEvv, symObjAddr: 0xE558, symBinAddr: 0x10000EB84, symSize: 0x4A }
  - { offset: 0x13696C, size: 0x8, addend: 0x0, symName: __ZNSt3__111basic_regexIcNS_12regex_traitsIcEEE25__parse_equivalence_classINS_11__wrap_iterIPKcEEEET_S9_S9_PNS_20__bracket_expressionIcS2_EE, symObjAddr: 0xE960, symBinAddr: 0x10000EF8C, symSize: 0x1B2 }
  - { offset: 0x13741D, size: 0x8, addend: 0x0, symName: __ZNSt3__111basic_regexIcNS_12regex_traitsIcEEE18__parse_awk_escapeINS_11__wrap_iterIPKcEEEET_S9_S9_PNS_12basic_stringIcNS_11char_traitsIcEENS_9allocatorIcEEEE, symObjAddr: 0xED46, symBinAddr: 0x10000F372, symSize: 0x2FE }
  - { offset: 0x137DD8, size: 0x8, addend: 0x0, symName: __ZNSt3__111basic_regexIcNS_12regex_traitsIcEEE23__parse_character_classINS_11__wrap_iterIPKcEEEET_S9_S9_PNS_20__bracket_expressionIcS2_EE, symObjAddr: 0xEB12, symBinAddr: 0x10000F13E, symSize: 0x70 }
  - { offset: 0x138145, size: 0x8, addend: 0x0, symName: __ZNSt3__111basic_regexIcNS_12regex_traitsIcEEE24__parse_collating_symbolINS_11__wrap_iterIPKcEEEET_S9_S9_RNS_12basic_stringIcNS_11char_traitsIcEENS_9allocatorIcEEEE, symObjAddr: 0xEB82, symBinAddr: 0x10000F1AE, symSize: 0xAE }
  - { offset: 0x1385AE, size: 0x8, addend: 0x0, symName: __ZNSt3__120__bracket_expressionIcNS_12regex_traitsIcEEE13__add_digraphB8ne200100Ecc, symObjAddr: 0xF3EE, symBinAddr: 0x10000FA1A, symSize: 0x93 }
  - { offset: 0x1386D9, size: 0x8, addend: 0x0, symName: __ZNSt3__111basic_regexIcNS_12regex_traitsIcEEE20__parse_class_escapeINS_11__wrap_iterIPKcEEEET_S9_S9_RNS_12basic_stringIcNS_11char_traitsIcEENS_9allocatorIcEEEEPNS_20__bracket_expressionIcS2_EE, symObjAddr: 0xEC30, symBinAddr: 0x10000F25C, symSize: 0x116 }
  - { offset: 0x138AC1, size: 0x8, addend: 0x0, symName: __ZNSt3__111basic_regexIcNS_12regex_traitsIcEEE18__parse_awk_escapeINS_11__wrap_iterIPKcEEEET_S9_S9_PNS_12basic_stringIcNS_11char_traitsIcEENS_9allocatorIcEEEE, symObjAddr: 0xED46, symBinAddr: 0x10000F372, symSize: 0x2FE }
  - { offset: 0x138AD5, size: 0x8, addend: 0x0, symName: __ZNSt3__120__bracket_expressionIcNS_12regex_traitsIcEEE11__add_rangeB8ne200100ENS_12basic_stringIcNS_11char_traitsIcEENS_9allocatorIcEEEES9_, symObjAddr: 0xF044, symBinAddr: 0x10000F670, symSize: 0x3AA }
  - { offset: 0x13A295, size: 0x8, addend: 0x0, symName: __ZNKSt3__112regex_traitsIcE20__lookup_collatenameINS_11__wrap_iterIPKcEEEENS_12basic_stringIcNS_11char_traitsIcEENS_9allocatorIcEEEET_SD_c, symObjAddr: 0xF4CC, symBinAddr: 0x10000FAF8, symSize: 0x170 }
  - { offset: 0x13ACD5, size: 0x8, addend: 0x0, symName: __ZNKSt3__112regex_traitsIcE19__transform_primaryINS_11__wrap_iterIPcEEEENS_12basic_stringIcNS_11char_traitsIcEENS_9allocatorIcEEEET_SC_c, symObjAddr: 0xF6CC, symBinAddr: 0x10000FC68, symSize: 0xE6 }
  - { offset: 0x13B28D, size: 0x8, addend: 0x0, symName: __ZNSt3__16vectorINS_12basic_stringIcNS_11char_traitsIcEENS_9allocatorIcEEEENS4_IS6_EEE9push_backB8ne200100ERKS6_, symObjAddr: 0xF842, symBinAddr: 0x10000FD4E, symSize: 0x36 }
  - { offset: 0x13B367, size: 0x8, addend: 0x0, symName: __ZNKSt3__112regex_traitsIcE18__lookup_classnameINS_11__wrap_iterIPKcEEEEjT_S7_bc, symObjAddr: 0xFA5E, symBinAddr: 0x10000FF6A, symSize: 0x9A }
  - { offset: 0x13B897, size: 0x8, addend: 0x0, symName: __ZNSt3__120__bracket_expressionIcNS_12regex_traitsIcEEE14__add_neg_charB8ne200100Ec, symObjAddr: 0xFAF8, symBinAddr: 0x100010004, symSize: 0x62 }
  - { offset: 0x13BA06, size: 0x8, addend: 0x0, symName: __ZNKSt3__112regex_traitsIcE9transformINS_11__wrap_iterIPcEEEENS_12basic_stringIcNS_11char_traitsIcEENS_9allocatorIcEEEET_SC_, symObjAddr: 0xFCE4, symBinAddr: 0x1000101F0, symSize: 0x8E }
  - { offset: 0x13BE71, size: 0x8, addend: 0x0, symName: __ZNSt3__16vectorINS_4pairINS_12basic_stringIcNS_11char_traitsIcEENS_9allocatorIcEEEES7_EENS5_IS8_EEE9push_backB8ne200100EOS8_, symObjAddr: 0xFB5A, symBinAddr: 0x100010066, symSize: 0x18A }
  - { offset: 0x13C3FD, size: 0x8, addend: 0x0, symName: __ZNKSt3__112regex_traitsIcE9transformINS_11__wrap_iterIPcEEEENS_12basic_stringIcNS_11char_traitsIcEENS_9allocatorIcEEEET_SC_, symObjAddr: 0xFCE4, symBinAddr: 0x1000101F0, symSize: 0x8E }
  - { offset: 0x13C408, size: 0x8, addend: 0x0, symName: __ZNSt3__16vectorINS_4pairIccEENS_9allocatorIS2_EEE9push_backB8ne200100EOS2_, symObjAddr: 0xFE44, symBinAddr: 0x100010350, symSize: 0xDA }
  - { offset: 0x13C846, size: 0x8, addend: 0x0, symName: __ZNSt3__16vectorINS_4pairIccEENS_9allocatorIS2_EEE20__throw_length_errorB8ne200100Ev, symObjAddr: 0xFF1E, symBinAddr: 0x10001042A, symSize: 0x10 }
  - { offset: 0x13CE59, size: 0x8, addend: 0x0, symName: __ZNSt3__16vectorINS_12basic_stringIcNS_11char_traitsIcEENS_9allocatorIcEEEENS4_IS6_EEE22__construct_one_at_endB8ne200100IJRKS6_EEEvDpOT_, symObjAddr: 0xF878, symBinAddr: 0x10000FD84, symSize: 0x4E }
  - { offset: 0x13D07A, size: 0x8, addend: 0x0, symName: __ZNSt3__16vectorINS_12basic_stringIcNS_11char_traitsIcEENS_9allocatorIcEEEENS4_IS6_EEE24__emplace_back_slow_pathIJRKS6_EEEPS6_DpOT_, symObjAddr: 0xF8C6, symBinAddr: 0x10000FDD2, symSize: 0x14D }
  - { offset: 0x13D824, size: 0x8, addend: 0x0, symName: __ZNSt3__114__split_bufferINS_4pairINS_12basic_stringIcNS_11char_traitsIcEENS_9allocatorIcEEEES7_EERNS5_IS8_EEED2Ev, symObjAddr: 0xFE04, symBinAddr: 0x100010310, symSize: 0x40 }
  - { offset: 0x13D96A, size: 0x8, addend: 0x0, symName: __ZNSt3__16vectorINS_4pairINS_12basic_stringIcNS_11char_traitsIcEENS_9allocatorIcEEEES7_EENS5_IS8_EEE20__throw_length_errorB8ne200100Ev, symObjAddr: 0xFDBC, symBinAddr: 0x1000102C8, symSize: 0x10 }
  - { offset: 0x13D982, size: 0x8, addend: 0x0, symName: __ZNSt3__119__allocate_at_leastB8ne200100INS_9allocatorINS_4pairINS_12basic_stringIcNS_11char_traitsIcEENS1_IcEEEES7_EEEEEENS_19__allocation_resultINS_16allocator_traitsIT_E7pointerEEERSC_m, symObjAddr: 0xFDCC, symBinAddr: 0x1000102D8, symSize: 0x38 }
  - { offset: 0x13DC8E, size: 0x8, addend: 0x0, symName: __ZNSt3__16vectorINS_4pairIccEENS_9allocatorIS2_EEE20__throw_length_errorB8ne200100Ev, symObjAddr: 0xFF1E, symBinAddr: 0x10001042A, symSize: 0x10 }
  - { offset: 0x13DCA6, size: 0x8, addend: 0x0, symName: __ZNSt3__119__allocate_at_leastB8ne200100INS_9allocatorINS_4pairIccEEEEEENS_19__allocation_resultINS_16allocator_traitsIT_E7pointerEEERS7_m, symObjAddr: 0xFF2E, symBinAddr: 0x10001043A, symSize: 0x26 }
  - { offset: 0x13DCEF, size: 0x8, addend: 0x0, symName: __ZNSt3__128__begin_marked_subexpressionIcED1Ev, symObjAddr: 0xFF54, symBinAddr: 0x100010460, symSize: 0x24 }
  - { offset: 0x13DD7D, size: 0x8, addend: 0x0, symName: __ZNSt3__128__begin_marked_subexpressionIcED0Ev, symObjAddr: 0xFF78, symBinAddr: 0x100010484, symSize: 0x34 }
  - { offset: 0x13DE14, size: 0x8, addend: 0x0, symName: __ZNKSt3__128__begin_marked_subexpressionIcE6__execERNS_7__stateIcEE, symObjAddr: 0xFFAC, symBinAddr: 0x1000104B8, symSize: 0x2A }
  - { offset: 0x13DEAD, size: 0x8, addend: 0x0, symName: __ZNSt3__126__end_marked_subexpressionIcED1Ev, symObjAddr: 0xFFD6, symBinAddr: 0x1000104E2, symSize: 0x24 }
  - { offset: 0x13DF3B, size: 0x8, addend: 0x0, symName: __ZNSt3__126__end_marked_subexpressionIcED0Ev, symObjAddr: 0xFFFA, symBinAddr: 0x100010506, symSize: 0x34 }
  - { offset: 0x13DFD2, size: 0x8, addend: 0x0, symName: __ZNKSt3__126__end_marked_subexpressionIcE6__execERNS_7__stateIcEE, symObjAddr: 0x1002E, symBinAddr: 0x10001053A, symSize: 0x30 }
  - { offset: 0x13E2AE, size: 0x8, addend: 0x0, symName: __ZNSt3__16__loopIcED0Ev, symObjAddr: 0x102FA, symBinAddr: 0x100010806, symSize: 0x52 }
  - { offset: 0x13E3A7, size: 0x8, addend: 0x0, symName: __ZNSt3__16__loopIcED1Ev, symObjAddr: 0x102AA, symBinAddr: 0x1000107B6, symSize: 0x50 }
  - { offset: 0x13E49F, size: 0x8, addend: 0x0, symName: __ZNKSt3__16__loopIcE6__execERNS_7__stateIcEE, symObjAddr: 0x1034C, symBinAddr: 0x100010858, symSize: 0xB0 }
  - { offset: 0x13E567, size: 0x8, addend: 0x0, symName: __ZNKSt3__16__loopIcE13__init_repeatB8ne200100ERNS_7__stateIcEE, symObjAddr: 0x104CA, symBinAddr: 0x1000109D6, symSize: 0x54 }
  - { offset: 0x13E5E6, size: 0x8, addend: 0x0, symName: __ZNKSt3__16__loopIcE12__exec_splitEbRNS_7__stateIcEE, symObjAddr: 0x103FC, symBinAddr: 0x100010908, symSize: 0x2C }
  - { offset: 0x13E677, size: 0x8, addend: 0x0, symName: __ZNSt3__117__owns_two_statesIcED1Ev, symObjAddr: 0x10428, symBinAddr: 0x100010934, symSize: 0x50 }
  - { offset: 0x13E70E, size: 0x8, addend: 0x0, symName: __ZNSt3__117__owns_two_statesIcED0Ev, symObjAddr: 0x10478, symBinAddr: 0x100010984, symSize: 0x52 }
  - { offset: 0x13E7AE, size: 0x8, addend: 0x0, symName: __ZNSt3__117__repeat_one_loopIcED1Ev, symObjAddr: 0x1051E, symBinAddr: 0x100010A2A, symSize: 0x6 }
  - { offset: 0x13E7DA, size: 0x8, addend: 0x0, symName: __ZNSt3__117__repeat_one_loopIcED0Ev, symObjAddr: 0x10524, symBinAddr: 0x100010A30, symSize: 0xA }
  - { offset: 0x13E806, size: 0x8, addend: 0x0, symName: __ZNKSt3__117__repeat_one_loopIcE6__execERNS_7__stateIcEE, symObjAddr: 0x1052E, symBinAddr: 0x100010A3A, symSize: 0x14 }
  - { offset: 0x13E876, size: 0x8, addend: 0x0, symName: __ZNSt3__111__alternateIcED1Ev, symObjAddr: 0x10542, symBinAddr: 0x100010A4E, symSize: 0x50 }
  - { offset: 0x13E931, size: 0x8, addend: 0x0, symName: __ZNSt3__111__alternateIcED0Ev, symObjAddr: 0x10592, symBinAddr: 0x100010A9E, symSize: 0x52 }
  - { offset: 0x13E9F3, size: 0x8, addend: 0x0, symName: __ZNKSt3__111__alternateIcE6__execERNS_7__stateIcEE, symObjAddr: 0x105E4, symBinAddr: 0x100010AF0, symSize: 0xC }
  - { offset: 0x13EA27, size: 0x8, addend: 0x0, symName: __ZNKSt3__111__alternateIcE12__exec_splitEbRNS_7__stateIcEE, symObjAddr: 0x105F0, symBinAddr: 0x100010AFC, symSize: 0x18 }
  - { offset: 0x13EA76, size: 0x8, addend: 0x0, symName: __ZNSt3__121__empty_non_own_stateIcED1Ev, symObjAddr: 0x10608, symBinAddr: 0x100010B14, symSize: 0x6 }
  - { offset: 0x13EAA2, size: 0x8, addend: 0x0, symName: __ZNSt3__121__empty_non_own_stateIcED0Ev, symObjAddr: 0x1060E, symBinAddr: 0x100010B1A, symSize: 0xA }
  - { offset: 0x13EACE, size: 0x8, addend: 0x0, symName: __ZNKSt3__121__empty_non_own_stateIcE6__execERNS_7__stateIcEE, symObjAddr: 0x10618, symBinAddr: 0x100010B24, symSize: 0x14 }
  - { offset: 0x13EB21, size: 0x8, addend: 0x0, symName: __ZNSt3__111basic_regexIcNS_12regex_traitsIcEEE21__parse_RE_expressionINS_11__wrap_iterIPKcEEEET_S9_S9_, symObjAddr: 0x1062C, symBinAddr: 0x100010B38, symSize: 0x37 }
  - { offset: 0x13EBA4, size: 0x8, addend: 0x0, symName: __ZNSt3__111basic_regexIcNS_12regex_traitsIcEEE18__parse_nondupl_REINS_11__wrap_iterIPKcEEEET_S9_S9_, symObjAddr: 0x1071E, symBinAddr: 0x100010C2A, symSize: 0xAC }
  - { offset: 0x13EE9B, size: 0x8, addend: 0x0, symName: __ZNSt3__111basic_regexIcNS_12regex_traitsIcEEE22__parse_RE_dupl_symbolINS_11__wrap_iterIPKcEEEET_S9_S9_PNS_16__owns_one_stateIcEEjj, symObjAddr: 0x107CA, symBinAddr: 0x100010CD6, symSize: 0x1AC }
  - { offset: 0x13EEAF, size: 0x8, addend: 0x0, symName: __ZNSt3__111basic_regexIcNS_12regex_traitsIcEEE22__parse_RE_dupl_symbolINS_11__wrap_iterIPKcEEEET_S9_S9_PNS_16__owns_one_stateIcEEjj, symObjAddr: 0x107CA, symBinAddr: 0x100010CD6, symSize: 0x1AC }
  - { offset: 0x13F40B, size: 0x8, addend: 0x0, symName: __ZNSt3__111basic_regexIcNS_12regex_traitsIcEEE32__parse_one_char_or_coll_elem_REINS_11__wrap_iterIPKcEEEET_S9_S9_, symObjAddr: 0x10976, symBinAddr: 0x100010E82, symSize: 0xF0 }
  - { offset: 0x13F6AD, size: 0x8, addend: 0x0, symName: __ZNSt3__111basic_regexIcNS_12regex_traitsIcEEE15__test_back_refEc, symObjAddr: 0x10B40, symBinAddr: 0x10001104C, symSize: 0x42 }
  - { offset: 0x13F7AA, size: 0x8, addend: 0x0, symName: __ZNSt3__111basic_regexIcNS_12regex_traitsIcEEE18__parse_ERE_branchINS_11__wrap_iterIPKcEEEET_S9_S9_, symObjAddr: 0x10B82, symBinAddr: 0x10001108E, symSize: 0x46 }
  - { offset: 0x13F905, size: 0x8, addend: 0x0, symName: __ZNSt3__111basic_regexIcNS_12regex_traitsIcEEE19__parse_QUOTED_CHARINS_11__wrap_iterIPKcEEEET_S9_S9_, symObjAddr: 0x10A66, symBinAddr: 0x100010F72, symSize: 0x4E }
  - { offset: 0x13FA6A, size: 0x8, addend: 0x0, symName: __ZNSt3__111__match_anyIcED1Ev, symObjAddr: 0x10AB4, symBinAddr: 0x100010FC0, symSize: 0x24 }
  - { offset: 0x13FAF8, size: 0x8, addend: 0x0, symName: __ZNSt3__111__match_anyIcED0Ev, symObjAddr: 0x10AD8, symBinAddr: 0x100010FE4, symSize: 0x34 }
  - { offset: 0x13FB8F, size: 0x8, addend: 0x0, symName: __ZNKSt3__111__match_anyIcE6__execERNS_7__stateIcEE, symObjAddr: 0x10B0C, symBinAddr: 0x100011018, symSize: 0x34 }
  - { offset: 0x13FBE2, size: 0x8, addend: 0x0, symName: __ZNSt3__111basic_regexIcNS_12regex_traitsIcEEE22__parse_ERE_expressionINS_11__wrap_iterIPKcEEEET_S9_S9_, symObjAddr: 0x10BC8, symBinAddr: 0x1000110D4, symSize: 0x15C }
  - { offset: 0x13FE7F, size: 0x8, addend: 0x0, symName: __ZNSt3__111basic_regexIcNS_12regex_traitsIcEEE33__parse_one_char_or_coll_elem_EREINS_11__wrap_iterIPKcEEEET_S9_S9_, symObjAddr: 0x10D24, symBinAddr: 0x100011230, symSize: 0x9E }
  - { offset: 0x140052, size: 0x8, addend: 0x0, symName: __ZNSt3__111basic_regexIcNS_12regex_traitsIcEEE20__parse_ORD_CHAR_EREINS_11__wrap_iterIPKcEEEET_S9_S9_, symObjAddr: 0x10DC2, symBinAddr: 0x1000112CE, symSize: 0x5E }
  - { offset: 0x1400DC, size: 0x8, addend: 0x0, symName: __ZNSt3__111basic_regexIcNS_12regex_traitsIcEEE23__parse_QUOTED_CHAR_EREINS_11__wrap_iterIPKcEEEET_S9_S9_, symObjAddr: 0x10E20, symBinAddr: 0x10001132C, symSize: 0x84 }
  - { offset: 0x140A66, size: 0x8, addend: 0x0, symName: __ZN7httplib6detail10scope_exitD2Ev, symObjAddr: 0x11CBA, symBinAddr: 0x1000121C6, symSize: 0x58 }
  - { offset: 0x140D43, size: 0x8, addend: 0x0, symName: __ZNSt3__110__function12__value_funcIFviEEC2B8ne200100EOS3_, symObjAddr: 0x11D12, symBinAddr: 0x10001221E, symSize: 0x4A }
  - { offset: 0x140D8B, size: 0x8, addend: 0x0, symName: __ZNK7httplib6Server16output_error_logERKNS_5ErrorEPKNS_7RequestE, symObjAddr: 0x115F6, symBinAddr: 0x100011B02, symSize: 0x7E }
  - { offset: 0x140F2F, size: 0x8, addend: 0x0, symName: __ZN7httplib6Server13bind_internalERKNSt3__112basic_stringIcNS1_11char_traitsIcEENS1_9allocatorIcEEEEii.cold.1, symObjAddr: 0x3853D, symBinAddr: 0x1000570B1, symSize: 0x51 }
  - { offset: 0x141409, size: 0x8, addend: 0x0, symName: __ZZNK7httplib6Server20create_server_socketERKNSt3__112basic_stringIcNS1_11char_traitsIcEENS1_9allocatorIcEEEEiiNS1_8functionIFviEEEENKUliR8addrinfoRbE_clEiSE_SF_, symObjAddr: 0x11B24, symBinAddr: 0x100012030, symSize: 0xF6 }
  - { offset: 0x1417AA, size: 0x8, addend: 0x0, symName: __ZNSt3__110__function6__funcIZN7httplib6detail13create_socketIZNKS2_6Server20create_server_socketERKNS_12basic_stringIcNS_11char_traitsIcEENS_9allocatorIcEEEEiiNS_8functionIFviEEEEUliR8addrinfoRbE_EEiSD_SD_iiibbSG_T_lEUlvE_NS9_ISM_EEFvvEED1Ev, symObjAddr: 0x11C1A, symBinAddr: 0x100012126, symSize: 0x6 }
  - { offset: 0x1417D6, size: 0x8, addend: 0x0, symName: __ZNSt3__110__function6__funcIZN7httplib6detail13create_socketIZNKS2_6Server20create_server_socketERKNS_12basic_stringIcNS_11char_traitsIcEENS_9allocatorIcEEEEiiNS_8functionIFviEEEEUliR8addrinfoRbE_EEiSD_SD_iiibbSG_T_lEUlvE_NS9_ISM_EEFvvEED0Ev, symObjAddr: 0x11C20, symBinAddr: 0x10001212C, symSize: 0xA }
  - { offset: 0x1418EC, size: 0x8, addend: 0x0, symName: __ZNKSt3__110__function6__funcIZN7httplib6detail13create_socketIZNKS2_6Server20create_server_socketERKNS_12basic_stringIcNS_11char_traitsIcEENS_9allocatorIcEEEEiiNS_8functionIFviEEEEUliR8addrinfoRbE_EEiSD_SD_iiibbSG_T_lEUlvE_NS9_ISM_EEFvvEE7__cloneEv, symObjAddr: 0x11C2A, symBinAddr: 0x100012136, symSize: 0x2C }
  - { offset: 0x141B0E, size: 0x8, addend: 0x0, symName: __ZNKSt3__110__function6__funcIZN7httplib6detail13create_socketIZNKS2_6Server20create_server_socketERKNS_12basic_stringIcNS_11char_traitsIcEENS_9allocatorIcEEEEiiNS_8functionIFviEEEEUliR8addrinfoRbE_EEiSD_SD_iiibbSG_T_lEUlvE_NS9_ISM_EEFvvEE7__cloneEPNS0_6__baseISO_EE, symObjAddr: 0x11C56, symBinAddr: 0x100012162, symSize: 0x18 }
  - { offset: 0x141C11, size: 0x8, addend: 0x0, symName: __ZNSt3__110__function6__funcIZN7httplib6detail13create_socketIZNKS2_6Server20create_server_socketERKNS_12basic_stringIcNS_11char_traitsIcEENS_9allocatorIcEEEEiiNS_8functionIFviEEEEUliR8addrinfoRbE_EEiSD_SD_iiibbSG_T_lEUlvE_NS9_ISM_EEFvvEE7destroyEv, symObjAddr: 0x11C6E, symBinAddr: 0x10001217A, symSize: 0x6 }
  - { offset: 0x141C67, size: 0x8, addend: 0x0, symName: __ZNSt3__110__function6__funcIZN7httplib6detail13create_socketIZNKS2_6Server20create_server_socketERKNS_12basic_stringIcNS_11char_traitsIcEENS_9allocatorIcEEEEiiNS_8functionIFviEEEEUliR8addrinfoRbE_EEiSD_SD_iiibbSG_T_lEUlvE_NS9_ISM_EEFvvEE18destroy_deallocateEv, symObjAddr: 0x11C74, symBinAddr: 0x100012180, symSize: 0xA }
  - { offset: 0x141D7E, size: 0x8, addend: 0x0, symName: __ZNSt3__110__function6__funcIZN7httplib6detail13create_socketIZNKS2_6Server20create_server_socketERKNS_12basic_stringIcNS_11char_traitsIcEENS_9allocatorIcEEEEiiNS_8functionIFviEEEEUliR8addrinfoRbE_EEiSD_SD_iiibbSG_T_lEUlvE_NS9_ISM_EEFvvEEclEv, symObjAddr: 0x11C7E, symBinAddr: 0x10001218A, symSize: 0x12 }
  - { offset: 0x141E63, size: 0x8, addend: 0x0, symName: __ZNKSt3__110__function6__funcIZN7httplib6detail13create_socketIZNKS2_6Server20create_server_socketERKNS_12basic_stringIcNS_11char_traitsIcEENS_9allocatorIcEEEEiiNS_8functionIFviEEEEUliR8addrinfoRbE_EEiSD_SD_iiibbSG_T_lEUlvE_NS9_ISM_EEFvvEE6targetERKSt9type_info, symObjAddr: 0x11C90, symBinAddr: 0x10001219C, symSize: 0x1C }
  - { offset: 0x141ED7, size: 0x8, addend: 0x0, symName: __ZNKSt3__110__function6__funcIZN7httplib6detail13create_socketIZNKS2_6Server20create_server_socketERKNS_12basic_stringIcNS_11char_traitsIcEENS_9allocatorIcEEEEiiNS_8functionIFviEEEEUliR8addrinfoRbE_EEiSD_SD_iiibbSG_T_lEUlvE_NS9_ISM_EEFvvEE11target_typeEv, symObjAddr: 0x11CAC, symBinAddr: 0x1000121B8, symSize: 0xE }
  - { offset: 0x141EFC, size: 0x8, addend: 0x0, symName: __ZNSt3__110__function6__funcIZN7httplib6Server15listen_internalEvEUlvE_NS_9allocatorIS4_EEFvvEED1Ev, symObjAddr: 0x11DA8, symBinAddr: 0x100012268, symSize: 0x6 }
  - { offset: 0x141F28, size: 0x8, addend: 0x0, symName: __ZNSt3__110__function6__funcIZN7httplib6Server15listen_internalEvEUlvE_NS_9allocatorIS4_EEFvvEED0Ev, symObjAddr: 0x11DAE, symBinAddr: 0x10001226E, symSize: 0xA }
  - { offset: 0x14203E, size: 0x8, addend: 0x0, symName: __ZNKSt3__110__function6__funcIZN7httplib6Server15listen_internalEvEUlvE_NS_9allocatorIS4_EEFvvEE7__cloneEv, symObjAddr: 0x11DB8, symBinAddr: 0x100012278, symSize: 0x2C }
  - { offset: 0x142260, size: 0x8, addend: 0x0, symName: __ZNKSt3__110__function6__funcIZN7httplib6Server15listen_internalEvEUlvE_NS_9allocatorIS4_EEFvvEE7__cloneEPNS0_6__baseIS7_EE, symObjAddr: 0x11DE4, symBinAddr: 0x1000122A4, symSize: 0x18 }
  - { offset: 0x142363, size: 0x8, addend: 0x0, symName: __ZNSt3__110__function6__funcIZN7httplib6Server15listen_internalEvEUlvE_NS_9allocatorIS4_EEFvvEE7destroyEv, symObjAddr: 0x11DFC, symBinAddr: 0x1000122BC, symSize: 0x6 }
  - { offset: 0x1423B9, size: 0x8, addend: 0x0, symName: __ZNSt3__110__function6__funcIZN7httplib6Server15listen_internalEvEUlvE_NS_9allocatorIS4_EEFvvEE18destroy_deallocateEv, symObjAddr: 0x11E02, symBinAddr: 0x1000122C2, symSize: 0xA }
  - { offset: 0x1424D0, size: 0x8, addend: 0x0, symName: __ZNSt3__110__function6__funcIZN7httplib6Server15listen_internalEvEUlvE_NS_9allocatorIS4_EEFvvEEclEv, symObjAddr: 0x11E0C, symBinAddr: 0x1000122CC, symSize: 0x12 }
  - { offset: 0x142622, size: 0x8, addend: 0x0, symName: __ZNKSt3__110__function6__funcIZN7httplib6Server15listen_internalEvEUlvE_NS_9allocatorIS4_EEFvvEE6targetERKSt9type_info, symObjAddr: 0x11E1E, symBinAddr: 0x1000122DE, symSize: 0x1C }
  - { offset: 0x142696, size: 0x8, addend: 0x0, symName: __ZNKSt3__110__function6__funcIZN7httplib6Server15listen_internalEvEUlvE_NS_9allocatorIS4_EEFvvEE11target_typeEv, symObjAddr: 0x11E3A, symBinAddr: 0x1000122FA, symSize: 0xD }
  - { offset: 0x1427C1, size: 0x8, addend: 0x0, symName: __ZNSt3__110__function6__funcIZN7httplib6Server15listen_internalEvEUlvE0_NS_9allocatorIS4_EEFvvEED1Ev, symObjAddr: 0x11F48, symBinAddr: 0x100012408, symSize: 0x6 }
  - { offset: 0x1427ED, size: 0x8, addend: 0x0, symName: __ZNSt3__110__function6__funcIZN7httplib6Server15listen_internalEvEUlvE0_NS_9allocatorIS4_EEFvvEED0Ev, symObjAddr: 0x11F4E, symBinAddr: 0x10001240E, symSize: 0xA }
  - { offset: 0x142903, size: 0x8, addend: 0x0, symName: __ZNKSt3__110__function6__funcIZN7httplib6Server15listen_internalEvEUlvE0_NS_9allocatorIS4_EEFvvEE7__cloneEv, symObjAddr: 0x11F58, symBinAddr: 0x100012418, symSize: 0x34 }
  - { offset: 0x142B65, size: 0x8, addend: 0x0, symName: __ZNKSt3__110__function6__funcIZN7httplib6Server15listen_internalEvEUlvE0_NS_9allocatorIS4_EEFvvEE7__cloneEPNS0_6__baseIS7_EE, symObjAddr: 0x11F8C, symBinAddr: 0x10001244C, symSize: 0x20 }
  - { offset: 0x142CA8, size: 0x8, addend: 0x0, symName: __ZNSt3__110__function6__funcIZN7httplib6Server15listen_internalEvEUlvE0_NS_9allocatorIS4_EEFvvEE7destroyEv, symObjAddr: 0x11FAC, symBinAddr: 0x10001246C, symSize: 0x6 }
  - { offset: 0x142CFE, size: 0x8, addend: 0x0, symName: __ZNSt3__110__function6__funcIZN7httplib6Server15listen_internalEvEUlvE0_NS_9allocatorIS4_EEFvvEE18destroy_deallocateEv, symObjAddr: 0x11FB2, symBinAddr: 0x100012472, symSize: 0xA }
  - { offset: 0x142E15, size: 0x8, addend: 0x0, symName: __ZNSt3__110__function6__funcIZN7httplib6Server15listen_internalEvEUlvE0_NS_9allocatorIS4_EEFvvEEclEv, symObjAddr: 0x11FBC, symBinAddr: 0x10001247C, symSize: 0x18 }
  - { offset: 0x142EEA, size: 0x8, addend: 0x0, symName: __ZNKSt3__110__function6__funcIZN7httplib6Server15listen_internalEvEUlvE0_NS_9allocatorIS4_EEFvvEE6targetERKSt9type_info, symObjAddr: 0x11FD4, symBinAddr: 0x100012494, symSize: 0x1C }
  - { offset: 0x142F5E, size: 0x8, addend: 0x0, symName: __ZNKSt3__110__function6__funcIZN7httplib6Server15listen_internalEvEUlvE0_NS_9allocatorIS4_EEFvvEE11target_typeEv, symObjAddr: 0x11FF0, symBinAddr: 0x1000124B0, symSize: 0xE }
  - { offset: 0x1434F7, size: 0x8, addend: 0x0, symName: __ZNSt3__114__split_bufferINS_10unique_ptrI18OgaTokenizerStreamNS_14default_deleteIS2_EEEERNS_9allocatorIS5_EEED2Ev, symObjAddr: 0x129AA, symBinAddr: 0x100012E3E, symSize: 0x42 }
  - { offset: 0x14369E, size: 0x8, addend: 0x0, symName: __ZNSt3__16vectorINS_10unique_ptrI18OgaTokenizerStreamNS_14default_deleteIS2_EEEENS_9allocatorIS5_EEE20__throw_length_errorB8ne200100Ev, symObjAddr: 0x1296C, symBinAddr: 0x100012E2C, symSize: 0x10 }
  - { offset: 0x1438C4, size: 0x8, addend: 0x0, symName: __ZNSt3__113random_deviceC1B8ne200100Ev, symObjAddr: 0x12A0E, symBinAddr: 0x100012EA2, symSize: 0x5E }
  - { offset: 0x143C61, size: 0x8, addend: 0x0, symName: __ZNSt3__16vectorINS_12basic_stringIcNS_11char_traitsIcEENS_9allocatorIcEEEENS4_IS6_EEE11__vallocateB8ne200100Em, symObjAddr: 0x12930, symBinAddr: 0x100012DF0, symSize: 0x3C }
  - { offset: 0x143CBB, size: 0x8, addend: 0x0, symName: __ZNSt3__16vectorINS_10unique_ptrI18OgaTokenizerStreamNS_14default_deleteIS2_EEEENS_9allocatorIS5_EEE20__throw_length_errorB8ne200100Ev, symObjAddr: 0x1296C, symBinAddr: 0x100012E2C, symSize: 0x10 }
  - { offset: 0x143E8A, size: 0x8, addend: 0x0, symName: __ZNSt3__123mersenne_twister_engineIjLm32ELm624ELm397ELm31ELj2567483615ELm11ELj4294967295ELm7ELj2636928640ELm15ELj4022730752ELm18ELj1812433253EEclEv, symObjAddr: 0x12B04, symBinAddr: 0x100012F98, symSize: 0xB8 }
  - { offset: 0x1440D2, size: 0x8, addend: 0x0, symName: __ZZN7httplib6detail21process_server_socketIZNS_6Server24process_and_close_socketEiEUlRNS_6StreamEbRbE_EEbRKNSt3__16atomicIiEEimlllllT_ENKUlbS5_E_clEbS5_, symObjAddr: 0x12F3A, symBinAddr: 0x1000133CE, symSize: 0x18A }
  - { offset: 0x1447AC, size: 0x8, addend: 0x0, symName: __ZN7httplib6detail21process_server_socketIZNS_6Server24process_and_close_socketEiEUlRNS_6StreamEbRbE_EEbRKNSt3__16atomicIiEEimlllllT_.cold.1, symObjAddr: 0x3858E, symBinAddr: 0x100057102, symSize: 0x23 }
  - { offset: 0x144A45, size: 0x8, addend: 0x0, symName: __ZNSt3__16vectorIcNS_9allocatorIcEEEC2B8ne200100EmRKc, symObjAddr: 0x130C4, symBinAddr: 0x100013558, symSize: 0x6C }
  - { offset: 0x144DFA, size: 0x8, addend: 0x0, symName: __ZNSt3__16vectorIcNS_9allocatorIcEEE11__vallocateB8ne200100Em, symObjAddr: 0x13130, symBinAddr: 0x1000135C4, symSize: 0x32 }
  - { offset: 0x144EDE, size: 0x8, addend: 0x0, symName: __ZN7httplib6Server15process_requestERNS_6StreamERKNSt3__112basic_stringIcNS3_11char_traitsIcEENS3_9allocatorIcEEEEiSB_ibRbRKNS3_8functionIFvRNS_7RequestEEEE, symObjAddr: 0x13162, symBinAddr: 0x1000135F6, symSize: 0x1658 }
  - { offset: 0x145FBB, size: 0x8, addend: 0x0, symName: __ZN7httplib6detail18stream_line_reader7getlineEv, symObjAddr: 0x147BA, symBinAddr: 0x100014C4E, symSize: 0x12A }
  - { offset: 0x1462C7, size: 0x8, addend: 0x0, symName: __ZN7httplib6detail12read_headersERNS_6StreamERNSt3__118unordered_multimapINS3_12basic_stringIcNS3_11char_traitsIcEENS3_9allocatorIcEEEESA_NS0_11case_ignore4hashENSB_8equal_toENS8_INS3_4pairIKSA_SA_EEEEEE, symObjAddr: 0x148E4, symBinAddr: 0x100014D78, symSize: 0x1F6 }
  - { offset: 0x1462D2, size: 0x8, addend: 0x0, symName: __ZNSt3__112__hash_tableINS_17__hash_value_typeINS_12basic_stringIcNS_11char_traitsIcEENS_9allocatorIcEEEES7_EENS_22__unordered_map_hasherIS7_S8_N7httplib6detail11case_ignore4hashENSC_8equal_toELb1EEENS_21__unordered_map_equalIS7_S8_SE_SD_Lb1EEENS5_IS8_EEE14__assign_multiINS_21__hash_const_iteratorIPNS_11__hash_nodeIS8_PvEEEEEEvT_SR_, symObjAddr: 0x17402, symBinAddr: 0x100017826, symSize: 0xFC }
  - { offset: 0x1465D4, size: 0x8, addend: 0x0, symName: __ZN7httplib6Server19write_response_coreERNS_6StreamEbRKNS_7RequestERNS_8ResponseEb, symObjAddr: 0x188DE, symBinAddr: 0x100018CD2, symSize: 0xBA6 }
  - { offset: 0x14A68E, size: 0x8, addend: 0x0, symName: __ZN7httplib8ResponseD2Ev, symObjAddr: 0x33100, symBinAddr: 0x100032884, symSize: 0x114 }
  - { offset: 0x14AFCC, size: 0x8, addend: 0x0, symName: __ZN7httplib7RequestD2Ev, symObjAddr: 0x33214, symBinAddr: 0x100032998, symSize: 0x242 }
  - { offset: 0x14C334, size: 0x8, addend: 0x0, symName: __ZNK7httplib7Request10has_headerERKNSt3__112basic_stringIcNS1_11char_traitsIcEENS1_9allocatorIcEEEE, symObjAddr: 0x1507A, symBinAddr: 0x10001550E, symSize: 0x8D }
  - { offset: 0x14C386, size: 0x8, addend: 0x0, symName: __ZNK7httplib7Request10has_headerERKNSt3__112basic_stringIcNS1_11char_traitsIcEENS1_9allocatorIcEEEE, symObjAddr: 0x1507A, symBinAddr: 0x10001550E, symSize: 0x8D }
  - { offset: 0x14C3A4, size: 0x8, addend: 0x0, symName: __ZNK7httplib7Request10has_headerERKNSt3__112basic_stringIcNS1_11char_traitsIcEENS1_9allocatorIcEEEE, symObjAddr: 0x1507A, symBinAddr: 0x10001550E, symSize: 0x8D }
  - { offset: 0x14C49C, size: 0x8, addend: 0x0, symName: __ZNKSt3__112__hash_tableINS_17__hash_value_typeINS_12basic_stringIcNS_11char_traitsIcEENS_9allocatorIcEEEES7_EENS_22__unordered_map_hasherIS7_S8_N7httplib6detail11case_ignore4hashENSC_8equal_toELb1EEENS_21__unordered_map_equalIS7_S8_SE_SD_Lb1EEENS5_IS8_EEE4findIS7_EENS_21__hash_const_iteratorIPNS_11__hash_nodeIS8_PvEEEERKT_, symObjAddr: 0x1B268, symBinAddr: 0x10001B65C, symSize: 0x12F }
  - { offset: 0x14C6C8, size: 0x8, addend: 0x0, symName: __ZNSt3__18functionIFbvEEaSIZN7httplib6Server15process_requestERNS4_6StreamERKNS_12basic_stringIcNS_11char_traitsIcEENS_9allocatorIcEEEEiSF_ibRbRKNS0_IFvRNS4_7RequestEEEEEUlvE_vEERS2_OT_, symObjAddr: 0x159EC, symBinAddr: 0x100015E80, symSize: 0x80 }
  - { offset: 0x14C90F, size: 0x8, addend: 0x0, symName: __ZN7httplib8Response20set_content_providerEmRKNSt3__112basic_stringIcNS1_11char_traitsIcEENS1_9allocatorIcEEEENS1_8functionIFbmmRNS_8DataSinkEEEENSA_IFvbEEE, symObjAddr: 0x16D1C, symBinAddr: 0x1000171B0, symSize: 0x16E }
  - { offset: 0x14CF8B, size: 0x8, addend: 0x0, symName: __ZNSt3__110shared_ptrIN7httplib6detail4mmapEED2B8ne200100Ev, symObjAddr: 0x31BDE, symBinAddr: 0x100031362, symSize: 0x3F }
  - { offset: 0x14D013, size: 0x8, addend: 0x0, symName: __ZN7httplib6Server15process_requestERNS_6StreamERKNSt3__112basic_stringIcNS3_11char_traitsIcEENS3_9allocatorIcEEEEiSB_ibRbRKNS3_8functionIFvRNS_7RequestEEEE.cold.1, symObjAddr: 0x385B1, symBinAddr: 0x100057125, symSize: 0x32 }
  - { offset: 0x14D0CB, size: 0x8, addend: 0x0, symName: __ZN7httplib8Response10set_headerERKNSt3__112basic_stringIcNS1_11char_traitsIcEENS1_9allocatorIcEEEES9_, symObjAddr: 0x167A0, symBinAddr: 0x100016C34, symSize: 0x52 }
  - { offset: 0x14D21A, size: 0x8, addend: 0x0, symName: __ZN7httplib6detail18stream_line_reader7getlineEv.cold.1, symObjAddr: 0x385E3, symBinAddr: 0x100057157, symSize: 0x23 }
  - { offset: 0x14D959, size: 0x8, addend: 0x0, symName: __ZNSt3__110__function12__value_funcIFvPKcS3_EEC2B8ne200100EOS5_, symObjAddr: 0x1E7C6, symBinAddr: 0x10001EB2A, symSize: 0x4A }
  - { offset: 0x14D9A1, size: 0x8, addend: 0x0, symName: __ZNKSt3__16__treeINS_12basic_stringIcNS_11char_traitsIcEENS_9allocatorIcEEEENS_4lessIS6_EENS4_IS6_EEE4findIS6_EENS_21__tree_const_iteratorIS6_PNS_11__tree_nodeIS6_PvEElEERKT_, symObjAddr: 0x1EECE, symBinAddr: 0x10001F232, symSize: 0x6C }
  - { offset: 0x14DB61, size: 0x8, addend: 0x0, symName: __ZNSt3__110__function12__value_funcIFvPKcmS3_mEEC2B8ne200100EOS5_, symObjAddr: 0x1EF7C, symBinAddr: 0x10001F2E0, symSize: 0x4A }
  - { offset: 0x14DBA9, size: 0x8, addend: 0x0, symName: __ZNKSt3__18functionIFvPKcmS2_mEEclES2_mS2_m, symObjAddr: 0x1EF3A, symBinAddr: 0x10001F29E, symSize: 0x42 }
  - { offset: 0x14DC81, size: 0x8, addend: 0x0, symName: __ZNSt3__110__function12__value_funcIFvPKcmS3_mEEC2B8ne200100EOS5_, symObjAddr: 0x1EF7C, symBinAddr: 0x10001F2E0, symSize: 0x4A }
  - { offset: 0x14DC8C, size: 0x8, addend: 0x0, symName: __ZNSt3__13setINS_12basic_stringIcNS_11char_traitsIcEENS_9allocatorIcEEEENS_4lessIS6_EENS4_IS6_EEEC2B8ne200100ESt16initializer_listIS6_ERKS8_, symObjAddr: 0x1E974, symBinAddr: 0x10001ECD8, symSize: 0x68 }
  - { offset: 0x14DEAA, size: 0x8, addend: 0x0, symName: __ZNK7httplib6Server18parse_request_lineEPKcRNS_7RequestE.cold.1, symObjAddr: 0x38606, symBinAddr: 0x10005717A, symSize: 0x2B }
  - { offset: 0x14E522, size: 0x8, addend: 0x0, symName: __ZNSt3__16vectorIZN7httplib6detail19parse_accept_headerERKNS_12basic_stringIcNS_11char_traitsIcEENS_9allocatorIcEEEERNS0_IS8_NS6_IS8_EEEEE11AcceptEntryNS6_ISE_EEE16__destroy_vectorclB8ne200100Ev, symObjAddr: 0x224EA, symBinAddr: 0x1000226CA, symSize: 0x32 }
  - { offset: 0x14E5F5, size: 0x8, addend: 0x0, symName: __ZNSt3__16vectorINS_12basic_stringIcNS_11char_traitsIcEENS_9allocatorIcEEEENS4_IS6_EEE7reserveEm, symObjAddr: 0x1FDA6, symBinAddr: 0x100020062, symSize: 0xB8 }
  - { offset: 0x14E827, size: 0x8, addend: 0x0, symName: __ZNSt3__110__function6__funcIZN7httplib6detail19parse_accept_headerERKNS_12basic_stringIcNS_11char_traitsIcEENS_9allocatorIcEEEERNS_6vectorIS9_NS7_IS9_EEEEEUlPKcSH_E_NS7_ISI_EEFvSH_SH_EED1Ev, symObjAddr: 0x1FE5E, symBinAddr: 0x10002011A, symSize: 0x6 }
  - { offset: 0x14ECFC, size: 0x8, addend: 0x0, symName: __ZNSt3__110__function12__value_funcIFbvEE4swapB8ne200100ERS3_, symObjAddr: 0x1C7BE, symBinAddr: 0x10001CB52, symSize: 0x116 }
  - { offset: 0x14F9CB, size: 0x8, addend: 0x0, symName: __ZNSt3__110__function12__value_funcIFbNS_8functionIFbPKcmEEEEEC2B8ne200100EOS8_, symObjAddr: 0x2E608, symBinAddr: 0x10002E360, symSize: 0x4A }
  - { offset: 0x14FA13, size: 0x8, addend: 0x0, symName: __ZNSt3__110__function12__value_funcIFbNS_8functionIFbRKN7httplib8FormDataEEEENS2_IFbPKcmEEEEEC2B8ne200100EOSE_, symObjAddr: 0x2E652, symBinAddr: 0x10002E3AA, symSize: 0x4A }
  - { offset: 0x14FA5B, size: 0x8, addend: 0x0, symName: __ZN7httplib13ContentReaderD1Ev, symObjAddr: 0x23CB4, symBinAddr: 0x100023E94, symSize: 0x58 }
  - { offset: 0x14FBD5, size: 0x8, addend: 0x0, symName: __ZNSt3__112__hash_tableINS_17__hash_value_typeINS_12basic_stringIcNS_11char_traitsIcEENS_9allocatorIcEEEES7_EENS_22__unordered_map_hasherIS7_S8_N7httplib6detail11case_ignore4hashENSC_8equal_toELb1EEENS_21__unordered_map_equalIS7_S8_SE_SD_Lb1EEENS5_IS8_EEE15__emplace_multiIJRKS7_SM_EEENS_15__hash_iteratorIPNS_11__hash_nodeIS8_PvEEEEDpOT_, symObjAddr: 0x1878E, symBinAddr: 0x100018B82, symSize: 0x4E }
  - { offset: 0x14FFA4, size: 0x8, addend: 0x0, symName: __ZNSt3__110__function12__value_funcIFbmmRN7httplib8DataSinkEEEaSB8ne200100EOS6_, symObjAddr: 0x319CC, symBinAddr: 0x1000311C4, symSize: 0x74 }
  - { offset: 0x1504D0, size: 0x8, addend: 0x0, symName: __ZNSt3__16vectorINS_4pairIllEENS_9allocatorIS2_EEE20__throw_length_errorB8ne200100Ev, symObjAddr: 0x2292C, symBinAddr: 0x100022B0C, symSize: 0x10 }
  - { offset: 0x1504E8, size: 0x8, addend: 0x0, symName: __ZNSt3__119__allocate_at_leastB8ne200100INS_9allocatorINS_4pairIllEEEEEENS_19__allocation_resultINS_16allocator_traitsIT_E7pointerEEERS7_m, symObjAddr: 0x2293C, symBinAddr: 0x100022B1C, symSize: 0x2D }
  - { offset: 0x1504F3, size: 0x8, addend: 0x0, symName: __ZNSt3__110__function6__funcIN7httplib7Request20is_connection_closedMUlvE_ENS_9allocatorIS4_EEFbvEED1Ev, symObjAddr: 0x1714C, symBinAddr: 0x1000175E0, symSize: 0x6 }
  - { offset: 0x15051F, size: 0x8, addend: 0x0, symName: __ZNSt3__110__function6__funcIN7httplib7Request20is_connection_closedMUlvE_ENS_9allocatorIS4_EEFbvEED0Ev, symObjAddr: 0x17152, symBinAddr: 0x1000175E6, symSize: 0xA }
  - { offset: 0x1505D5, size: 0x8, addend: 0x0, symName: __ZNKSt3__110__function6__funcIN7httplib7Request20is_connection_closedMUlvE_ENS_9allocatorIS4_EEFbvEE7__cloneEv, symObjAddr: 0x1715C, symBinAddr: 0x1000175F0, symSize: 0x1A }
  - { offset: 0x15072E, size: 0x8, addend: 0x0, symName: __ZNKSt3__110__function6__funcIN7httplib7Request20is_connection_closedMUlvE_ENS_9allocatorIS4_EEFbvEE7__cloneEPNS0_6__baseIS7_EE, symObjAddr: 0x17176, symBinAddr: 0x10001760A, symSize: 0x10 }
  - { offset: 0x1507C8, size: 0x8, addend: 0x0, symName: __ZNSt3__110__function6__funcIN7httplib7Request20is_connection_closedMUlvE_ENS_9allocatorIS4_EEFbvEE7destroyEv, symObjAddr: 0x17186, symBinAddr: 0x10001761A, symSize: 0x6 }
  - { offset: 0x15081E, size: 0x8, addend: 0x0, symName: __ZNSt3__110__function6__funcIN7httplib7Request20is_connection_closedMUlvE_ENS_9allocatorIS4_EEFbvEE18destroy_deallocateEv, symObjAddr: 0x1718C, symBinAddr: 0x100017620, symSize: 0xA }
  - { offset: 0x1508D7, size: 0x8, addend: 0x0, symName: __ZNSt3__110__function6__funcIN7httplib7Request20is_connection_closedMUlvE_ENS_9allocatorIS4_EEFbvEEclEv, symObjAddr: 0x17196, symBinAddr: 0x10001762A, symSize: 0x8 }
  - { offset: 0x1508FC, size: 0x8, addend: 0x0, symName: __ZNKSt3__110__function6__funcIN7httplib7Request20is_connection_closedMUlvE_ENS_9allocatorIS4_EEFbvEE6targetERKSt9type_info, symObjAddr: 0x1719E, symBinAddr: 0x100017632, symSize: 0x1C }
  - { offset: 0x150970, size: 0x8, addend: 0x0, symName: __ZNKSt3__110__function6__funcIN7httplib7Request20is_connection_closedMUlvE_ENS_9allocatorIS4_EEFbvEE11target_typeEv, symObjAddr: 0x171BA, symBinAddr: 0x10001764E, symSize: 0xE }
  - { offset: 0x150A83, size: 0x8, addend: 0x0, symName: __ZNSt3__112__hash_tableINS_17__hash_value_typeINS_12basic_stringIcNS_11char_traitsIcEENS_9allocatorIcEEEES7_EENS_22__unordered_map_hasherIS7_S8_NS_4hashIS7_EENS_8equal_toIS7_EELb1EEENS_21__unordered_map_equalIS7_S8_SD_SB_Lb1EEENS5_IS8_EEED2Ev, symObjAddr: 0x171C8, symBinAddr: 0x10001765C, symSize: 0x30 }
  - { offset: 0x150BB3, size: 0x8, addend: 0x0, symName: __ZNSt3__112__hash_tableINS_17__hash_value_typeINS_12basic_stringIcNS_11char_traitsIcEENS_9allocatorIcEEEES7_EENS_22__unordered_map_hasherIS7_S8_NS_4hashIS7_EENS_8equal_toIS7_EELb1EEENS_21__unordered_map_equalIS7_S8_SD_SB_Lb1EEENS5_IS8_EEE17__deallocate_nodeEPNS_16__hash_node_baseIPNS_11__hash_nodeIS8_PvEEEE, symObjAddr: 0x171F8, symBinAddr: 0x10001768C, symSize: 0x30 }
  - { offset: 0x150E7B, size: 0x8, addend: 0x0, symName: __ZNSt3__16__treeINS_12__value_typeINS_12basic_stringIcNS_11char_traitsIcEENS_9allocatorIcEEEEN7httplib8FormDataEEENS_19__map_value_compareIS7_SA_NS_4lessIS7_EELb1EEENS5_ISA_EEE7destroyEPNS_11__tree_nodeISA_PvEE, symObjAddr: 0x1725C, symBinAddr: 0x1000176BC, symSize: 0x3C }
  - { offset: 0x1510DB, size: 0x8, addend: 0x0, symName: __ZNSt3__16__treeINS_12__value_typeINS_12basic_stringIcNS_11char_traitsIcEENS_9allocatorIcEEEEN7httplib9FormFieldEEENS_19__map_value_compareIS7_SA_NS_4lessIS7_EELb1EEENS5_ISA_EEE7destroyEPNS_11__tree_nodeISA_PvEE, symObjAddr: 0x17302, symBinAddr: 0x100017762, symSize: 0x3C }
  - { offset: 0x151641, size: 0x8, addend: 0x0, symName: __ZNSt3__112__hash_tableINS_17__hash_value_typeINS_12basic_stringIcNS_11char_traitsIcEENS_9allocatorIcEEEES7_EENS_22__unordered_map_hasherIS7_S8_N7httplib6detail11case_ignore4hashENSC_8equal_toELb1EEENS_21__unordered_map_equalIS7_S8_SE_SD_Lb1EEENS5_IS8_EEE19__node_insert_multiEPNS_11__hash_nodeIS8_PvEE, symObjAddr: 0x174FE, symBinAddr: 0x100017922, symSize: 0x4A }
  - { offset: 0x151810, size: 0x8, addend: 0x0, symName: __ZNSt3__112__hash_tableINS_17__hash_value_typeINS_12basic_stringIcNS_11char_traitsIcEENS_9allocatorIcEEEES7_EENS_22__unordered_map_hasherIS7_S8_N7httplib6detail11case_ignore4hashENSC_8equal_toELb1EEENS_21__unordered_map_equalIS7_S8_SE_SD_Lb1EEENS5_IS8_EEE15__emplace_multiIJRKNS_4pairIKS7_S7_EEEEENS_15__hash_iteratorIPNS_11__hash_nodeIS8_PvEEEEDpOT_, symObjAddr: 0x17CEC, symBinAddr: 0x1000180E0, symSize: 0x4A }
  - { offset: 0x151955, size: 0x8, addend: 0x0, symName: __ZNK7httplib6detail11case_ignore4hashclERKNSt3__112basic_stringIcNS3_11char_traitsIcEENS3_9allocatorIcEEEE, symObjAddr: 0x178A8, symBinAddr: 0x100017C9C, symSize: 0x62 }
  - { offset: 0x151A1B, size: 0x8, addend: 0x0, symName: __ZNSt3__112__hash_tableINS_17__hash_value_typeINS_12basic_stringIcNS_11char_traitsIcEENS_9allocatorIcEEEES7_EENS_22__unordered_map_hasherIS7_S8_N7httplib6detail11case_ignore4hashENSC_8equal_toELb1EEENS_21__unordered_map_equalIS7_S8_SE_SD_Lb1EEENS5_IS8_EEE27__node_insert_multi_prepareEmRS8_, symObjAddr: 0x17578, symBinAddr: 0x10001796C, symSize: 0x220 }
  - { offset: 0x151CA0, size: 0x8, addend: 0x0, symName: __ZNSt3__112__hash_tableINS_17__hash_value_typeINS_12basic_stringIcNS_11char_traitsIcEENS_9allocatorIcEEEES7_EENS_22__unordered_map_hasherIS7_S8_N7httplib6detail11case_ignore4hashENSC_8equal_toELb1EEENS_21__unordered_map_equalIS7_S8_SE_SD_Lb1EEENS5_IS8_EEE27__node_insert_multi_performEPNS_11__hash_nodeIS8_PvEEPNS_16__hash_node_baseISN_EE, symObjAddr: 0x17798, symBinAddr: 0x100017B8C, symSize: 0x110 }
  - { offset: 0x151EA1, size: 0x8, addend: 0x0, symName: __ZNSt3__112__hash_tableINS_17__hash_value_typeINS_12basic_stringIcNS_11char_traitsIcEENS_9allocatorIcEEEES7_EENS_22__unordered_map_hasherIS7_S8_N7httplib6detail11case_ignore4hashENSC_8equal_toELb1EEENS_21__unordered_map_equalIS7_S8_SE_SD_Lb1EEENS5_IS8_EEE8__rehashILb0EEEvm, symObjAddr: 0x1790A, symBinAddr: 0x100017CFE, symSize: 0x150 }
  - { offset: 0x151FB0, size: 0x8, addend: 0x0, symName: __ZNK7httplib6detail11case_ignore8equal_toclERKNSt3__112basic_stringIcNS3_11char_traitsIcEENS3_9allocatorIcEEEESB_, symObjAddr: 0x17C66, symBinAddr: 0x10001805A, symSize: 0x86 }
  - { offset: 0x1521A8, size: 0x8, addend: 0x0, symName: __ZNSt3__112__hash_tableINS_17__hash_value_typeINS_12basic_stringIcNS_11char_traitsIcEENS_9allocatorIcEEEES7_EENS_22__unordered_map_hasherIS7_S8_N7httplib6detail11case_ignore4hashENSC_8equal_toELb1EEENS_21__unordered_map_equalIS7_S8_SE_SD_Lb1EEENS5_IS8_EEE11__do_rehashILb0EEEvm, symObjAddr: 0x17A5A, symBinAddr: 0x100017E4E, symSize: 0x20C }
  - { offset: 0x152663, size: 0x8, addend: 0x0, symName: __ZNK7httplib6detail11case_ignore8equal_toclERKNSt3__112basic_stringIcNS3_11char_traitsIcEENS3_9allocatorIcEEEESB_, symObjAddr: 0x17C66, symBinAddr: 0x10001805A, symSize: 0x86 }
  - { offset: 0x152792, size: 0x8, addend: 0x0, symName: __ZNSt3__112__hash_tableINS_17__hash_value_typeINS_12basic_stringIcNS_11char_traitsIcEENS_9allocatorIcEEEES7_EENS_22__unordered_map_hasherIS7_S8_N7httplib6detail11case_ignore4hashENSC_8equal_toELb1EEENS_21__unordered_map_equalIS7_S8_SE_SD_Lb1EEENS5_IS8_EEE16__construct_nodeIJRKNS_4pairIKS7_S7_EEEEENS_10unique_ptrINS_11__hash_nodeIS8_PvEENS_22__hash_node_destructorINS5_IST_EEEEEEDpOT_, symObjAddr: 0x17D36, symBinAddr: 0x10001812A, symSize: 0x82 }
  - { offset: 0x152B29, size: 0x8, addend: 0x0, symName: __ZNSt3__110unique_ptrINS_11__hash_nodeINS_17__hash_value_typeINS_12basic_stringIcNS_11char_traitsIcEENS_9allocatorIcEEEES8_EEPvEENS_22__hash_node_destructorINS6_ISB_EEEEE5resetB8ne200100EPSB_, symObjAddr: 0x17E36, symBinAddr: 0x10001822A, symSize: 0x35 }
  - { offset: 0x152E54, size: 0x8, addend: 0x0, symName: __ZNSt3__14pairIKNS_12basic_stringIcNS_11char_traitsIcEENS_9allocatorIcEEEES6_EC2B8ne200100ERKS8_, symObjAddr: 0x17DB8, symBinAddr: 0x1000181AC, symSize: 0x7E }
  - { offset: 0x1531D8, size: 0x8, addend: 0x0, symName: __ZNSt3__112__hash_tableINS_17__hash_value_typeINS_12basic_stringIcNS_11char_traitsIcEENS_9allocatorIcEEEES7_EENS_22__unordered_map_hasherIS7_S8_N7httplib6detail11case_ignore4hashENSC_8equal_toELb1EEENS_21__unordered_map_equalIS7_S8_SE_SD_Lb1EEENS5_IS8_EEE16__construct_nodeIJRKS7_SM_EEENS_10unique_ptrINS_11__hash_nodeIS8_PvEENS_22__hash_node_destructorINS5_ISQ_EEEEEEDpOT_, symObjAddr: 0x187DC, symBinAddr: 0x100018BD0, symSize: 0x8A }
  - { offset: 0x153647, size: 0x8, addend: 0x0, symName: __ZNSt3__14pairIKNS_12basic_stringIcNS_11char_traitsIcEENS_9allocatorIcEEEES6_EC2B8ne200100ILb1ELi0EEERS7_SA_, symObjAddr: 0x18866, symBinAddr: 0x100018C5A, symSize: 0x78 }
  - { offset: 0x153AC6, size: 0x8, addend: 0x0, symName: __ZN7httplib6Server27write_content_with_providerERNS_6StreamERKNS_7RequestERNS_8ResponseERKNSt3__112basic_stringIcNS8_11char_traitsIcEENS8_9allocatorIcEEEESG_, symObjAddr: 0x1A10A, symBinAddr: 0x10001A4FE, symSize: 0x28B }
  - { offset: 0x154211, size: 0x8, addend: 0x0, symName: __ZN7httplib6Server19write_response_coreERNS_6StreamEbRKNS_7RequestERNS_8ResponseEb.cold.1, symObjAddr: 0x3865C, symBinAddr: 0x1000571A8, symSize: 0x23 }
  - { offset: 0x1542E0, size: 0x8, addend: 0x0, symName: __ZNSt3__112__hash_tableINS_17__hash_value_typeINS_12basic_stringIcNS_11char_traitsIcEENS_9allocatorIcEEEES7_EENS_22__unordered_map_hasherIS7_S8_N7httplib6detail11case_ignore4hashENSC_8equal_toELb1EEENS_21__unordered_map_equalIS7_S8_SE_SD_Lb1EEENS5_IS8_EEE4findIS7_EENS_15__hash_iteratorIPNS_11__hash_nodeIS8_PvEEEERKT_, symObjAddr: 0x1A828, symBinAddr: 0x10001AC1C, symSize: 0x130 }
  - { offset: 0x15450C, size: 0x8, addend: 0x0, symName: __ZNSt3__112__hash_tableINS_17__hash_value_typeINS_12basic_stringIcNS_11char_traitsIcEENS_9allocatorIcEEEES7_EENS_22__unordered_map_hasherIS7_S8_N7httplib6detail11case_ignore4hashENSC_8equal_toELb1EEENS_21__unordered_map_equalIS7_S8_SE_SD_Lb1EEENS5_IS8_EEE5eraseENS_21__hash_const_iteratorIPNS_11__hash_nodeIS8_PvEEEE, symObjAddr: 0x1A958, symBinAddr: 0x10001AD4C, symSize: 0x56 }
  - { offset: 0x154739, size: 0x8, addend: 0x0, symName: __ZNK7httplib6Server12apply_rangesERKNS_7RequestERNS_8ResponseERNSt3__112basic_stringIcNS6_11char_traitsIcEENS6_9allocatorIcEEEESD_.cold.3, symObjAddr: 0x386C5, symBinAddr: 0x100057211, symSize: 0x23 }
  - { offset: 0x154768, size: 0x8, addend: 0x0, symName: __ZNK7httplib6Server12apply_rangesERKNS_7RequestERNS_8ResponseERNSt3__112basic_stringIcNS6_11char_traitsIcEENS6_9allocatorIcEEEESD_.cold.2, symObjAddr: 0x386A2, symBinAddr: 0x1000571EE, symSize: 0x23 }
  - { offset: 0x154797, size: 0x8, addend: 0x0, symName: __ZNK7httplib6Server12apply_rangesERKNS_7RequestERNS_8ResponseERNSt3__112basic_stringIcNS6_11char_traitsIcEENS6_9allocatorIcEEEESD_.cold.1, symObjAddr: 0x3867F, symBinAddr: 0x1000571CB, symSize: 0x23 }
  - { offset: 0x1547C6, size: 0x8, addend: 0x0, symName: __ZNK7httplib6Server12apply_rangesERKNS_7RequestERNS_8ResponseERNSt3__112basic_stringIcNS6_11char_traitsIcEENS6_9allocatorIcEEEESD_.cold.6, symObjAddr: 0x3872E, symBinAddr: 0x10005727A, symSize: 0x23 }
  - { offset: 0x1547F5, size: 0x8, addend: 0x0, symName: __ZNK7httplib6Server12apply_rangesERKNS_7RequestERNS_8ResponseERNSt3__112basic_stringIcNS6_11char_traitsIcEENS6_9allocatorIcEEEESD_.cold.5, symObjAddr: 0x3870B, symBinAddr: 0x100057257, symSize: 0x23 }
  - { offset: 0x154824, size: 0x8, addend: 0x0, symName: __ZNK7httplib6Server12apply_rangesERKNS_7RequestERNS_8ResponseERNSt3__112basic_stringIcNS6_11char_traitsIcEENS6_9allocatorIcEEEESD_.cold.4, symObjAddr: 0x386E8, symBinAddr: 0x100057234, symSize: 0x23 }
  - { offset: 0x154A29, size: 0x8, addend: 0x0, symName: __ZN7httplib6Server27write_content_with_providerERNS_6StreamERKNS_7RequestERNS_8ResponseERKNSt3__112basic_stringIcNS8_11char_traitsIcEENS8_9allocatorIcEEEESG_.cold.3, symObjAddr: 0x38797, symBinAddr: 0x1000572E3, symSize: 0x23 }
  - { offset: 0x154A58, size: 0x8, addend: 0x0, symName: __ZN7httplib6Server27write_content_with_providerERNS_6StreamERKNS_7RequestERNS_8ResponseERKNSt3__112basic_stringIcNS8_11char_traitsIcEENS8_9allocatorIcEEEESG_.cold.2, symObjAddr: 0x38774, symBinAddr: 0x1000572C0, symSize: 0x23 }
  - { offset: 0x154A87, size: 0x8, addend: 0x0, symName: __ZN7httplib6Server27write_content_with_providerERNS_6StreamERKNS_7RequestERNS_8ResponseERKNSt3__112basic_stringIcNS8_11char_traitsIcEENS8_9allocatorIcEEEESG_.cold.1, symObjAddr: 0x38751, symBinAddr: 0x10005729D, symSize: 0x23 }
  - { offset: 0x154AEE, size: 0x8, addend: 0x0, symName: __ZZN7httplib6detail13random_stringEmENKUlvE_clEv, symObjAddr: 0x1AB14, symBinAddr: 0x10001AF08, symSize: 0xDC }
  - { offset: 0x155041, size: 0x8, addend: 0x0, symName: __ZNSt3__112__hash_tableINS_17__hash_value_typeINS_12basic_stringIcNS_11char_traitsIcEENS_9allocatorIcEEEES7_EENS_22__unordered_map_hasherIS7_S8_N7httplib6detail11case_ignore4hashENSC_8equal_toELb1EEENS_21__unordered_map_equalIS7_S8_SE_SD_Lb1EEENS5_IS8_EEE6removeENS_21__hash_const_iteratorIPNS_11__hash_nodeIS8_PvEEEE, symObjAddr: 0x1A9AE, symBinAddr: 0x10001ADA2, symSize: 0x166 }
  - { offset: 0x155515, size: 0x8, addend: 0x0, symName: __ZNSt3__18seed_seqC2B8ne200100IjLi0EEESt16initializer_listIT_E, symObjAddr: 0x1ABF0, symBinAddr: 0x10001AFE4, symSize: 0x7C }
  - { offset: 0x155714, size: 0x8, addend: 0x0, symName: __ZNSt3__123mersenne_twister_engineIjLm32ELm624ELm397ELm31ELj2567483615ELm11ELj4294967295ELm7ELj2636928640ELm15ELj4022730752ELm18ELj1812433253EE6__seedINS_8seed_seqEEEvRT_NS_17integral_constantIjLj1EEE, symObjAddr: 0x1ADA8, symBinAddr: 0x10001B19C, symSize: 0x92 }
  - { offset: 0x155869, size: 0x8, addend: 0x0, symName: __ZNSt3__16vectorIjNS_9allocatorIjEEE9push_backB8ne200100EOj, symObjAddr: 0x1AC6C, symBinAddr: 0x10001B060, symSize: 0xFE }
  - { offset: 0x155C97, size: 0x8, addend: 0x0, symName: __ZNSt3__16vectorIjNS_9allocatorIjEEE20__throw_length_errorB8ne200100Ev, symObjAddr: 0x1AD6A, symBinAddr: 0x10001B15E, symSize: 0x10 }
  - { offset: 0x155F14, size: 0x8, addend: 0x0, symName: __ZNSt3__16vectorIjNS_9allocatorIjEEE20__throw_length_errorB8ne200100Ev, symObjAddr: 0x1AD6A, symBinAddr: 0x10001B15E, symSize: 0x10 }
  - { offset: 0x155F2C, size: 0x8, addend: 0x0, symName: __ZNSt3__119__allocate_at_leastB8ne200100INS_9allocatorIjEEEENS_19__allocation_resultINS_16allocator_traitsIT_E7pointerEEERS5_m, symObjAddr: 0x1AD7A, symBinAddr: 0x10001B16E, symSize: 0x2E }
  - { offset: 0x155F58, size: 0x8, addend: 0x0, symName: __ZNSt3__18seed_seq8generateB8ne200100IPjEEvT_S3_, symObjAddr: 0x1AE3A, symBinAddr: 0x10001B22E, symSize: 0x267 }
  - { offset: 0x1562D2, size: 0x8, addend: 0x0, symName: __ZNKSt3__112__hash_tableINS_17__hash_value_typeINS_12basic_stringIcNS_11char_traitsIcEENS_9allocatorIcEEEES7_EENS_22__unordered_map_hasherIS7_S8_N7httplib6detail11case_ignore4hashENSC_8equal_toELb1EEENS_21__unordered_map_equalIS7_S8_SE_SD_Lb1EEENS5_IS8_EEE19__equal_range_multiIS7_EENS_4pairINS_21__hash_const_iteratorIPNS_11__hash_nodeIS8_PvEEEESR_EERKT_, symObjAddr: 0x1B216, symBinAddr: 0x10001B60A, symSize: 0x52 }
  - { offset: 0x156533, size: 0x8, addend: 0x0, symName: __ZN7httplib6detail29process_multipart_ranges_dataIZNS0_32get_multipart_ranges_data_lengthERKNS_7RequestERKNSt3__112basic_stringIcNS5_11char_traitsIcEENS5_9allocatorIcEEEESD_mEUlSD_E_ZNS0_32get_multipart_ranges_data_lengthES4_SD_SD_mEUlSD_E0_ZNS0_32get_multipart_ranges_data_lengthES4_SD_SD_mEUlmmE_EEbS4_SD_SD_mT_T0_T1_.cold.3, symObjAddr: 0x38800, symBinAddr: 0x10005734C, symSize: 0x23 }
  - { offset: 0x156562, size: 0x8, addend: 0x0, symName: __ZN7httplib6detail29process_multipart_ranges_dataIZNS0_32get_multipart_ranges_data_lengthERKNS_7RequestERKNSt3__112basic_stringIcNS5_11char_traitsIcEENS5_9allocatorIcEEEESD_mEUlSD_E_ZNS0_32get_multipart_ranges_data_lengthES4_SD_SD_mEUlSD_E0_ZNS0_32get_multipart_ranges_data_lengthES4_SD_SD_mEUlmmE_EEbS4_SD_SD_mT_T0_T1_.cold.2, symObjAddr: 0x387DD, symBinAddr: 0x100057329, symSize: 0x23 }
  - { offset: 0x156591, size: 0x8, addend: 0x0, symName: __ZN7httplib6detail29process_multipart_ranges_dataIZNS0_32get_multipart_ranges_data_lengthERKNS_7RequestERKNSt3__112basic_stringIcNS5_11char_traitsIcEENS5_9allocatorIcEEEESD_mEUlSD_E_ZNS0_32get_multipart_ranges_data_lengthES4_SD_SD_mEUlSD_E0_ZNS0_32get_multipart_ranges_data_lengthES4_SD_SD_mEUlmmE_EEbS4_SD_SD_mT_T0_T1_.cold.1, symObjAddr: 0x387BA, symBinAddr: 0x100057306, symSize: 0x23 }
  - { offset: 0x156634, size: 0x8, addend: 0x0, symName: __ZZN7httplib6detail26make_multipart_ranges_dataERKNS_7RequestERNS_8ResponseERKNSt3__112basic_stringIcNS6_11char_traitsIcEENS6_9allocatorIcEEEESE_mRSC_ENKUlmmE_clEmm, symObjAddr: 0x1BB9E, symBinAddr: 0x10001BF92, symSize: 0x94 }
  - { offset: 0x1569E8, size: 0x8, addend: 0x0, symName: __ZN7httplib6detail29process_multipart_ranges_dataIZNS0_26make_multipart_ranges_dataERKNS_7RequestERNS_8ResponseERKNSt3__112basic_stringIcNS7_11char_traitsIcEENS7_9allocatorIcEEEESF_mRSD_EUlSF_E_ZNS0_26make_multipart_ranges_dataES4_S6_SF_SF_mSG_EUlSF_E0_ZNS0_26make_multipart_ranges_dataES4_S6_SF_SF_mSG_EUlmmE_EEbS4_SF_SF_mT_T0_T1_.cold.3, symObjAddr: 0x38869, symBinAddr: 0x1000573B5, symSize: 0x23 }
  - { offset: 0x156A17, size: 0x8, addend: 0x0, symName: __ZN7httplib6detail29process_multipart_ranges_dataIZNS0_26make_multipart_ranges_dataERKNS_7RequestERNS_8ResponseERKNSt3__112basic_stringIcNS7_11char_traitsIcEENS7_9allocatorIcEEEESF_mRSD_EUlSF_E_ZNS0_26make_multipart_ranges_dataES4_S6_SF_SF_mSG_EUlSF_E0_ZNS0_26make_multipart_ranges_dataES4_S6_SF_SF_mSG_EUlmmE_EEbS4_SF_SF_mT_T0_T1_.cold.2, symObjAddr: 0x38846, symBinAddr: 0x100057392, symSize: 0x23 }
  - { offset: 0x156A46, size: 0x8, addend: 0x0, symName: __ZN7httplib6detail29process_multipart_ranges_dataIZNS0_26make_multipart_ranges_dataERKNS_7RequestERNS_8ResponseERKNSt3__112basic_stringIcNS7_11char_traitsIcEENS7_9allocatorIcEEEESF_mRSD_EUlSF_E_ZNS0_26make_multipart_ranges_dataES4_S6_SF_SF_mSG_EUlSF_E0_ZNS0_26make_multipart_ranges_dataES4_S6_SF_SF_mSG_EUlmmE_EEbS4_SF_SF_mT_T0_T1_.cold.1, symObjAddr: 0x38823, symBinAddr: 0x10005736F, symSize: 0x23 }
  - { offset: 0x156A75, size: 0x8, addend: 0x0, symName: __ZZN7httplib6detail26make_multipart_ranges_dataERKNS_7RequestERNS_8ResponseERKNSt3__112basic_stringIcNS6_11char_traitsIcEENS6_9allocatorIcEEEESE_mRSC_ENKUlmmE_clEmm.cold.1, symObjAddr: 0x3888C, symBinAddr: 0x1000573D8, symSize: 0x23 }
  - { offset: 0x156C35, size: 0x8, addend: 0x0, symName: __ZN7httplib8DataSinkC2Ev, symObjAddr: 0x1C2A4, symBinAddr: 0x10001C668, symSize: 0x174 }
  - { offset: 0x15719C, size: 0x8, addend: 0x0, symName: __ZNSt3__18functionIFbPKcmEEaSIZN7httplib6detail28write_content_without_lengthIZNS6_6Server27write_content_with_providerERNS6_6StreamERKNS6_7RequestERNS6_8ResponseERKNS_12basic_stringIcNS_11char_traitsIcEENS_9allocatorIcEEEESO_EUlvE_EEbSB_RKNS0_IFbmmRNS6_8DataSinkEEEERKT_EUlS2_mE_vEERS4_OSW_, symObjAddr: 0x1E24C, symBinAddr: 0x10001E5E0, symSize: 0x8A }
  - { offset: 0x1573A7, size: 0x8, addend: 0x0, symName: __ZNSt3__18functionIFbvEEaSIZN7httplib6detail28write_content_without_lengthIZNS4_6Server27write_content_with_providerERNS4_6StreamERKNS4_7RequestERNS4_8ResponseERKNS_12basic_stringIcNS_11char_traitsIcEENS_9allocatorIcEEEESM_EUlvE_EEbS9_RKNS0_IFbmmRNS4_8DataSinkEEEERKT_EUlvE_vEERS2_OSU_, symObjAddr: 0x1E2D6, symBinAddr: 0x10001E66A, symSize: 0x82 }
  - { offset: 0x1575EE, size: 0x8, addend: 0x0, symName: __ZNSt3__18functionIFvvEEaSIZN7httplib6detail28write_content_without_lengthIZNS4_6Server27write_content_with_providerERNS4_6StreamERKNS4_7RequestERNS4_8ResponseERKNS_12basic_stringIcNS_11char_traitsIcEENS_9allocatorIcEEEESM_EUlvE_EEbS9_RKNS0_IFbmmRNS4_8DataSinkEEEERKT_EUlvE0_vEERS2_OSU_, symObjAddr: 0x1E358, symBinAddr: 0x10001E6EC, symSize: 0x82 }
  - { offset: 0x1578A7, size: 0x8, addend: 0x0, symName: __ZN7httplib8DataSinkD1Ev, symObjAddr: 0x1C1D0, symBinAddr: 0x10001C594, symSize: 0xD4 }
  - { offset: 0x1578B2, size: 0x8, addend: 0x0, symName: __ZN7httplib8DataSinkD1Ev, symObjAddr: 0x1C1D0, symBinAddr: 0x10001C594, symSize: 0xD4 }
  - { offset: 0x157B74, size: 0x8, addend: 0x0, symName: __ZNSt3__18functionIFbPKcmEEaSIZN7httplib6detail27write_content_with_progressIZNS6_6Server27write_content_with_providerERNS6_6StreamERKNS6_7RequestERNS6_8ResponseERKNS_12basic_stringIcNS_11char_traitsIcEENS_9allocatorIcEEEESO_EUlvE_EEbSB_RKNS0_IFbmmRNS6_8DataSinkEEEEmmT_RKNS0_IFbmmEEERNS6_5ErrorEEUlS2_mE_vEERS4_OSW_, symObjAddr: 0x1C07A, symBinAddr: 0x10001C46E, symSize: 0xA2 }
  - { offset: 0x157E39, size: 0x8, addend: 0x0, symName: __ZNSt3__18functionIFbvEEaSIZN7httplib6detail27write_content_with_progressIZNS4_6Server27write_content_with_providerERNS4_6StreamERKNS4_7RequestERNS4_8ResponseERKNS_12basic_stringIcNS_11char_traitsIcEENS_9allocatorIcEEEESM_EUlvE_EEbS9_RKNS0_IFbmmRNS4_8DataSinkEEEEmmT_RKNS0_IFbmmEEERNS4_5ErrorEEUlvE_vEERS2_OSU_, symObjAddr: 0x1C11C, symBinAddr: 0x10001C510, symSize: 0x82 }
  - { offset: 0x158322, size: 0x8, addend: 0x0, symName: __ZNSt3__110__function12__value_funcIFbPKcmEE4swapB8ne200100ERS5_, symObjAddr: 0x1C60A, symBinAddr: 0x10001C99E, symSize: 0x116 }
  - { offset: 0x158853, size: 0x8, addend: 0x0, symName: __ZN7httplib8DataSink19data_sink_streambufD1Ev, symObjAddr: 0x1C418, symBinAddr: 0x10001C7DC, symSize: 0x1C }
  - { offset: 0x1588B8, size: 0x8, addend: 0x0, symName: __ZN7httplib8DataSink19data_sink_streambufD0Ev, symObjAddr: 0x1C434, symBinAddr: 0x10001C7F8, symSize: 0x2E }
  - { offset: 0x158943, size: 0x8, addend: 0x0, symName: __ZN7httplib8DataSink19data_sink_streambuf6xsputnEPKcl, symObjAddr: 0x1C462, symBinAddr: 0x10001C826, symSize: 0x1C }
  - { offset: 0x1589AB, size: 0x8, addend: 0x0, symName: __ZNSt3__110__function6__funcIZN7httplib6detail27write_content_with_progressIZNS2_6Server27write_content_with_providerERNS2_6StreamERKNS2_7RequestERNS2_8ResponseERKNS_12basic_stringIcNS_11char_traitsIcEENS_9allocatorIcEEEESK_EUlvE_EEbS7_RKNS_8functionIFbmmRNS2_8DataSinkEEEEmmT_RKNSM_IFbmmEEERNS2_5ErrorEEUlPKcmE_NSG_IS12_EEFbS11_mEED1Ev, symObjAddr: 0x1C47E, symBinAddr: 0x10001C842, symSize: 0x6 }
  - { offset: 0x1589D7, size: 0x8, addend: 0x0, symName: __ZNSt3__110__function6__funcIZN7httplib6detail27write_content_with_progressIZNS2_6Server27write_content_with_providerERNS2_6StreamERKNS2_7RequestERNS2_8ResponseERKNS_12basic_stringIcNS_11char_traitsIcEENS_9allocatorIcEEEESK_EUlvE_EEbS7_RKNS_8functionIFbmmRNS2_8DataSinkEEEEmmT_RKNSM_IFbmmEEERNS2_5ErrorEEUlPKcmE_NSG_IS12_EEFbS11_mEED0Ev, symObjAddr: 0x1C484, symBinAddr: 0x10001C848, symSize: 0xA }
  - { offset: 0x158AC7, size: 0x8, addend: 0x0, symName: __ZNKSt3__110__function6__funcIZN7httplib6detail27write_content_with_progressIZNS2_6Server27write_content_with_providerERNS2_6StreamERKNS2_7RequestERNS2_8ResponseERKNS_12basic_stringIcNS_11char_traitsIcEENS_9allocatorIcEEEESK_EUlvE_EEbS7_RKNS_8functionIFbmmRNS2_8DataSinkEEEEmmT_RKNSM_IFbmmEEERNS2_5ErrorEEUlPKcmE_NSG_IS12_EEFbS11_mEE7__cloneEv, symObjAddr: 0x1C48E, symBinAddr: 0x10001C852, symSize: 0x3C }
  - { offset: 0x158CE9, size: 0x8, addend: 0x0, symName: __ZNKSt3__110__function6__funcIZN7httplib6detail27write_content_with_progressIZNS2_6Server27write_content_with_providerERNS2_6StreamERKNS2_7RequestERNS2_8ResponseERKNS_12basic_stringIcNS_11char_traitsIcEENS_9allocatorIcEEEESK_EUlvE_EEbS7_RKNS_8functionIFbmmRNS2_8DataSinkEEEEmmT_RKNSM_IFbmmEEERNS2_5ErrorEEUlPKcmE_NSG_IS12_EEFbS11_mEE7__cloneEPNS0_6__baseIS14_EE, symObjAddr: 0x1C4CA, symBinAddr: 0x10001C88E, symSize: 0x28 }
  - { offset: 0x158DEC, size: 0x8, addend: 0x0, symName: __ZNSt3__110__function6__funcIZN7httplib6detail27write_content_with_progressIZNS2_6Server27write_content_with_providerERNS2_6StreamERKNS2_7RequestERNS2_8ResponseERKNS_12basic_stringIcNS_11char_traitsIcEENS_9allocatorIcEEEESK_EUlvE_EEbS7_RKNS_8functionIFbmmRNS2_8DataSinkEEEEmmT_RKNSM_IFbmmEEERNS2_5ErrorEEUlPKcmE_NSG_IS12_EEFbS11_mEE7destroyEv, symObjAddr: 0x1C4F2, symBinAddr: 0x10001C8B6, symSize: 0x6 }
  - { offset: 0x158E42, size: 0x8, addend: 0x0, symName: __ZNSt3__110__function6__funcIZN7httplib6detail27write_content_with_progressIZNS2_6Server27write_content_with_providerERNS2_6StreamERKNS2_7RequestERNS2_8ResponseERKNS_12basic_stringIcNS_11char_traitsIcEENS_9allocatorIcEEEESK_EUlvE_EEbS7_RKNS_8functionIFbmmRNS2_8DataSinkEEEEmmT_RKNSM_IFbmmEEERNS2_5ErrorEEUlPKcmE_NSG_IS12_EEFbS11_mEE18destroy_deallocateEv, symObjAddr: 0x1C4F8, symBinAddr: 0x10001C8BC, symSize: 0xA }
  - { offset: 0x158F2E, size: 0x8, addend: 0x0, symName: __ZNSt3__110__function6__funcIZN7httplib6detail27write_content_with_progressIZNS2_6Server27write_content_with_providerERNS2_6StreamERKNS2_7RequestERNS2_8ResponseERKNS_12basic_stringIcNS_11char_traitsIcEENS_9allocatorIcEEEESK_EUlvE_EEbS7_RKNS_8functionIFbmmRNS2_8DataSinkEEEEmmT_RKNSM_IFbmmEEERNS2_5ErrorEEUlPKcmE_NSG_IS12_EEFbS11_mEEclEOS11_Om, symObjAddr: 0x1C502, symBinAddr: 0x10001C8C6, symSize: 0xE }
  - { offset: 0x158FEF, size: 0x8, addend: 0x0, symName: __ZNSt3__128__invoke_void_return_wrapperIbLb0EE6__callB8ne200100IJRZN7httplib6detail27write_content_with_progressIZNS3_6Server27write_content_with_providerERNS3_6StreamERKNS3_7RequestERNS3_8ResponseERKNS_12basic_stringIcNS_11char_traitsIcEENS_9allocatorIcEEEESL_EUlvE_EEbS8_RKNS_8functionIFbmmRNS3_8DataSinkEEEEmmT_RKNSN_IFbmmEEERNS3_5ErrorEEUlPKcmE_S12_mEEEbDpOT_, symObjAddr: 0x1C53A, symBinAddr: 0x10001C8FE, symSize: 0x9E }
  - { offset: 0x159176, size: 0x8, addend: 0x0, symName: __ZNKSt3__110__function6__funcIZN7httplib6detail27write_content_with_progressIZNS2_6Server27write_content_with_providerERNS2_6StreamERKNS2_7RequestERNS2_8ResponseERKNS_12basic_stringIcNS_11char_traitsIcEENS_9allocatorIcEEEESK_EUlvE_EEbS7_RKNS_8functionIFbmmRNS2_8DataSinkEEEEmmT_RKNSM_IFbmmEEERNS2_5ErrorEEUlPKcmE_NSG_IS12_EEFbS11_mEE6targetERKSt9type_info, symObjAddr: 0x1C510, symBinAddr: 0x10001C8D4, symSize: 0x1C }
  - { offset: 0x1591EA, size: 0x8, addend: 0x0, symName: __ZNKSt3__110__function6__funcIZN7httplib6detail27write_content_with_progressIZNS2_6Server27write_content_with_providerERNS2_6StreamERKNS2_7RequestERNS2_8ResponseERKNS_12basic_stringIcNS_11char_traitsIcEENS_9allocatorIcEEEESK_EUlvE_EEbS7_RKNS_8functionIFbmmRNS2_8DataSinkEEEEmmT_RKNSM_IFbmmEEERNS2_5ErrorEEUlPKcmE_NSG_IS12_EEFbS11_mEE11target_typeEv, symObjAddr: 0x1C52C, symBinAddr: 0x10001C8F0, symSize: 0xE }
  - { offset: 0x1592DF, size: 0x8, addend: 0x0, symName: __ZNSt3__110__function12__value_funcIFbPKcmEE4swapB8ne200100ERS5_, symObjAddr: 0x1C60A, symBinAddr: 0x10001C99E, symSize: 0x116 }
  - { offset: 0x15931E, size: 0x8, addend: 0x0, symName: __ZNSt3__110__function6__funcIZN7httplib6detail27write_content_with_progressIZNS2_6Server27write_content_with_providerERNS2_6StreamERKNS2_7RequestERNS2_8ResponseERKNS_12basic_stringIcNS_11char_traitsIcEENS_9allocatorIcEEEESK_EUlvE_EEbS7_RKNS_8functionIFbmmRNS2_8DataSinkEEEEmmT_RKNSM_IFbmmEEERNS2_5ErrorEEUlvE_NSG_IS10_EEFbvEED1Ev, symObjAddr: 0x1C720, symBinAddr: 0x10001CAB4, symSize: 0x6 }
  - { offset: 0x15934A, size: 0x8, addend: 0x0, symName: __ZNSt3__110__function6__funcIZN7httplib6detail27write_content_with_progressIZNS2_6Server27write_content_with_providerERNS2_6StreamERKNS2_7RequestERNS2_8ResponseERKNS_12basic_stringIcNS_11char_traitsIcEENS_9allocatorIcEEEESK_EUlvE_EEbS7_RKNS_8functionIFbmmRNS2_8DataSinkEEEEmmT_RKNSM_IFbmmEEERNS2_5ErrorEEUlvE_NSG_IS10_EEFbvEED0Ev, symObjAddr: 0x1C726, symBinAddr: 0x10001CABA, symSize: 0xA }
  - { offset: 0x159460, size: 0x8, addend: 0x0, symName: __ZNKSt3__110__function6__funcIZN7httplib6detail27write_content_with_progressIZNS2_6Server27write_content_with_providerERNS2_6StreamERKNS2_7RequestERNS2_8ResponseERKNS_12basic_stringIcNS_11char_traitsIcEENS_9allocatorIcEEEESK_EUlvE_EEbS7_RKNS_8functionIFbmmRNS2_8DataSinkEEEEmmT_RKNSM_IFbmmEEERNS2_5ErrorEEUlvE_NSG_IS10_EEFbvEE7__cloneEv, symObjAddr: 0x1C730, symBinAddr: 0x10001CAC4, symSize: 0x2C }
  - { offset: 0x159682, size: 0x8, addend: 0x0, symName: __ZNKSt3__110__function6__funcIZN7httplib6detail27write_content_with_progressIZNS2_6Server27write_content_with_providerERNS2_6StreamERKNS2_7RequestERNS2_8ResponseERKNS_12basic_stringIcNS_11char_traitsIcEENS_9allocatorIcEEEESK_EUlvE_EEbS7_RKNS_8functionIFbmmRNS2_8DataSinkEEEEmmT_RKNSM_IFbmmEEERNS2_5ErrorEEUlvE_NSG_IS10_EEFbvEE7__cloneEPNS0_6__baseIS12_EE, symObjAddr: 0x1C75C, symBinAddr: 0x10001CAF0, symSize: 0x18 }
  - { offset: 0x159785, size: 0x8, addend: 0x0, symName: __ZNSt3__110__function6__funcIZN7httplib6detail27write_content_with_progressIZNS2_6Server27write_content_with_providerERNS2_6StreamERKNS2_7RequestERNS2_8ResponseERKNS_12basic_stringIcNS_11char_traitsIcEENS_9allocatorIcEEEESK_EUlvE_EEbS7_RKNS_8functionIFbmmRNS2_8DataSinkEEEEmmT_RKNSM_IFbmmEEERNS2_5ErrorEEUlvE_NSG_IS10_EEFbvEE7destroyEv, symObjAddr: 0x1C774, symBinAddr: 0x10001CB08, symSize: 0x6 }
  - { offset: 0x1597DB, size: 0x8, addend: 0x0, symName: __ZNSt3__110__function6__funcIZN7httplib6detail27write_content_with_progressIZNS2_6Server27write_content_with_providerERNS2_6StreamERKNS2_7RequestERNS2_8ResponseERKNS_12basic_stringIcNS_11char_traitsIcEENS_9allocatorIcEEEESK_EUlvE_EEbS7_RKNS_8functionIFbmmRNS2_8DataSinkEEEEmmT_RKNSM_IFbmmEEERNS2_5ErrorEEUlvE_NSG_IS10_EEFbvEE18destroy_deallocateEv, symObjAddr: 0x1C77A, symBinAddr: 0x10001CB0E, symSize: 0xA }
  - { offset: 0x1598ED, size: 0x8, addend: 0x0, symName: __ZNSt3__110__function6__funcIZN7httplib6detail27write_content_with_progressIZNS2_6Server27write_content_with_providerERNS2_6StreamERKNS2_7RequestERNS2_8ResponseERKNS_12basic_stringIcNS_11char_traitsIcEENS_9allocatorIcEEEESK_EUlvE_EEbS7_RKNS_8functionIFbmmRNS2_8DataSinkEEEEmmT_RKNSM_IFbmmEEERNS2_5ErrorEEUlvE_NSG_IS10_EEFbvEEclEv, symObjAddr: 0x1C784, symBinAddr: 0x10001CB18, symSize: 0x10 }
  - { offset: 0x1599C2, size: 0x8, addend: 0x0, symName: __ZNKSt3__110__function6__funcIZN7httplib6detail27write_content_with_progressIZNS2_6Server27write_content_with_providerERNS2_6StreamERKNS2_7RequestERNS2_8ResponseERKNS_12basic_stringIcNS_11char_traitsIcEENS_9allocatorIcEEEESK_EUlvE_EEbS7_RKNS_8functionIFbmmRNS2_8DataSinkEEEEmmT_RKNSM_IFbmmEEERNS2_5ErrorEEUlvE_NSG_IS10_EEFbvEE6targetERKSt9type_info, symObjAddr: 0x1C794, symBinAddr: 0x10001CB28, symSize: 0x1C }
  - { offset: 0x159A36, size: 0x8, addend: 0x0, symName: __ZNKSt3__110__function6__funcIZN7httplib6detail27write_content_with_progressIZNS2_6Server27write_content_with_providerERNS2_6StreamERKNS2_7RequestERNS2_8ResponseERKNS_12basic_stringIcNS_11char_traitsIcEENS_9allocatorIcEEEESK_EUlvE_EEbS7_RKNS_8functionIFbmmRNS2_8DataSinkEEEEmmT_RKNSM_IFbmmEEERNS2_5ErrorEEUlvE_NSG_IS10_EEFbvEE11target_typeEv, symObjAddr: 0x1C7B0, symBinAddr: 0x10001CB44, symSize: 0xE }
  - { offset: 0x159B30, size: 0x8, addend: 0x0, symName: __ZN7httplib6detail29process_multipart_ranges_dataIZNS0_27write_multipart_ranges_dataIZNS_6Server27write_content_with_providerERNS_6StreamERKNS_7RequestERNS_8ResponseERKNSt3__112basic_stringIcNSB_11char_traitsIcEENSB_9allocatorIcEEEESJ_EUlvE_EEbS5_S8_SA_SJ_SJ_mRKT_EUlSJ_E_ZNS2_ISK_EEbS5_S8_SA_SJ_SJ_mSN_EUlSJ_E0_ZNS2_ISK_EEbS5_S8_SA_SJ_SJ_mSN_EUlmmE_EEbS8_SJ_SJ_mSL_T0_T1_.cold.3, symObjAddr: 0x388F5, symBinAddr: 0x100057441, symSize: 0x23 }
  - { offset: 0x159B5F, size: 0x8, addend: 0x0, symName: __ZN7httplib6detail29process_multipart_ranges_dataIZNS0_27write_multipart_ranges_dataIZNS_6Server27write_content_with_providerERNS_6StreamERKNS_7RequestERNS_8ResponseERKNSt3__112basic_stringIcNSB_11char_traitsIcEENSB_9allocatorIcEEEESJ_EUlvE_EEbS5_S8_SA_SJ_SJ_mRKT_EUlSJ_E_ZNS2_ISK_EEbS5_S8_SA_SJ_SJ_mSN_EUlSJ_E0_ZNS2_ISK_EEbS5_S8_SA_SJ_SJ_mSN_EUlmmE_EEbS8_SJ_SJ_mSL_T0_T1_.cold.2, symObjAddr: 0x388D2, symBinAddr: 0x10005741E, symSize: 0x23 }
  - { offset: 0x159B8E, size: 0x8, addend: 0x0, symName: __ZN7httplib6detail29process_multipart_ranges_dataIZNS0_27write_multipart_ranges_dataIZNS_6Server27write_content_with_providerERNS_6StreamERKNS_7RequestERNS_8ResponseERKNSt3__112basic_stringIcNSB_11char_traitsIcEENSB_9allocatorIcEEEESJ_EUlvE_EEbS5_S8_SA_SJ_SJ_mRKT_EUlSJ_E_ZNS2_ISK_EEbS5_S8_SA_SJ_SJ_mSN_EUlSJ_E0_ZNS2_ISK_EEbS5_S8_SA_SJ_SJ_mSN_EUlmmE_EEbS8_SJ_SJ_mSL_T0_T1_.cold.1, symObjAddr: 0x388AF, symBinAddr: 0x1000573FB, symSize: 0x23 }
  - { offset: 0x159BBD, size: 0x8, addend: 0x0, symName: __ZNSt3__18functionIFbPKcmEEaSIZN7httplib6detail21write_content_chunkedIZNS6_6Server27write_content_with_providerERNS6_6StreamERKNS6_7RequestERNS6_8ResponseERKNS_12basic_stringIcNS_11char_traitsIcEENS_9allocatorIcEEEESO_EUlvE_NS7_10compressorEEEbSB_RKNS0_IFbmmRNS6_8DataSinkEEEERKT_RT0_RNS6_5ErrorEEUlS2_mE_vEERS4_OSX_, symObjAddr: 0x1D0F4, symBinAddr: 0x10001D488, symSize: 0xA0 }
  - { offset: 0x159E82, size: 0x8, addend: 0x0, symName: __ZNSt3__18functionIFbvEEaSIZN7httplib6detail21write_content_chunkedIZNS4_6Server27write_content_with_providerERNS4_6StreamERKNS4_7RequestERNS4_8ResponseERKNS_12basic_stringIcNS_11char_traitsIcEENS_9allocatorIcEEEESM_EUlvE_NS5_10compressorEEEbS9_RKNS0_IFbmmRNS4_8DataSinkEEEERKT_RT0_RNS4_5ErrorEEUlvE_vEERS2_OSV_, symObjAddr: 0x1D194, symBinAddr: 0x10001D528, symSize: 0x82 }
  - { offset: 0x15A0C9, size: 0x8, addend: 0x0, symName: __ZNSt3__18functionIFvvEEaSIZN7httplib6detail21write_content_chunkedIZNS4_6Server27write_content_with_providerERNS4_6StreamERKNS4_7RequestERNS4_8ResponseERKNS_12basic_stringIcNS_11char_traitsIcEENS_9allocatorIcEEEESM_EUlvE_NS5_10compressorEEEbS9_RKNS0_IFbmmRNS4_8DataSinkEEEERKT_RT0_RNS4_5ErrorEEUlvE0_vEERS2_OSV_, symObjAddr: 0x1D216, symBinAddr: 0x10001D5AA, symSize: 0x82 }
  - { offset: 0x15A310, size: 0x8, addend: 0x0, symName: __ZNSt3__18functionIFvRKNS_18unordered_multimapINS_12basic_stringIcNS_11char_traitsIcEENS_9allocatorIcEEEES7_N7httplib6detail11case_ignore4hashENSA_8equal_toENS5_INS_4pairIKS7_S7_EEEEEEEEaSIZNS9_21write_content_chunkedIZNS8_6Server27write_content_with_providerERNS8_6StreamERKNS8_7RequestERNS8_8ResponseERSE_SW_EUlvE_NS9_10compressorEEEbSQ_RKNS0_IFbmmRNS8_8DataSinkEEEERKT_RT0_RNS8_5ErrorEEUlSJ_E_vEERSL_OS15_, symObjAddr: 0x1D298, symBinAddr: 0x10001D62C, symSize: 0x82 }
  - { offset: 0x15AE1D, size: 0x8, addend: 0x0, symName: __ZNSt3__110__function12__value_funcIFvRKNS_18unordered_multimapINS_12basic_stringIcNS_11char_traitsIcEENS_9allocatorIcEEEES8_N7httplib6detail11case_ignore4hashENSB_8equal_toENS6_INS_4pairIKS8_S8_EEEEEEEE4swapB8ne200100ERSM_, symObjAddr: 0x1E136, symBinAddr: 0x10001E4CA, symSize: 0x116 }
  - { offset: 0x15AF5F, size: 0x8, addend: 0x0, symName: __ZNSt3__110__function6__funcIZN7httplib6detail21write_content_chunkedIZNS2_6Server27write_content_with_providerERNS2_6StreamERKNS2_7RequestERNS2_8ResponseERKNS_12basic_stringIcNS_11char_traitsIcEENS_9allocatorIcEEEESK_EUlvE_NS3_10compressorEEEbS7_RKNS_8functionIFbmmRNS2_8DataSinkEEEERKT_RT0_RNS2_5ErrorEEUlPKcmE_NSG_IS13_EEFbS12_mEED1Ev, symObjAddr: 0x1D31A, symBinAddr: 0x10001D6AE, symSize: 0x6 }
  - { offset: 0x15AF8B, size: 0x8, addend: 0x0, symName: __ZNSt3__110__function6__funcIZN7httplib6detail21write_content_chunkedIZNS2_6Server27write_content_with_providerERNS2_6StreamERKNS2_7RequestERNS2_8ResponseERKNS_12basic_stringIcNS_11char_traitsIcEENS_9allocatorIcEEEESK_EUlvE_NS3_10compressorEEEbS7_RKNS_8functionIFbmmRNS2_8DataSinkEEEERKT_RT0_RNS2_5ErrorEEUlPKcmE_NSG_IS13_EEFbS12_mEED0Ev, symObjAddr: 0x1D320, symBinAddr: 0x10001D6B4, symSize: 0xA }
  - { offset: 0x15B07B, size: 0x8, addend: 0x0, symName: __ZNKSt3__110__function6__funcIZN7httplib6detail21write_content_chunkedIZNS2_6Server27write_content_with_providerERNS2_6StreamERKNS2_7RequestERNS2_8ResponseERKNS_12basic_stringIcNS_11char_traitsIcEENS_9allocatorIcEEEESK_EUlvE_NS3_10compressorEEEbS7_RKNS_8functionIFbmmRNS2_8DataSinkEEEERKT_RT0_RNS2_5ErrorEEUlPKcmE_NSG_IS13_EEFbS12_mEE7__cloneEv, symObjAddr: 0x1D32A, symBinAddr: 0x10001D6BE, symSize: 0x3C }
  - { offset: 0x15B29D, size: 0x8, addend: 0x0, symName: __ZNKSt3__110__function6__funcIZN7httplib6detail21write_content_chunkedIZNS2_6Server27write_content_with_providerERNS2_6StreamERKNS2_7RequestERNS2_8ResponseERKNS_12basic_stringIcNS_11char_traitsIcEENS_9allocatorIcEEEESK_EUlvE_NS3_10compressorEEEbS7_RKNS_8functionIFbmmRNS2_8DataSinkEEEERKT_RT0_RNS2_5ErrorEEUlPKcmE_NSG_IS13_EEFbS12_mEE7__cloneEPNS0_6__baseIS15_EE, symObjAddr: 0x1D366, symBinAddr: 0x10001D6FA, symSize: 0x28 }
  - { offset: 0x15B3A0, size: 0x8, addend: 0x0, symName: __ZNSt3__110__function6__funcIZN7httplib6detail21write_content_chunkedIZNS2_6Server27write_content_with_providerERNS2_6StreamERKNS2_7RequestERNS2_8ResponseERKNS_12basic_stringIcNS_11char_traitsIcEENS_9allocatorIcEEEESK_EUlvE_NS3_10compressorEEEbS7_RKNS_8functionIFbmmRNS2_8DataSinkEEEERKT_RT0_RNS2_5ErrorEEUlPKcmE_NSG_IS13_EEFbS12_mEE7destroyEv, symObjAddr: 0x1D38E, symBinAddr: 0x10001D722, symSize: 0x6 }
  - { offset: 0x15B3F6, size: 0x8, addend: 0x0, symName: __ZNSt3__110__function6__funcIZN7httplib6detail21write_content_chunkedIZNS2_6Server27write_content_with_providerERNS2_6StreamERKNS2_7RequestERNS2_8ResponseERKNS_12basic_stringIcNS_11char_traitsIcEENS_9allocatorIcEEEESK_EUlvE_NS3_10compressorEEEbS7_RKNS_8functionIFbmmRNS2_8DataSinkEEEERKT_RT0_RNS2_5ErrorEEUlPKcmE_NSG_IS13_EEFbS12_mEE18destroy_deallocateEv, symObjAddr: 0x1D394, symBinAddr: 0x10001D728, symSize: 0xA }
  - { offset: 0x15B520, size: 0x8, addend: 0x0, symName: __ZNSt3__110__function6__funcIZN7httplib6detail21write_content_chunkedIZNS2_6Server27write_content_with_providerERNS2_6StreamERKNS2_7RequestERNS2_8ResponseERKNS_12basic_stringIcNS_11char_traitsIcEENS_9allocatorIcEEEESK_EUlvE_NS3_10compressorEEEbS7_RKNS_8functionIFbmmRNS2_8DataSinkEEEERKT_RT0_RNS2_5ErrorEEUlPKcmE_NSG_IS13_EEFbS12_mEEclEOS12_Om, symObjAddr: 0x1D39E, symBinAddr: 0x10001D732, symSize: 0x14 }
  - { offset: 0x15B641, size: 0x8, addend: 0x0, symName: __ZNKSt3__110__function6__funcIZN7httplib6detail21write_content_chunkedIZNS2_6Server27write_content_with_providerERNS2_6StreamERKNS2_7RequestERNS2_8ResponseERKNS_12basic_stringIcNS_11char_traitsIcEENS_9allocatorIcEEEESK_EUlvE_NS3_10compressorEEEbS7_RKNS_8functionIFbmmRNS2_8DataSinkEEEERKT_RT0_RNS2_5ErrorEEUlPKcmE_NSG_IS13_EEFbS12_mEE6targetERKSt9type_info, symObjAddr: 0x1D3B2, symBinAddr: 0x10001D746, symSize: 0x1C }
  - { offset: 0x15B6B5, size: 0x8, addend: 0x0, symName: __ZNKSt3__110__function6__funcIZN7httplib6detail21write_content_chunkedIZNS2_6Server27write_content_with_providerERNS2_6StreamERKNS2_7RequestERNS2_8ResponseERKNS_12basic_stringIcNS_11char_traitsIcEENS_9allocatorIcEEEESK_EUlvE_NS3_10compressorEEEbS7_RKNS_8functionIFbmmRNS2_8DataSinkEEEERKT_RT0_RNS2_5ErrorEEUlPKcmE_NSG_IS13_EEFbS12_mEE11target_typeEv, symObjAddr: 0x1D3CE, symBinAddr: 0x10001D762, symSize: 0xE }
  - { offset: 0x15B8E6, size: 0x8, addend: 0x0, symName: __ZNSt3__110__function6__funcIZZN7httplib6detail21write_content_chunkedIZNS2_6Server27write_content_with_providerERNS2_6StreamERKNS2_7RequestERNS2_8ResponseERKNS_12basic_stringIcNS_11char_traitsIcEENS_9allocatorIcEEEESK_EUlvE_NS3_10compressorEEEbS7_RKNS_8functionIFbmmRNS2_8DataSinkEEEERKT_RT0_RNS2_5ErrorEENKUlPKcmE_clES12_mEUlS12_mE_NSG_IS14_EEFbS12_mEED1Ev, symObjAddr: 0x1D766, symBinAddr: 0x10001DAFA, symSize: 0x6 }
  - { offset: 0x15B912, size: 0x8, addend: 0x0, symName: __ZNSt3__110__function6__funcIZZN7httplib6detail21write_content_chunkedIZNS2_6Server27write_content_with_providerERNS2_6StreamERKNS2_7RequestERNS2_8ResponseERKNS_12basic_stringIcNS_11char_traitsIcEENS_9allocatorIcEEEESK_EUlvE_NS3_10compressorEEEbS7_RKNS_8functionIFbmmRNS2_8DataSinkEEEERKT_RT0_RNS2_5ErrorEENKUlPKcmE_clES12_mEUlS12_mE_NSG_IS14_EEFbS12_mEED0Ev, symObjAddr: 0x1D76C, symBinAddr: 0x10001DB00, symSize: 0xA }
  - { offset: 0x15BA28, size: 0x8, addend: 0x0, symName: __ZNKSt3__110__function6__funcIZZN7httplib6detail21write_content_chunkedIZNS2_6Server27write_content_with_providerERNS2_6StreamERKNS2_7RequestERNS2_8ResponseERKNS_12basic_stringIcNS_11char_traitsIcEENS_9allocatorIcEEEESK_EUlvE_NS3_10compressorEEEbS7_RKNS_8functionIFbmmRNS2_8DataSinkEEEERKT_RT0_RNS2_5ErrorEENKUlPKcmE_clES12_mEUlS12_mE_NSG_IS14_EEFbS12_mEE7__cloneEv, symObjAddr: 0x1D776, symBinAddr: 0x10001DB0A, symSize: 0x2C }
  - { offset: 0x15BC4A, size: 0x8, addend: 0x0, symName: __ZNKSt3__110__function6__funcIZZN7httplib6detail21write_content_chunkedIZNS2_6Server27write_content_with_providerERNS2_6StreamERKNS2_7RequestERNS2_8ResponseERKNS_12basic_stringIcNS_11char_traitsIcEENS_9allocatorIcEEEESK_EUlvE_NS3_10compressorEEEbS7_RKNS_8functionIFbmmRNS2_8DataSinkEEEERKT_RT0_RNS2_5ErrorEENKUlPKcmE_clES12_mEUlS12_mE_NSG_IS14_EEFbS12_mEE7__cloneEPNS0_6__baseIS16_EE, symObjAddr: 0x1D7A2, symBinAddr: 0x10001DB36, symSize: 0x18 }
  - { offset: 0x15BD4D, size: 0x8, addend: 0x0, symName: __ZNSt3__110__function6__funcIZZN7httplib6detail21write_content_chunkedIZNS2_6Server27write_content_with_providerERNS2_6StreamERKNS2_7RequestERNS2_8ResponseERKNS_12basic_stringIcNS_11char_traitsIcEENS_9allocatorIcEEEESK_EUlvE_NS3_10compressorEEEbS7_RKNS_8functionIFbmmRNS2_8DataSinkEEEERKT_RT0_RNS2_5ErrorEENKUlPKcmE_clES12_mEUlS12_mE_NSG_IS14_EEFbS12_mEE7destroyEv, symObjAddr: 0x1D7BA, symBinAddr: 0x10001DB4E, symSize: 0x6 }
  - { offset: 0x15BDA3, size: 0x8, addend: 0x0, symName: __ZNSt3__110__function6__funcIZZN7httplib6detail21write_content_chunkedIZNS2_6Server27write_content_with_providerERNS2_6StreamERKNS2_7RequestERNS2_8ResponseERKNS_12basic_stringIcNS_11char_traitsIcEENS_9allocatorIcEEEESK_EUlvE_NS3_10compressorEEEbS7_RKNS_8functionIFbmmRNS2_8DataSinkEEEERKT_RT0_RNS2_5ErrorEENKUlPKcmE_clES12_mEUlS12_mE_NSG_IS14_EEFbS12_mEE18destroy_deallocateEv, symObjAddr: 0x1D7C0, symBinAddr: 0x10001DB54, symSize: 0xA }
  - { offset: 0x15BF08, size: 0x8, addend: 0x0, symName: __ZNSt3__110__function6__funcIZZN7httplib6detail21write_content_chunkedIZNS2_6Server27write_content_with_providerERNS2_6StreamERKNS2_7RequestERNS2_8ResponseERKNS_12basic_stringIcNS_11char_traitsIcEENS_9allocatorIcEEEESK_EUlvE_NS3_10compressorEEEbS7_RKNS_8functionIFbmmRNS2_8DataSinkEEEERKT_RT0_RNS2_5ErrorEENKUlPKcmE_clES12_mEUlS12_mE_NSG_IS14_EEFbS12_mEEclEOS12_Om, symObjAddr: 0x1D7CA, symBinAddr: 0x10001DB5E, symSize: 0x18 }
  - { offset: 0x15C053, size: 0x8, addend: 0x0, symName: __ZNKSt3__110__function6__funcIZZN7httplib6detail21write_content_chunkedIZNS2_6Server27write_content_with_providerERNS2_6StreamERKNS2_7RequestERNS2_8ResponseERKNS_12basic_stringIcNS_11char_traitsIcEENS_9allocatorIcEEEESK_EUlvE_NS3_10compressorEEEbS7_RKNS_8functionIFbmmRNS2_8DataSinkEEEERKT_RT0_RNS2_5ErrorEENKUlPKcmE_clES12_mEUlS12_mE_NSG_IS14_EEFbS12_mEE6targetERKSt9type_info, symObjAddr: 0x1D7E2, symBinAddr: 0x10001DB76, symSize: 0x1C }
  - { offset: 0x15C0C7, size: 0x8, addend: 0x0, symName: __ZNKSt3__110__function6__funcIZZN7httplib6detail21write_content_chunkedIZNS2_6Server27write_content_with_providerERNS2_6StreamERKNS2_7RequestERNS2_8ResponseERKNS_12basic_stringIcNS_11char_traitsIcEENS_9allocatorIcEEEESK_EUlvE_NS3_10compressorEEEbS7_RKNS_8functionIFbmmRNS2_8DataSinkEEEERKT_RT0_RNS2_5ErrorEENKUlPKcmE_clES12_mEUlS12_mE_NSG_IS14_EEFbS12_mEE11target_typeEv, symObjAddr: 0x1D7FE, symBinAddr: 0x10001DB92, symSize: 0xD }
  - { offset: 0x15C0EC, size: 0x8, addend: 0x0, symName: __ZNSt3__110__function6__funcIZN7httplib6detail21write_content_chunkedIZNS2_6Server27write_content_with_providerERNS2_6StreamERKNS2_7RequestERNS2_8ResponseERKNS_12basic_stringIcNS_11char_traitsIcEENS_9allocatorIcEEEESK_EUlvE_NS3_10compressorEEEbS7_RKNS_8functionIFbmmRNS2_8DataSinkEEEERKT_RT0_RNS2_5ErrorEEUlvE_NSG_IS11_EEFbvEED1Ev, symObjAddr: 0x1D896, symBinAddr: 0x10001DC2A, symSize: 0x6 }
  - { offset: 0x15C118, size: 0x8, addend: 0x0, symName: __ZNSt3__110__function6__funcIZN7httplib6detail21write_content_chunkedIZNS2_6Server27write_content_with_providerERNS2_6StreamERKNS2_7RequestERNS2_8ResponseERKNS_12basic_stringIcNS_11char_traitsIcEENS_9allocatorIcEEEESK_EUlvE_NS3_10compressorEEEbS7_RKNS_8functionIFbmmRNS2_8DataSinkEEEERKT_RT0_RNS2_5ErrorEEUlvE_NSG_IS11_EEFbvEED0Ev, symObjAddr: 0x1D89C, symBinAddr: 0x10001DC30, symSize: 0xA }
  - { offset: 0x15C22E, size: 0x8, addend: 0x0, symName: __ZNKSt3__110__function6__funcIZN7httplib6detail21write_content_chunkedIZNS2_6Server27write_content_with_providerERNS2_6StreamERKNS2_7RequestERNS2_8ResponseERKNS_12basic_stringIcNS_11char_traitsIcEENS_9allocatorIcEEEESK_EUlvE_NS3_10compressorEEEbS7_RKNS_8functionIFbmmRNS2_8DataSinkEEEERKT_RT0_RNS2_5ErrorEEUlvE_NSG_IS11_EEFbvEE7__cloneEv, symObjAddr: 0x1D8A6, symBinAddr: 0x10001DC3A, symSize: 0x2C }
  - { offset: 0x15C450, size: 0x8, addend: 0x0, symName: __ZNKSt3__110__function6__funcIZN7httplib6detail21write_content_chunkedIZNS2_6Server27write_content_with_providerERNS2_6StreamERKNS2_7RequestERNS2_8ResponseERKNS_12basic_stringIcNS_11char_traitsIcEENS_9allocatorIcEEEESK_EUlvE_NS3_10compressorEEEbS7_RKNS_8functionIFbmmRNS2_8DataSinkEEEERKT_RT0_RNS2_5ErrorEEUlvE_NSG_IS11_EEFbvEE7__cloneEPNS0_6__baseIS13_EE, symObjAddr: 0x1D8D2, symBinAddr: 0x10001DC66, symSize: 0x18 }
  - { offset: 0x15C553, size: 0x8, addend: 0x0, symName: __ZNSt3__110__function6__funcIZN7httplib6detail21write_content_chunkedIZNS2_6Server27write_content_with_providerERNS2_6StreamERKNS2_7RequestERNS2_8ResponseERKNS_12basic_stringIcNS_11char_traitsIcEENS_9allocatorIcEEEESK_EUlvE_NS3_10compressorEEEbS7_RKNS_8functionIFbmmRNS2_8DataSinkEEEERKT_RT0_RNS2_5ErrorEEUlvE_NSG_IS11_EEFbvEE7destroyEv, symObjAddr: 0x1D8EA, symBinAddr: 0x10001DC7E, symSize: 0x6 }
  - { offset: 0x15C5A9, size: 0x8, addend: 0x0, symName: __ZNSt3__110__function6__funcIZN7httplib6detail21write_content_chunkedIZNS2_6Server27write_content_with_providerERNS2_6StreamERKNS2_7RequestERNS2_8ResponseERKNS_12basic_stringIcNS_11char_traitsIcEENS_9allocatorIcEEEESK_EUlvE_NS3_10compressorEEEbS7_RKNS_8functionIFbmmRNS2_8DataSinkEEEERKT_RT0_RNS2_5ErrorEEUlvE_NSG_IS11_EEFbvEE18destroy_deallocateEv, symObjAddr: 0x1D8F0, symBinAddr: 0x10001DC84, symSize: 0xA }
  - { offset: 0x15C6BB, size: 0x8, addend: 0x0, symName: __ZNSt3__110__function6__funcIZN7httplib6detail21write_content_chunkedIZNS2_6Server27write_content_with_providerERNS2_6StreamERKNS2_7RequestERNS2_8ResponseERKNS_12basic_stringIcNS_11char_traitsIcEENS_9allocatorIcEEEESK_EUlvE_NS3_10compressorEEEbS7_RKNS_8functionIFbmmRNS2_8DataSinkEEEERKT_RT0_RNS2_5ErrorEEUlvE_NSG_IS11_EEFbvEEclEv, symObjAddr: 0x1D8FA, symBinAddr: 0x10001DC8E, symSize: 0x10 }
  - { offset: 0x15C790, size: 0x8, addend: 0x0, symName: __ZNKSt3__110__function6__funcIZN7httplib6detail21write_content_chunkedIZNS2_6Server27write_content_with_providerERNS2_6StreamERKNS2_7RequestERNS2_8ResponseERKNS_12basic_stringIcNS_11char_traitsIcEENS_9allocatorIcEEEESK_EUlvE_NS3_10compressorEEEbS7_RKNS_8functionIFbmmRNS2_8DataSinkEEEERKT_RT0_RNS2_5ErrorEEUlvE_NSG_IS11_EEFbvEE6targetERKSt9type_info, symObjAddr: 0x1D90A, symBinAddr: 0x10001DC9E, symSize: 0x1C }
  - { offset: 0x15C804, size: 0x8, addend: 0x0, symName: __ZNKSt3__110__function6__funcIZN7httplib6detail21write_content_chunkedIZNS2_6Server27write_content_with_providerERNS2_6StreamERKNS2_7RequestERNS2_8ResponseERKNS_12basic_stringIcNS_11char_traitsIcEENS_9allocatorIcEEEESK_EUlvE_NS3_10compressorEEEbS7_RKNS_8functionIFbmmRNS2_8DataSinkEEEERKT_RT0_RNS2_5ErrorEEUlvE_NSG_IS11_EEFbvEE11target_typeEv, symObjAddr: 0x1D926, symBinAddr: 0x10001DCBA, symSize: 0xE }
  - { offset: 0x15C829, size: 0x8, addend: 0x0, symName: __ZNSt3__110__function6__funcIZN7httplib6detail21write_content_chunkedIZNS2_6Server27write_content_with_providerERNS2_6StreamERKNS2_7RequestERNS2_8ResponseERKNS_12basic_stringIcNS_11char_traitsIcEENS_9allocatorIcEEEESK_EUlvE_NS3_10compressorEEEbS7_RKNS_8functionIFbmmRNS2_8DataSinkEEEERKT_RT0_RNS2_5ErrorEEUlvE0_NSG_IS11_EEFvvEED1Ev, symObjAddr: 0x1D934, symBinAddr: 0x10001DCC8, symSize: 0x6 }
  - { offset: 0x15C855, size: 0x8, addend: 0x0, symName: __ZNSt3__110__function6__funcIZN7httplib6detail21write_content_chunkedIZNS2_6Server27write_content_with_providerERNS2_6StreamERKNS2_7RequestERNS2_8ResponseERKNS_12basic_stringIcNS_11char_traitsIcEENS_9allocatorIcEEEESK_EUlvE_NS3_10compressorEEEbS7_RKNS_8functionIFbmmRNS2_8DataSinkEEEERKT_RT0_RNS2_5ErrorEEUlvE0_NSG_IS11_EEFvvEED0Ev, symObjAddr: 0x1D93A, symBinAddr: 0x10001DCCE, symSize: 0xA }
  - { offset: 0x15C96B, size: 0x8, addend: 0x0, symName: __ZNKSt3__110__function6__funcIZN7httplib6detail21write_content_chunkedIZNS2_6Server27write_content_with_providerERNS2_6StreamERKNS2_7RequestERNS2_8ResponseERKNS_12basic_stringIcNS_11char_traitsIcEENS_9allocatorIcEEEESK_EUlvE_NS3_10compressorEEEbS7_RKNS_8functionIFbmmRNS2_8DataSinkEEEERKT_RT0_RNS2_5ErrorEEUlvE0_NSG_IS11_EEFvvEE7__cloneEv, symObjAddr: 0x1D944, symBinAddr: 0x10001DCD8, symSize: 0x2C }
  - { offset: 0x15CB8D, size: 0x8, addend: 0x0, symName: __ZNKSt3__110__function6__funcIZN7httplib6detail21write_content_chunkedIZNS2_6Server27write_content_with_providerERNS2_6StreamERKNS2_7RequestERNS2_8ResponseERKNS_12basic_stringIcNS_11char_traitsIcEENS_9allocatorIcEEEESK_EUlvE_NS3_10compressorEEEbS7_RKNS_8functionIFbmmRNS2_8DataSinkEEEERKT_RT0_RNS2_5ErrorEEUlvE0_NSG_IS11_EEFvvEE7__cloneEPNS0_6__baseIS13_EE, symObjAddr: 0x1D970, symBinAddr: 0x10001DD04, symSize: 0x18 }
  - { offset: 0x15CC90, size: 0x8, addend: 0x0, symName: __ZNSt3__110__function6__funcIZN7httplib6detail21write_content_chunkedIZNS2_6Server27write_content_with_providerERNS2_6StreamERKNS2_7RequestERNS2_8ResponseERKNS_12basic_stringIcNS_11char_traitsIcEENS_9allocatorIcEEEESK_EUlvE_NS3_10compressorEEEbS7_RKNS_8functionIFbmmRNS2_8DataSinkEEEERKT_RT0_RNS2_5ErrorEEUlvE0_NSG_IS11_EEFvvEE7destroyEv, symObjAddr: 0x1D988, symBinAddr: 0x10001DD1C, symSize: 0x6 }
  - { offset: 0x15CCE6, size: 0x8, addend: 0x0, symName: __ZNSt3__110__function6__funcIZN7httplib6detail21write_content_chunkedIZNS2_6Server27write_content_with_providerERNS2_6StreamERKNS2_7RequestERNS2_8ResponseERKNS_12basic_stringIcNS_11char_traitsIcEENS_9allocatorIcEEEESK_EUlvE_NS3_10compressorEEEbS7_RKNS_8functionIFbmmRNS2_8DataSinkEEEERKT_RT0_RNS2_5ErrorEEUlvE0_NSG_IS11_EEFvvEE18destroy_deallocateEv, symObjAddr: 0x1D98E, symBinAddr: 0x10001DD22, symSize: 0xA }
  - { offset: 0x15CDFD, size: 0x8, addend: 0x0, symName: __ZNSt3__110__function6__funcIZN7httplib6detail21write_content_chunkedIZNS2_6Server27write_content_with_providerERNS2_6StreamERKNS2_7RequestERNS2_8ResponseERKNS_12basic_stringIcNS_11char_traitsIcEENS_9allocatorIcEEEESK_EUlvE_NS3_10compressorEEEbS7_RKNS_8functionIFbmmRNS2_8DataSinkEEEERKT_RT0_RNS2_5ErrorEEUlvE0_NSG_IS11_EEFvvEEclEv, symObjAddr: 0x1D998, symBinAddr: 0x10001DD2C, symSize: 0x10 }
  - { offset: 0x15CEDB, size: 0x8, addend: 0x0, symName: __ZNKSt3__110__function6__funcIZN7httplib6detail21write_content_chunkedIZNS2_6Server27write_content_with_providerERNS2_6StreamERKNS2_7RequestERNS2_8ResponseERKNS_12basic_stringIcNS_11char_traitsIcEENS_9allocatorIcEEEESK_EUlvE_NS3_10compressorEEEbS7_RKNS_8functionIFbmmRNS2_8DataSinkEEEERKT_RT0_RNS2_5ErrorEEUlvE0_NSG_IS11_EEFvvEE6targetERKSt9type_info, symObjAddr: 0x1D9A8, symBinAddr: 0x10001DD3C, symSize: 0x1C }
  - { offset: 0x15CF4F, size: 0x8, addend: 0x0, symName: __ZNKSt3__110__function6__funcIZN7httplib6detail21write_content_chunkedIZNS2_6Server27write_content_with_providerERNS2_6StreamERKNS2_7RequestERNS2_8ResponseERKNS_12basic_stringIcNS_11char_traitsIcEENS_9allocatorIcEEEESK_EUlvE_NS3_10compressorEEEbS7_RKNS_8functionIFbmmRNS2_8DataSinkEEEERKT_RT0_RNS2_5ErrorEEUlvE0_NSG_IS11_EEFvvEE11target_typeEv, symObjAddr: 0x1D9C4, symBinAddr: 0x10001DD58, symSize: 0xE }
  - { offset: 0x15D180, size: 0x8, addend: 0x0, symName: __ZNSt3__110__function6__funcIZZN7httplib6detail21write_content_chunkedIZNS2_6Server27write_content_with_providerERNS2_6StreamERKNS2_7RequestERNS2_8ResponseERKNS_12basic_stringIcNS_11char_traitsIcEENS_9allocatorIcEEEESK_EUlvE_NS3_10compressorEEEbS7_RKNS_8functionIFbmmRNS2_8DataSinkEEEERKT_RT0_RNS2_5ErrorEENKUlPKNS_18unordered_multimapISI_SI_NS3_11case_ignore4hashENS12_8equal_toENSG_INS_4pairISJ_SI_EEEEEEE_clES1A_EUlPKcmE_NSG_IS1E_EEFbS1D_mEED1Ev, symObjAddr: 0x1DFF4, symBinAddr: 0x10001E388, symSize: 0x6 }
  - { offset: 0x15D1AC, size: 0x8, addend: 0x0, symName: __ZNSt3__110__function6__funcIZZN7httplib6detail21write_content_chunkedIZNS2_6Server27write_content_with_providerERNS2_6StreamERKNS2_7RequestERNS2_8ResponseERKNS_12basic_stringIcNS_11char_traitsIcEENS_9allocatorIcEEEESK_EUlvE_NS3_10compressorEEEbS7_RKNS_8functionIFbmmRNS2_8DataSinkEEEERKT_RT0_RNS2_5ErrorEENKUlPKNS_18unordered_multimapISI_SI_NS3_11case_ignore4hashENS12_8equal_toENSG_INS_4pairISJ_SI_EEEEEEE_clES1A_EUlPKcmE_NSG_IS1E_EEFbS1D_mEED0Ev, symObjAddr: 0x1DFFA, symBinAddr: 0x10001E38E, symSize: 0xA }
  - { offset: 0x15D2C2, size: 0x8, addend: 0x0, symName: __ZNKSt3__110__function6__funcIZZN7httplib6detail21write_content_chunkedIZNS2_6Server27write_content_with_providerERNS2_6StreamERKNS2_7RequestERNS2_8ResponseERKNS_12basic_stringIcNS_11char_traitsIcEENS_9allocatorIcEEEESK_EUlvE_NS3_10compressorEEEbS7_RKNS_8functionIFbmmRNS2_8DataSinkEEEERKT_RT0_RNS2_5ErrorEENKUlPKNS_18unordered_multimapISI_SI_NS3_11case_ignore4hashENS12_8equal_toENSG_INS_4pairISJ_SI_EEEEEEE_clES1A_EUlPKcmE_NSG_IS1E_EEFbS1D_mEE7__cloneEv, symObjAddr: 0x1E004, symBinAddr: 0x10001E398, symSize: 0x2C }
  - { offset: 0x15D4E4, size: 0x8, addend: 0x0, symName: __ZNKSt3__110__function6__funcIZZN7httplib6detail21write_content_chunkedIZNS2_6Server27write_content_with_providerERNS2_6StreamERKNS2_7RequestERNS2_8ResponseERKNS_12basic_stringIcNS_11char_traitsIcEENS_9allocatorIcEEEESK_EUlvE_NS3_10compressorEEEbS7_RKNS_8functionIFbmmRNS2_8DataSinkEEEERKT_RT0_RNS2_5ErrorEENKUlPKNS_18unordered_multimapISI_SI_NS3_11case_ignore4hashENS12_8equal_toENSG_INS_4pairISJ_SI_EEEEEEE_clES1A_EUlPKcmE_NSG_IS1E_EEFbS1D_mEE7__cloneEPNS0_6__baseIS1G_EE, symObjAddr: 0x1E030, symBinAddr: 0x10001E3C4, symSize: 0x18 }
  - { offset: 0x15D5E7, size: 0x8, addend: 0x0, symName: __ZNSt3__110__function6__funcIZZN7httplib6detail21write_content_chunkedIZNS2_6Server27write_content_with_providerERNS2_6StreamERKNS2_7RequestERNS2_8ResponseERKNS_12basic_stringIcNS_11char_traitsIcEENS_9allocatorIcEEEESK_EUlvE_NS3_10compressorEEEbS7_RKNS_8functionIFbmmRNS2_8DataSinkEEEERKT_RT0_RNS2_5ErrorEENKUlPKNS_18unordered_multimapISI_SI_NS3_11case_ignore4hashENS12_8equal_toENSG_INS_4pairISJ_SI_EEEEEEE_clES1A_EUlPKcmE_NSG_IS1E_EEFbS1D_mEE7destroyEv, symObjAddr: 0x1E048, symBinAddr: 0x10001E3DC, symSize: 0x6 }
  - { offset: 0x15D63D, size: 0x8, addend: 0x0, symName: __ZNSt3__110__function6__funcIZZN7httplib6detail21write_content_chunkedIZNS2_6Server27write_content_with_providerERNS2_6StreamERKNS2_7RequestERNS2_8ResponseERKNS_12basic_stringIcNS_11char_traitsIcEENS_9allocatorIcEEEESK_EUlvE_NS3_10compressorEEEbS7_RKNS_8functionIFbmmRNS2_8DataSinkEEEERKT_RT0_RNS2_5ErrorEENKUlPKNS_18unordered_multimapISI_SI_NS3_11case_ignore4hashENS12_8equal_toENSG_INS_4pairISJ_SI_EEEEEEE_clES1A_EUlPKcmE_NSG_IS1E_EEFbS1D_mEE18destroy_deallocateEv, symObjAddr: 0x1E04E, symBinAddr: 0x10001E3E2, symSize: 0xA }
  - { offset: 0x15D7A2, size: 0x8, addend: 0x0, symName: __ZNSt3__110__function6__funcIZZN7httplib6detail21write_content_chunkedIZNS2_6Server27write_content_with_providerERNS2_6StreamERKNS2_7RequestERNS2_8ResponseERKNS_12basic_stringIcNS_11char_traitsIcEENS_9allocatorIcEEEESK_EUlvE_NS3_10compressorEEEbS7_RKNS_8functionIFbmmRNS2_8DataSinkEEEERKT_RT0_RNS2_5ErrorEENKUlPKNS_18unordered_multimapISI_SI_NS3_11case_ignore4hashENS12_8equal_toENSG_INS_4pairISJ_SI_EEEEEEE_clES1A_EUlPKcmE_NSG_IS1E_EEFbS1D_mEEclEOS1D_Om, symObjAddr: 0x1E058, symBinAddr: 0x10001E3EC, symSize: 0x18 }
  - { offset: 0x15D8ED, size: 0x8, addend: 0x0, symName: __ZNKSt3__110__function6__funcIZZN7httplib6detail21write_content_chunkedIZNS2_6Server27write_content_with_providerERNS2_6StreamERKNS2_7RequestERNS2_8ResponseERKNS_12basic_stringIcNS_11char_traitsIcEENS_9allocatorIcEEEESK_EUlvE_NS3_10compressorEEEbS7_RKNS_8functionIFbmmRNS2_8DataSinkEEEERKT_RT0_RNS2_5ErrorEENKUlPKNS_18unordered_multimapISI_SI_NS3_11case_ignore4hashENS12_8equal_toENSG_INS_4pairISJ_SI_EEEEEEE_clES1A_EUlPKcmE_NSG_IS1E_EEFbS1D_mEE6targetERKSt9type_info, symObjAddr: 0x1E070, symBinAddr: 0x10001E404, symSize: 0x1C }
  - { offset: 0x15D961, size: 0x8, addend: 0x0, symName: __ZNKSt3__110__function6__funcIZZN7httplib6detail21write_content_chunkedIZNS2_6Server27write_content_with_providerERNS2_6StreamERKNS2_7RequestERNS2_8ResponseERKNS_12basic_stringIcNS_11char_traitsIcEENS_9allocatorIcEEEESK_EUlvE_NS3_10compressorEEEbS7_RKNS_8functionIFbmmRNS2_8DataSinkEEEERKT_RT0_RNS2_5ErrorEENKUlPKNS_18unordered_multimapISI_SI_NS3_11case_ignore4hashENS12_8equal_toENSG_INS_4pairISJ_SI_EEEEEEE_clES1A_EUlPKcmE_NSG_IS1E_EEFbS1D_mEE11target_typeEv, symObjAddr: 0x1E08C, symBinAddr: 0x10001E420, symSize: 0xE }
  - { offset: 0x15D986, size: 0x8, addend: 0x0, symName: __ZNSt3__110__function6__funcIZN7httplib6detail21write_content_chunkedIZNS2_6Server27write_content_with_providerERNS2_6StreamERKNS2_7RequestERNS2_8ResponseERKNS_12basic_stringIcNS_11char_traitsIcEENS_9allocatorIcEEEESK_EUlvE_NS3_10compressorEEEbS7_RKNS_8functionIFbmmRNS2_8DataSinkEEEERKT_RT0_RNS2_5ErrorEEUlRKNS_18unordered_multimapISI_SI_NS3_11case_ignore4hashENS12_8equal_toENSG_INS_4pairISJ_SI_EEEEEEE_NSG_IS1B_EEFvS1A_EED1Ev, symObjAddr: 0x1E09A, symBinAddr: 0x10001E42E, symSize: 0x6 }
  - { offset: 0x15D9B2, size: 0x8, addend: 0x0, symName: __ZNSt3__110__function6__funcIZN7httplib6detail21write_content_chunkedIZNS2_6Server27write_content_with_providerERNS2_6StreamERKNS2_7RequestERNS2_8ResponseERKNS_12basic_stringIcNS_11char_traitsIcEENS_9allocatorIcEEEESK_EUlvE_NS3_10compressorEEEbS7_RKNS_8functionIFbmmRNS2_8DataSinkEEEERKT_RT0_RNS2_5ErrorEEUlRKNS_18unordered_multimapISI_SI_NS3_11case_ignore4hashENS12_8equal_toENSG_INS_4pairISJ_SI_EEEEEEE_NSG_IS1B_EEFvS1A_EED0Ev, symObjAddr: 0x1E0A0, symBinAddr: 0x10001E434, symSize: 0xA }
  - { offset: 0x15DAC8, size: 0x8, addend: 0x0, symName: __ZNKSt3__110__function6__funcIZN7httplib6detail21write_content_chunkedIZNS2_6Server27write_content_with_providerERNS2_6StreamERKNS2_7RequestERNS2_8ResponseERKNS_12basic_stringIcNS_11char_traitsIcEENS_9allocatorIcEEEESK_EUlvE_NS3_10compressorEEEbS7_RKNS_8functionIFbmmRNS2_8DataSinkEEEERKT_RT0_RNS2_5ErrorEEUlRKNS_18unordered_multimapISI_SI_NS3_11case_ignore4hashENS12_8equal_toENSG_INS_4pairISJ_SI_EEEEEEE_NSG_IS1B_EEFvS1A_EE7__cloneEv, symObjAddr: 0x1E0AA, symBinAddr: 0x10001E43E, symSize: 0x2C }
  - { offset: 0x15DCEA, size: 0x8, addend: 0x0, symName: __ZNKSt3__110__function6__funcIZN7httplib6detail21write_content_chunkedIZNS2_6Server27write_content_with_providerERNS2_6StreamERKNS2_7RequestERNS2_8ResponseERKNS_12basic_stringIcNS_11char_traitsIcEENS_9allocatorIcEEEESK_EUlvE_NS3_10compressorEEEbS7_RKNS_8functionIFbmmRNS2_8DataSinkEEEERKT_RT0_RNS2_5ErrorEEUlRKNS_18unordered_multimapISI_SI_NS3_11case_ignore4hashENS12_8equal_toENSG_INS_4pairISJ_SI_EEEEEEE_NSG_IS1B_EEFvS1A_EE7__cloneEPNS0_6__baseIS1D_EE, symObjAddr: 0x1E0D6, symBinAddr: 0x10001E46A, symSize: 0x18 }
  - { offset: 0x15DDED, size: 0x8, addend: 0x0, symName: __ZNSt3__110__function6__funcIZN7httplib6detail21write_content_chunkedIZNS2_6Server27write_content_with_providerERNS2_6StreamERKNS2_7RequestERNS2_8ResponseERKNS_12basic_stringIcNS_11char_traitsIcEENS_9allocatorIcEEEESK_EUlvE_NS3_10compressorEEEbS7_RKNS_8functionIFbmmRNS2_8DataSinkEEEERKT_RT0_RNS2_5ErrorEEUlRKNS_18unordered_multimapISI_SI_NS3_11case_ignore4hashENS12_8equal_toENSG_INS_4pairISJ_SI_EEEEEEE_NSG_IS1B_EEFvS1A_EE7destroyEv, symObjAddr: 0x1E0EE, symBinAddr: 0x10001E482, symSize: 0x6 }
  - { offset: 0x15DE43, size: 0x8, addend: 0x0, symName: __ZNSt3__110__function6__funcIZN7httplib6detail21write_content_chunkedIZNS2_6Server27write_content_with_providerERNS2_6StreamERKNS2_7RequestERNS2_8ResponseERKNS_12basic_stringIcNS_11char_traitsIcEENS_9allocatorIcEEEESK_EUlvE_NS3_10compressorEEEbS7_RKNS_8functionIFbmmRNS2_8DataSinkEEEERKT_RT0_RNS2_5ErrorEEUlRKNS_18unordered_multimapISI_SI_NS3_11case_ignore4hashENS12_8equal_toENSG_INS_4pairISJ_SI_EEEEEEE_NSG_IS1B_EEFvS1A_EE18destroy_deallocateEv, symObjAddr: 0x1E0F4, symBinAddr: 0x10001E488, symSize: 0xA }
  - { offset: 0x15DF81, size: 0x8, addend: 0x0, symName: __ZNSt3__110__function6__funcIZN7httplib6detail21write_content_chunkedIZNS2_6Server27write_content_with_providerERNS2_6StreamERKNS2_7RequestERNS2_8ResponseERKNS_12basic_stringIcNS_11char_traitsIcEENS_9allocatorIcEEEESK_EUlvE_NS3_10compressorEEEbS7_RKNS_8functionIFbmmRNS2_8DataSinkEEEERKT_RT0_RNS2_5ErrorEEUlRKNS_18unordered_multimapISI_SI_NS3_11case_ignore4hashENS12_8equal_toENSG_INS_4pairISJ_SI_EEEEEEE_NSG_IS1B_EEFvS1A_EEclES1A_, symObjAddr: 0x1E0FE, symBinAddr: 0x10001E492, symSize: 0xE }
  - { offset: 0x15E098, size: 0x8, addend: 0x0, symName: __ZNKSt3__110__function6__funcIZN7httplib6detail21write_content_chunkedIZNS2_6Server27write_content_with_providerERNS2_6StreamERKNS2_7RequestERNS2_8ResponseERKNS_12basic_stringIcNS_11char_traitsIcEENS_9allocatorIcEEEESK_EUlvE_NS3_10compressorEEEbS7_RKNS_8functionIFbmmRNS2_8DataSinkEEEERKT_RT0_RNS2_5ErrorEEUlRKNS_18unordered_multimapISI_SI_NS3_11case_ignore4hashENS12_8equal_toENSG_INS_4pairISJ_SI_EEEEEEE_NSG_IS1B_EEFvS1A_EE6targetERKSt9type_info, symObjAddr: 0x1E10C, symBinAddr: 0x10001E4A0, symSize: 0x1C }
  - { offset: 0x15E10C, size: 0x8, addend: 0x0, symName: __ZNKSt3__110__function6__funcIZN7httplib6detail21write_content_chunkedIZNS2_6Server27write_content_with_providerERNS2_6StreamERKNS2_7RequestERNS2_8ResponseERKNS_12basic_stringIcNS_11char_traitsIcEENS_9allocatorIcEEEESK_EUlvE_NS3_10compressorEEEbS7_RKNS_8functionIFbmmRNS2_8DataSinkEEEERKT_RT0_RNS2_5ErrorEEUlRKNS_18unordered_multimapISI_SI_NS3_11case_ignore4hashENS12_8equal_toENSG_INS_4pairISJ_SI_EEEEEEE_NSG_IS1B_EEFvS1A_EE11target_typeEv, symObjAddr: 0x1E128, symBinAddr: 0x10001E4BC, symSize: 0xE }
  - { offset: 0x15E6FB, size: 0x8, addend: 0x0, symName: __ZNSt3__110__function6__funcIZN7httplib6detail28write_content_without_lengthIZNS2_6Server27write_content_with_providerERNS2_6StreamERKNS2_7RequestERNS2_8ResponseERKNS_12basic_stringIcNS_11char_traitsIcEENS_9allocatorIcEEEESK_EUlvE_EEbS7_RKNS_8functionIFbmmRNS2_8DataSinkEEEERKT_EUlPKcmE_NSG_ISY_EEFbSX_mEED1Ev, symObjAddr: 0x1E3DA, symBinAddr: 0x10001E76E, symSize: 0x6 }
  - { offset: 0x15E727, size: 0x8, addend: 0x0, symName: __ZNSt3__110__function6__funcIZN7httplib6detail28write_content_without_lengthIZNS2_6Server27write_content_with_providerERNS2_6StreamERKNS2_7RequestERNS2_8ResponseERKNS_12basic_stringIcNS_11char_traitsIcEENS_9allocatorIcEEEESK_EUlvE_EEbS7_RKNS_8functionIFbmmRNS2_8DataSinkEEEERKT_EUlPKcmE_NSG_ISY_EEFbSX_mEED0Ev, symObjAddr: 0x1E3E0, symBinAddr: 0x10001E774, symSize: 0xA }
  - { offset: 0x15E83D, size: 0x8, addend: 0x0, symName: __ZNKSt3__110__function6__funcIZN7httplib6detail28write_content_without_lengthIZNS2_6Server27write_content_with_providerERNS2_6StreamERKNS2_7RequestERNS2_8ResponseERKNS_12basic_stringIcNS_11char_traitsIcEENS_9allocatorIcEEEESK_EUlvE_EEbS7_RKNS_8functionIFbmmRNS2_8DataSinkEEEERKT_EUlPKcmE_NSG_ISY_EEFbSX_mEE7__cloneEv, symObjAddr: 0x1E3EA, symBinAddr: 0x10001E77E, symSize: 0x34 }
  - { offset: 0x15EA5F, size: 0x8, addend: 0x0, symName: __ZNKSt3__110__function6__funcIZN7httplib6detail28write_content_without_lengthIZNS2_6Server27write_content_with_providerERNS2_6StreamERKNS2_7RequestERNS2_8ResponseERKNS_12basic_stringIcNS_11char_traitsIcEENS_9allocatorIcEEEESK_EUlvE_EEbS7_RKNS_8functionIFbmmRNS2_8DataSinkEEEERKT_EUlPKcmE_NSG_ISY_EEFbSX_mEE7__cloneEPNS0_6__baseIS10_EE, symObjAddr: 0x1E41E, symBinAddr: 0x10001E7B2, symSize: 0x20 }
  - { offset: 0x15EB62, size: 0x8, addend: 0x0, symName: __ZNSt3__110__function6__funcIZN7httplib6detail28write_content_without_lengthIZNS2_6Server27write_content_with_providerERNS2_6StreamERKNS2_7RequestERNS2_8ResponseERKNS_12basic_stringIcNS_11char_traitsIcEENS_9allocatorIcEEEESK_EUlvE_EEbS7_RKNS_8functionIFbmmRNS2_8DataSinkEEEERKT_EUlPKcmE_NSG_ISY_EEFbSX_mEE7destroyEv, symObjAddr: 0x1E43E, symBinAddr: 0x10001E7D2, symSize: 0x6 }
  - { offset: 0x15EBB8, size: 0x8, addend: 0x0, symName: __ZNSt3__110__function6__funcIZN7httplib6detail28write_content_without_lengthIZNS2_6Server27write_content_with_providerERNS2_6StreamERKNS2_7RequestERNS2_8ResponseERKNS_12basic_stringIcNS_11char_traitsIcEENS_9allocatorIcEEEESK_EUlvE_EEbS7_RKNS_8functionIFbmmRNS2_8DataSinkEEEERKT_EUlPKcmE_NSG_ISY_EEFbSX_mEE18destroy_deallocateEv, symObjAddr: 0x1E444, symBinAddr: 0x10001E7D8, symSize: 0xA }
  - { offset: 0x15ECA4, size: 0x8, addend: 0x0, symName: __ZNSt3__110__function6__funcIZN7httplib6detail28write_content_without_lengthIZNS2_6Server27write_content_with_providerERNS2_6StreamERKNS2_7RequestERNS2_8ResponseERKNS_12basic_stringIcNS_11char_traitsIcEENS_9allocatorIcEEEESK_EUlvE_EEbS7_RKNS_8functionIFbmmRNS2_8DataSinkEEEERKT_EUlPKcmE_NSG_ISY_EEFbSX_mEEclEOSX_Om, symObjAddr: 0x1E44E, symBinAddr: 0x10001E7E2, symSize: 0xE }
  - { offset: 0x15ED65, size: 0x8, addend: 0x0, symName: __ZNSt3__128__invoke_void_return_wrapperIbLb0EE6__callB8ne200100IJRZN7httplib6detail28write_content_without_lengthIZNS3_6Server27write_content_with_providerERNS3_6StreamERKNS3_7RequestERNS3_8ResponseERKNS_12basic_stringIcNS_11char_traitsIcEENS_9allocatorIcEEEESL_EUlvE_EEbS8_RKNS_8functionIFbmmRNS3_8DataSinkEEEERKT_EUlPKcmE_SY_mEEEbDpOT_, symObjAddr: 0x1E486, symBinAddr: 0x10001E81A, symSize: 0x6C }
  - { offset: 0x15EE8F, size: 0x8, addend: 0x0, symName: __ZNKSt3__110__function6__funcIZN7httplib6detail28write_content_without_lengthIZNS2_6Server27write_content_with_providerERNS2_6StreamERKNS2_7RequestERNS2_8ResponseERKNS_12basic_stringIcNS_11char_traitsIcEENS_9allocatorIcEEEESK_EUlvE_EEbS7_RKNS_8functionIFbmmRNS2_8DataSinkEEEERKT_EUlPKcmE_NSG_ISY_EEFbSX_mEE6targetERKSt9type_info, symObjAddr: 0x1E45C, symBinAddr: 0x10001E7F0, symSize: 0x1C }
  - { offset: 0x15EF03, size: 0x8, addend: 0x0, symName: __ZNKSt3__110__function6__funcIZN7httplib6detail28write_content_without_lengthIZNS2_6Server27write_content_with_providerERNS2_6StreamERKNS2_7RequestERNS2_8ResponseERKNS_12basic_stringIcNS_11char_traitsIcEENS_9allocatorIcEEEESK_EUlvE_EEbS7_RKNS_8functionIFbmmRNS2_8DataSinkEEEERKT_EUlPKcmE_NSG_ISY_EEFbSX_mEE11target_typeEv, symObjAddr: 0x1E478, symBinAddr: 0x10001E80C, symSize: 0xE }
  - { offset: 0x15EF5F, size: 0x8, addend: 0x0, symName: __ZNSt3__110__function6__funcIZN7httplib6detail28write_content_without_lengthIZNS2_6Server27write_content_with_providerERNS2_6StreamERKNS2_7RequestERNS2_8ResponseERKNS_12basic_stringIcNS_11char_traitsIcEENS_9allocatorIcEEEESK_EUlvE_EEbS7_RKNS_8functionIFbmmRNS2_8DataSinkEEEERKT_EUlvE_NSG_ISW_EEFbvEED1Ev, symObjAddr: 0x1E4F2, symBinAddr: 0x10001E886, symSize: 0x6 }
  - { offset: 0x15EF8B, size: 0x8, addend: 0x0, symName: __ZNSt3__110__function6__funcIZN7httplib6detail28write_content_without_lengthIZNS2_6Server27write_content_with_providerERNS2_6StreamERKNS2_7RequestERNS2_8ResponseERKNS_12basic_stringIcNS_11char_traitsIcEENS_9allocatorIcEEEESK_EUlvE_EEbS7_RKNS_8functionIFbmmRNS2_8DataSinkEEEERKT_EUlvE_NSG_ISW_EEFbvEED0Ev, symObjAddr: 0x1E4F8, symBinAddr: 0x10001E88C, symSize: 0xA }
  - { offset: 0x15F0A1, size: 0x8, addend: 0x0, symName: __ZNKSt3__110__function6__funcIZN7httplib6detail28write_content_without_lengthIZNS2_6Server27write_content_with_providerERNS2_6StreamERKNS2_7RequestERNS2_8ResponseERKNS_12basic_stringIcNS_11char_traitsIcEENS_9allocatorIcEEEESK_EUlvE_EEbS7_RKNS_8functionIFbmmRNS2_8DataSinkEEEERKT_EUlvE_NSG_ISW_EEFbvEE7__cloneEv, symObjAddr: 0x1E502, symBinAddr: 0x10001E896, symSize: 0x2C }
  - { offset: 0x15F2C3, size: 0x8, addend: 0x0, symName: __ZNKSt3__110__function6__funcIZN7httplib6detail28write_content_without_lengthIZNS2_6Server27write_content_with_providerERNS2_6StreamERKNS2_7RequestERNS2_8ResponseERKNS_12basic_stringIcNS_11char_traitsIcEENS_9allocatorIcEEEESK_EUlvE_EEbS7_RKNS_8functionIFbmmRNS2_8DataSinkEEEERKT_EUlvE_NSG_ISW_EEFbvEE7__cloneEPNS0_6__baseISY_EE, symObjAddr: 0x1E52E, symBinAddr: 0x10001E8C2, symSize: 0x18 }
  - { offset: 0x15F3C6, size: 0x8, addend: 0x0, symName: __ZNSt3__110__function6__funcIZN7httplib6detail28write_content_without_lengthIZNS2_6Server27write_content_with_providerERNS2_6StreamERKNS2_7RequestERNS2_8ResponseERKNS_12basic_stringIcNS_11char_traitsIcEENS_9allocatorIcEEEESK_EUlvE_EEbS7_RKNS_8functionIFbmmRNS2_8DataSinkEEEERKT_EUlvE_NSG_ISW_EEFbvEE7destroyEv, symObjAddr: 0x1E546, symBinAddr: 0x10001E8DA, symSize: 0x6 }
  - { offset: 0x15F41C, size: 0x8, addend: 0x0, symName: __ZNSt3__110__function6__funcIZN7httplib6detail28write_content_without_lengthIZNS2_6Server27write_content_with_providerERNS2_6StreamERKNS2_7RequestERNS2_8ResponseERKNS_12basic_stringIcNS_11char_traitsIcEENS_9allocatorIcEEEESK_EUlvE_EEbS7_RKNS_8functionIFbmmRNS2_8DataSinkEEEERKT_EUlvE_NSG_ISW_EEFbvEE18destroy_deallocateEv, symObjAddr: 0x1E54C, symBinAddr: 0x10001E8E0, symSize: 0xA }
  - { offset: 0x15F52E, size: 0x8, addend: 0x0, symName: __ZNSt3__110__function6__funcIZN7httplib6detail28write_content_without_lengthIZNS2_6Server27write_content_with_providerERNS2_6StreamERKNS2_7RequestERNS2_8ResponseERKNS_12basic_stringIcNS_11char_traitsIcEENS_9allocatorIcEEEESK_EUlvE_EEbS7_RKNS_8functionIFbmmRNS2_8DataSinkEEEERKT_EUlvE_NSG_ISW_EEFbvEEclEv, symObjAddr: 0x1E556, symBinAddr: 0x10001E8EA, symSize: 0x10 }
  - { offset: 0x15F603, size: 0x8, addend: 0x0, symName: __ZNKSt3__110__function6__funcIZN7httplib6detail28write_content_without_lengthIZNS2_6Server27write_content_with_providerERNS2_6StreamERKNS2_7RequestERNS2_8ResponseERKNS_12basic_stringIcNS_11char_traitsIcEENS_9allocatorIcEEEESK_EUlvE_EEbS7_RKNS_8functionIFbmmRNS2_8DataSinkEEEERKT_EUlvE_NSG_ISW_EEFbvEE6targetERKSt9type_info, symObjAddr: 0x1E566, symBinAddr: 0x10001E8FA, symSize: 0x1C }
  - { offset: 0x15F677, size: 0x8, addend: 0x0, symName: __ZNKSt3__110__function6__funcIZN7httplib6detail28write_content_without_lengthIZNS2_6Server27write_content_with_providerERNS2_6StreamERKNS2_7RequestERNS2_8ResponseERKNS_12basic_stringIcNS_11char_traitsIcEENS_9allocatorIcEEEESK_EUlvE_EEbS7_RKNS_8functionIFbmmRNS2_8DataSinkEEEERKT_EUlvE_NSG_ISW_EEFbvEE11target_typeEv, symObjAddr: 0x1E582, symBinAddr: 0x10001E916, symSize: 0xE }
  - { offset: 0x15F69C, size: 0x8, addend: 0x0, symName: __ZNSt3__110__function6__funcIZN7httplib6detail28write_content_without_lengthIZNS2_6Server27write_content_with_providerERNS2_6StreamERKNS2_7RequestERNS2_8ResponseERKNS_12basic_stringIcNS_11char_traitsIcEENS_9allocatorIcEEEESK_EUlvE_EEbS7_RKNS_8functionIFbmmRNS2_8DataSinkEEEERKT_EUlvE0_NSG_ISW_EEFvvEED1Ev, symObjAddr: 0x1E590, symBinAddr: 0x10001E924, symSize: 0x6 }
  - { offset: 0x15F6C8, size: 0x8, addend: 0x0, symName: __ZNSt3__110__function6__funcIZN7httplib6detail28write_content_without_lengthIZNS2_6Server27write_content_with_providerERNS2_6StreamERKNS2_7RequestERNS2_8ResponseERKNS_12basic_stringIcNS_11char_traitsIcEENS_9allocatorIcEEEESK_EUlvE_EEbS7_RKNS_8functionIFbmmRNS2_8DataSinkEEEERKT_EUlvE0_NSG_ISW_EEFvvEED0Ev, symObjAddr: 0x1E596, symBinAddr: 0x10001E92A, symSize: 0xA }
  - { offset: 0x15F7DE, size: 0x8, addend: 0x0, symName: __ZNKSt3__110__function6__funcIZN7httplib6detail28write_content_without_lengthIZNS2_6Server27write_content_with_providerERNS2_6StreamERKNS2_7RequestERNS2_8ResponseERKNS_12basic_stringIcNS_11char_traitsIcEENS_9allocatorIcEEEESK_EUlvE_EEbS7_RKNS_8functionIFbmmRNS2_8DataSinkEEEERKT_EUlvE0_NSG_ISW_EEFvvEE7__cloneEv, symObjAddr: 0x1E5A0, symBinAddr: 0x10001E934, symSize: 0x2C }
  - { offset: 0x15FA00, size: 0x8, addend: 0x0, symName: __ZNKSt3__110__function6__funcIZN7httplib6detail28write_content_without_lengthIZNS2_6Server27write_content_with_providerERNS2_6StreamERKNS2_7RequestERNS2_8ResponseERKNS_12basic_stringIcNS_11char_traitsIcEENS_9allocatorIcEEEESK_EUlvE_EEbS7_RKNS_8functionIFbmmRNS2_8DataSinkEEEERKT_EUlvE0_NSG_ISW_EEFvvEE7__cloneEPNS0_6__baseISY_EE, symObjAddr: 0x1E5CC, symBinAddr: 0x10001E960, symSize: 0x18 }
  - { offset: 0x15FB03, size: 0x8, addend: 0x0, symName: __ZNSt3__110__function6__funcIZN7httplib6detail28write_content_without_lengthIZNS2_6Server27write_content_with_providerERNS2_6StreamERKNS2_7RequestERNS2_8ResponseERKNS_12basic_stringIcNS_11char_traitsIcEENS_9allocatorIcEEEESK_EUlvE_EEbS7_RKNS_8functionIFbmmRNS2_8DataSinkEEEERKT_EUlvE0_NSG_ISW_EEFvvEE7destroyEv, symObjAddr: 0x1E5E4, symBinAddr: 0x10001E978, symSize: 0x6 }
  - { offset: 0x15FB59, size: 0x8, addend: 0x0, symName: __ZNSt3__110__function6__funcIZN7httplib6detail28write_content_without_lengthIZNS2_6Server27write_content_with_providerERNS2_6StreamERKNS2_7RequestERNS2_8ResponseERKNS_12basic_stringIcNS_11char_traitsIcEENS_9allocatorIcEEEESK_EUlvE_EEbS7_RKNS_8functionIFbmmRNS2_8DataSinkEEEERKT_EUlvE0_NSG_ISW_EEFvvEE18destroy_deallocateEv, symObjAddr: 0x1E5EA, symBinAddr: 0x10001E97E, symSize: 0xA }
  - { offset: 0x15FC70, size: 0x8, addend: 0x0, symName: __ZNSt3__110__function6__funcIZN7httplib6detail28write_content_without_lengthIZNS2_6Server27write_content_with_providerERNS2_6StreamERKNS2_7RequestERNS2_8ResponseERKNS_12basic_stringIcNS_11char_traitsIcEENS_9allocatorIcEEEESK_EUlvE_EEbS7_RKNS_8functionIFbmmRNS2_8DataSinkEEEERKT_EUlvE0_NSG_ISW_EEFvvEEclEv, symObjAddr: 0x1E5F4, symBinAddr: 0x10001E988, symSize: 0xE }
  - { offset: 0x15FD37, size: 0x8, addend: 0x0, symName: __ZNKSt3__110__function6__funcIZN7httplib6detail28write_content_without_lengthIZNS2_6Server27write_content_with_providerERNS2_6StreamERKNS2_7RequestERNS2_8ResponseERKNS_12basic_stringIcNS_11char_traitsIcEENS_9allocatorIcEEEESK_EUlvE_EEbS7_RKNS_8functionIFbmmRNS2_8DataSinkEEEERKT_EUlvE0_NSG_ISW_EEFvvEE6targetERKSt9type_info, symObjAddr: 0x1E602, symBinAddr: 0x10001E996, symSize: 0x1C }
  - { offset: 0x15FDAB, size: 0x8, addend: 0x0, symName: __ZNKSt3__110__function6__funcIZN7httplib6detail28write_content_without_lengthIZNS2_6Server27write_content_with_providerERNS2_6StreamERKNS2_7RequestERNS2_8ResponseERKNS_12basic_stringIcNS_11char_traitsIcEENS_9allocatorIcEEEESK_EUlvE_EEbS7_RKNS_8functionIFbmmRNS2_8DataSinkEEEERKT_EUlvE0_NSG_ISW_EEFvvEE11target_typeEv, symObjAddr: 0x1E61E, symBinAddr: 0x10001E9B2, symSize: 0xE }
  - { offset: 0x15FE39, size: 0x8, addend: 0x0, symName: __ZNSt3__13setINS_12basic_stringIcNS_11char_traitsIcEENS_9allocatorIcEEEENS_4lessIS6_EENS4_IS6_EEED1B8ne200100Ev, symObjAddr: 0x1E62C, symBinAddr: 0x10001E9C0, symSize: 0xE }
  - { offset: 0x15FEED, size: 0x8, addend: 0x0, symName: __ZNSt3__16__treeINS_12basic_stringIcNS_11char_traitsIcEENS_9allocatorIcEEEENS_4lessIS6_EENS4_IS6_EEE7destroyEPNS_11__tree_nodeIS6_PvEE, symObjAddr: 0x1EE8C, symBinAddr: 0x10001F1F0, symSize: 0x42 }
  - { offset: 0x1601CD, size: 0x8, addend: 0x0, symName: __ZNSt3__110__function12__value_funcIFvPKcS3_EEC2B8ne200100EOS5_, symObjAddr: 0x1E7C6, symBinAddr: 0x10001EB2A, symSize: 0x4A }
  - { offset: 0x16020B, size: 0x8, addend: 0x0, symName: __ZNSt3__110__function6__funcIZNK7httplib6Server18parse_request_lineEPKcRNS2_7RequestEEUlS5_S5_E_NS_9allocatorIS8_EEFvS5_S5_EED1Ev, symObjAddr: 0x1E810, symBinAddr: 0x10001EB74, symSize: 0x6 }
  - { offset: 0x160237, size: 0x8, addend: 0x0, symName: __ZNSt3__110__function6__funcIZNK7httplib6Server18parse_request_lineEPKcRNS2_7RequestEEUlS5_S5_E_NS_9allocatorIS8_EEFvS5_S5_EED0Ev, symObjAddr: 0x1E816, symBinAddr: 0x10001EB7A, symSize: 0xA }
  - { offset: 0x16034D, size: 0x8, addend: 0x0, symName: __ZNKSt3__110__function6__funcIZNK7httplib6Server18parse_request_lineEPKcRNS2_7RequestEEUlS5_S5_E_NS_9allocatorIS8_EEFvS5_S5_EE7__cloneEv, symObjAddr: 0x1E820, symBinAddr: 0x10001EB84, symSize: 0x2C }
  - { offset: 0x16056F, size: 0x8, addend: 0x0, symName: __ZNKSt3__110__function6__funcIZNK7httplib6Server18parse_request_lineEPKcRNS2_7RequestEEUlS5_S5_E_NS_9allocatorIS8_EEFvS5_S5_EE7__cloneEPNS0_6__baseISB_EE, symObjAddr: 0x1E84C, symBinAddr: 0x10001EBB0, symSize: 0x18 }
  - { offset: 0x160672, size: 0x8, addend: 0x0, symName: __ZNSt3__110__function6__funcIZNK7httplib6Server18parse_request_lineEPKcRNS2_7RequestEEUlS5_S5_E_NS_9allocatorIS8_EEFvS5_S5_EE7destroyEv, symObjAddr: 0x1E864, symBinAddr: 0x10001EBC8, symSize: 0x6 }
  - { offset: 0x1606C8, size: 0x8, addend: 0x0, symName: __ZNSt3__110__function6__funcIZNK7httplib6Server18parse_request_lineEPKcRNS2_7RequestEEUlS5_S5_E_NS_9allocatorIS8_EEFvS5_S5_EE18destroy_deallocateEv, symObjAddr: 0x1E86A, symBinAddr: 0x10001EBCE, symSize: 0xA }
  - { offset: 0x1607F1, size: 0x8, addend: 0x0, symName: __ZNSt3__110__function6__funcIZNK7httplib6Server18parse_request_lineEPKcRNS2_7RequestEEUlS5_S5_E_NS_9allocatorIS8_EEFvS5_S5_EEclEOS5_SD_, symObjAddr: 0x1E874, symBinAddr: 0x10001EBD8, symSize: 0x14 }
  - { offset: 0x160917, size: 0x8, addend: 0x0, symName: __ZZNK7httplib6Server18parse_request_lineEPKcRNS_7RequestEENKUlS2_S2_E_clES2_S2_, symObjAddr: 0x1E8B2, symBinAddr: 0x10001EC16, symSize: 0xC2 }
  - { offset: 0x160FBB, size: 0x8, addend: 0x0, symName: __ZNKSt3__110__function6__funcIZNK7httplib6Server18parse_request_lineEPKcRNS2_7RequestEEUlS5_S5_E_NS_9allocatorIS8_EEFvS5_S5_EE6targetERKSt9type_info, symObjAddr: 0x1E888, symBinAddr: 0x10001EBEC, symSize: 0x1C }
  - { offset: 0x16102F, size: 0x8, addend: 0x0, symName: __ZNKSt3__110__function6__funcIZNK7httplib6Server18parse_request_lineEPKcRNS2_7RequestEEUlS5_S5_E_NS_9allocatorIS8_EEFvS5_S5_EE11target_typeEv, symObjAddr: 0x1E8A4, symBinAddr: 0x10001EC08, symSize: 0xE }
  - { offset: 0x161114, size: 0x8, addend: 0x0, symName: __ZNSt3__16__treeINS_12basic_stringIcNS_11char_traitsIcEENS_9allocatorIcEEEENS_4lessIS6_EENS4_IS6_EEE30__emplace_hint_unique_key_argsIS6_JRKS6_EEENS_4pairINS_15__tree_iteratorIS6_PNS_11__tree_nodeIS6_PvEElEEbEENS_21__tree_const_iteratorIS6_SJ_lEERKT_DpOT0_, symObjAddr: 0x1E9DC, symBinAddr: 0x10001ED40, symSize: 0x6C }
  - { offset: 0x1612FD, size: 0x8, addend: 0x0, symName: __ZNSt3__16__treeINS_12basic_stringIcNS_11char_traitsIcEENS_9allocatorIcEEEENS_4lessIS6_EENS4_IS6_EEE12__find_equalIS6_EERPNS_16__tree_node_baseIPvEENS_21__tree_const_iteratorIS6_PNS_11__tree_nodeIS6_SD_EElEERPNS_15__tree_end_nodeISF_EESG_RKT_, symObjAddr: 0x1EA48, symBinAddr: 0x10001EDAC, symSize: 0x160 }
  - { offset: 0x16171D, size: 0x8, addend: 0x0, symName: __ZNSt3__16__treeINS_12basic_stringIcNS_11char_traitsIcEENS_9allocatorIcEEEENS_4lessIS6_EENS4_IS6_EEE16__construct_nodeIJRKS6_EEENS_10unique_ptrINS_11__tree_nodeIS6_PvEENS_22__tree_node_destructorINS4_ISH_EEEEEEDpOT_, symObjAddr: 0x1EBA8, symBinAddr: 0x10001EF0C, symSize: 0x8A }
  - { offset: 0x161A1B, size: 0x8, addend: 0x0, symName: __ZNSt3__16__treeINS_12basic_stringIcNS_11char_traitsIcEENS_9allocatorIcEEEENS_4lessIS6_EENS4_IS6_EEE16__insert_node_atEPNS_15__tree_end_nodeIPNS_16__tree_node_baseIPvEEEERSF_SF_, symObjAddr: 0x1EC32, symBinAddr: 0x10001EF96, symSize: 0x3E }
  - { offset: 0x161B2E, size: 0x8, addend: 0x0, symName: __ZNSt3__16__treeINS_12basic_stringIcNS_11char_traitsIcEENS_9allocatorIcEEEENS_4lessIS6_EENS4_IS6_EEE12__find_equalIS6_EERPNS_16__tree_node_baseIPvEERPNS_15__tree_end_nodeISF_EERKT_, symObjAddr: 0x1EC70, symBinAddr: 0x10001EFD4, symSize: 0x79 }
  - { offset: 0x161E53, size: 0x8, addend: 0x0, symName: __ZNSt3__122__tree_node_destructorINS_9allocatorINS_11__tree_nodeINS_12basic_stringIcNS_11char_traitsIcEENS1_IcEEEEPvEEEEEclB8ne200100EPS9_, symObjAddr: 0x1EE52, symBinAddr: 0x10001F1B6, symSize: 0x3A }
  - { offset: 0x1621EC, size: 0x8, addend: 0x0, symName: __ZNSt3__110__function6__funcIZNK7httplib6Server18parse_request_lineEPKcRNS2_7RequestEEUlS5_mS5_mE_NS_9allocatorIS8_EEFvS5_mS5_mEED1Ev, symObjAddr: 0x1EFC6, symBinAddr: 0x10001F32A, symSize: 0x6 }
  - { offset: 0x162218, size: 0x8, addend: 0x0, symName: __ZNSt3__110__function6__funcIZNK7httplib6Server18parse_request_lineEPKcRNS2_7RequestEEUlS5_mS5_mE_NS_9allocatorIS8_EEFvS5_mS5_mEED0Ev, symObjAddr: 0x1EFCC, symBinAddr: 0x10001F330, symSize: 0xA }
  - { offset: 0x16232E, size: 0x8, addend: 0x0, symName: __ZNKSt3__110__function6__funcIZNK7httplib6Server18parse_request_lineEPKcRNS2_7RequestEEUlS5_mS5_mE_NS_9allocatorIS8_EEFvS5_mS5_mEE7__cloneEv, symObjAddr: 0x1EFD6, symBinAddr: 0x10001F33A, symSize: 0x2C }
  - { offset: 0x162550, size: 0x8, addend: 0x0, symName: __ZNKSt3__110__function6__funcIZNK7httplib6Server18parse_request_lineEPKcRNS2_7RequestEEUlS5_mS5_mE_NS_9allocatorIS8_EEFvS5_mS5_mEE7__cloneEPNS0_6__baseISB_EE, symObjAddr: 0x1F002, symBinAddr: 0x10001F366, symSize: 0x18 }
  - { offset: 0x162653, size: 0x8, addend: 0x0, symName: __ZNSt3__110__function6__funcIZNK7httplib6Server18parse_request_lineEPKcRNS2_7RequestEEUlS5_mS5_mE_NS_9allocatorIS8_EEFvS5_mS5_mEE7destroyEv, symObjAddr: 0x1F01A, symBinAddr: 0x10001F37E, symSize: 0x6 }
  - { offset: 0x1626A9, size: 0x8, addend: 0x0, symName: __ZNSt3__110__function6__funcIZNK7httplib6Server18parse_request_lineEPKcRNS2_7RequestEEUlS5_mS5_mE_NS_9allocatorIS8_EEFvS5_mS5_mEE18destroy_deallocateEv, symObjAddr: 0x1F020, symBinAddr: 0x10001F384, symSize: 0xA }
  - { offset: 0x1627AA, size: 0x8, addend: 0x0, symName: __ZNSt3__110__function6__funcIZNK7httplib6Server18parse_request_lineEPKcRNS2_7RequestEEUlS5_mS5_mE_NS_9allocatorIS8_EEFvS5_mS5_mEEclEOS5_OmSD_SE_, symObjAddr: 0x1F02A, symBinAddr: 0x10001F38E, symSize: 0xE }
  - { offset: 0x1628B9, size: 0x8, addend: 0x0, symName: __ZNSt3__128__invoke_void_return_wrapperIvLb1EE6__callB8ne200100IJRZNK7httplib6Server18parse_request_lineEPKcRNS3_7RequestEEUlS6_mS6_mE_S6_mS6_mEEEvDpOT_, symObjAddr: 0x1F062, symBinAddr: 0x10001F3C6, symSize: 0xAC }
  - { offset: 0x162DAD, size: 0x8, addend: 0x0, symName: __ZNKSt3__110__function6__funcIZNK7httplib6Server18parse_request_lineEPKcRNS2_7RequestEEUlS5_mS5_mE_NS_9allocatorIS8_EEFvS5_mS5_mEE6targetERKSt9type_info, symObjAddr: 0x1F038, symBinAddr: 0x10001F39C, symSize: 0x1C }
  - { offset: 0x162E21, size: 0x8, addend: 0x0, symName: __ZNKSt3__110__function6__funcIZNK7httplib6Server18parse_request_lineEPKcRNS2_7RequestEEUlS5_mS5_mE_NS_9allocatorIS8_EEFvS5_mS5_mEE11target_typeEv, symObjAddr: 0x1F054, symBinAddr: 0x10001F3B8, symSize: 0xE }
  - { offset: 0x1630F4, size: 0x8, addend: 0x0, symName: __ZN7httplib6detail16parse_query_textEPKcmRNSt3__18multimapINS3_12basic_stringIcNS3_11char_traitsIcEENS3_9allocatorIcEEEESA_NS3_4lessISA_EENS8_INS3_4pairIKSA_SA_EEEEEE.cold.1, symObjAddr: 0x38918, symBinAddr: 0x100057464, symSize: 0x20 }
  - { offset: 0x163110, size: 0x8, addend: 0x0, symName: __ZN7httplib6detail16parse_query_textEPKcmRNSt3__18multimapINS3_12basic_stringIcNS3_11char_traitsIcEENS3_9allocatorIcEEEESA_NS3_4lessISA_EENS8_INS3_4pairIKSA_SA_EEEEEE.cold.1, symObjAddr: 0x38918, symBinAddr: 0x100057464, symSize: 0x20 }
  - { offset: 0x163126, size: 0x8, addend: 0x0, symName: __ZN7httplib6detail16parse_query_textEPKcmRNSt3__18multimapINS3_12basic_stringIcNS3_11char_traitsIcEENS3_9allocatorIcEEEESA_NS3_4lessISA_EENS8_INS3_4pairIKSA_SA_EEEEEE.cold.1, symObjAddr: 0x38918, symBinAddr: 0x100057464, symSize: 0x20 }
  - { offset: 0x16313C, size: 0x8, addend: 0x0, symName: __ZN7httplib6detail16parse_query_textEPKcmRNSt3__18multimapINS3_12basic_stringIcNS3_11char_traitsIcEENS3_9allocatorIcEEEESA_NS3_4lessISA_EENS8_INS3_4pairIKSA_SA_EEEEEE.cold.1, symObjAddr: 0x38918, symBinAddr: 0x100057464, symSize: 0x20 }
  - { offset: 0x163152, size: 0x8, addend: 0x0, symName: __ZN7httplib6detail16parse_query_textEPKcmRNSt3__18multimapINS3_12basic_stringIcNS3_11char_traitsIcEENS3_9allocatorIcEEEESA_NS3_4lessISA_EENS8_INS3_4pairIKSA_SA_EEEEEE.cold.1, symObjAddr: 0x38918, symBinAddr: 0x100057464, symSize: 0x20 }
  - { offset: 0x163168, size: 0x8, addend: 0x0, symName: __ZNSt3__110__function6__funcIZN7httplib6detail16parse_query_textEPKcmRNS_8multimapINS_12basic_stringIcNS_11char_traitsIcEENS_9allocatorIcEEEESC_NS_4lessISC_EENSA_INS_4pairIKSC_SC_EEEEEEEUlS5_S5_E_NSA_ISL_EEFvS5_S5_EED1Ev, symObjAddr: 0x1F260, symBinAddr: 0x10001F5C4, symSize: 0x6 }
  - { offset: 0x163194, size: 0x8, addend: 0x0, symName: __ZNSt3__110__function6__funcIZN7httplib6detail16parse_query_textEPKcmRNS_8multimapINS_12basic_stringIcNS_11char_traitsIcEENS_9allocatorIcEEEESC_NS_4lessISC_EENSA_INS_4pairIKSC_SC_EEEEEEEUlS5_S5_E_NSA_ISL_EEFvS5_S5_EED0Ev, symObjAddr: 0x1F266, symBinAddr: 0x10001F5CA, symSize: 0xA }
  - { offset: 0x1632AA, size: 0x8, addend: 0x0, symName: __ZNKSt3__110__function6__funcIZN7httplib6detail16parse_query_textEPKcmRNS_8multimapINS_12basic_stringIcNS_11char_traitsIcEENS_9allocatorIcEEEESC_NS_4lessISC_EENSA_INS_4pairIKSC_SC_EEEEEEEUlS5_S5_E_NSA_ISL_EEFvS5_S5_EE7__cloneEv, symObjAddr: 0x1F270, symBinAddr: 0x10001F5D4, symSize: 0x2C }
  - { offset: 0x1634CC, size: 0x8, addend: 0x0, symName: __ZNKSt3__110__function6__funcIZN7httplib6detail16parse_query_textEPKcmRNS_8multimapINS_12basic_stringIcNS_11char_traitsIcEENS_9allocatorIcEEEESC_NS_4lessISC_EENSA_INS_4pairIKSC_SC_EEEEEEEUlS5_S5_E_NSA_ISL_EEFvS5_S5_EE7__cloneEPNS0_6__baseISN_EE, symObjAddr: 0x1F29C, symBinAddr: 0x10001F600, symSize: 0x18 }
  - { offset: 0x1635CF, size: 0x8, addend: 0x0, symName: __ZNSt3__110__function6__funcIZN7httplib6detail16parse_query_textEPKcmRNS_8multimapINS_12basic_stringIcNS_11char_traitsIcEENS_9allocatorIcEEEESC_NS_4lessISC_EENSA_INS_4pairIKSC_SC_EEEEEEEUlS5_S5_E_NSA_ISL_EEFvS5_S5_EE7destroyEv, symObjAddr: 0x1F2B4, symBinAddr: 0x10001F618, symSize: 0x6 }
  - { offset: 0x163625, size: 0x8, addend: 0x0, symName: __ZNSt3__110__function6__funcIZN7httplib6detail16parse_query_textEPKcmRNS_8multimapINS_12basic_stringIcNS_11char_traitsIcEENS_9allocatorIcEEEESC_NS_4lessISC_EENSA_INS_4pairIKSC_SC_EEEEEEEUlS5_S5_E_NSA_ISL_EEFvS5_S5_EE18destroy_deallocateEv, symObjAddr: 0x1F2BA, symBinAddr: 0x10001F61E, symSize: 0xA }
  - { offset: 0x16374E, size: 0x8, addend: 0x0, symName: __ZNSt3__110__function6__funcIZN7httplib6detail16parse_query_textEPKcmRNS_8multimapINS_12basic_stringIcNS_11char_traitsIcEENS_9allocatorIcEEEESC_NS_4lessISC_EENSA_INS_4pairIKSC_SC_EEEEEEEUlS5_S5_E_NSA_ISL_EEFvS5_S5_EEclEOS5_SP_, symObjAddr: 0x1F2C4, symBinAddr: 0x10001F628, symSize: 0x14 }
  - { offset: 0x16386F, size: 0x8, addend: 0x0, symName: __ZNKSt3__110__function6__funcIZN7httplib6detail16parse_query_textEPKcmRNS_8multimapINS_12basic_stringIcNS_11char_traitsIcEENS_9allocatorIcEEEESC_NS_4lessISC_EENSA_INS_4pairIKSC_SC_EEEEEEEUlS5_S5_E_NSA_ISL_EEFvS5_S5_EE6targetERKSt9type_info, symObjAddr: 0x1F2D8, symBinAddr: 0x10001F63C, symSize: 0x1C }
  - { offset: 0x1638E3, size: 0x8, addend: 0x0, symName: __ZNKSt3__110__function6__funcIZN7httplib6detail16parse_query_textEPKcmRNS_8multimapINS_12basic_stringIcNS_11char_traitsIcEENS_9allocatorIcEEEESC_NS_4lessISC_EENSA_INS_4pairIKSC_SC_EEEEEEEUlS5_S5_E_NSA_ISL_EEFvS5_S5_EE11target_typeEv, symObjAddr: 0x1F2F4, symBinAddr: 0x10001F658, symSize: 0xE }
  - { offset: 0x163CDF, size: 0x8, addend: 0x0, symName: __ZNSt3__16__treeINS_12basic_stringIcNS_11char_traitsIcEENS_9allocatorIcEEEENS_4lessIS6_EENS4_IS6_EEE25__emplace_unique_key_argsIS6_JS6_EEENS_4pairINS_15__tree_iteratorIS6_PNS_11__tree_nodeIS6_PvEElEEbEERKT_DpOT0_, symObjAddr: 0x1F7C4, symBinAddr: 0x10001FABC, symSize: 0x80 }
  - { offset: 0x163F8A, size: 0x8, addend: 0x0, symName: __ZNSt3__16__treeINS_12__value_typeINS_12basic_stringIcNS_11char_traitsIcEENS_9allocatorIcEEEES7_EENS_19__map_value_compareIS7_S8_NS_4lessIS7_EELb1EEENS5_IS8_EEE15__emplace_multiIJS7_S7_EEENS_15__tree_iteratorIS8_PNS_11__tree_nodeIS8_PvEElEEDpOT_, symObjAddr: 0x1F91A, symBinAddr: 0x10001FC12, symSize: 0xB6 }
  - { offset: 0x1644AF, size: 0x8, addend: 0x0, symName: __ZNSt3__110__function6__funcIZZN7httplib6detail16parse_query_textEPKcmRNS_8multimapINS_12basic_stringIcNS_11char_traitsIcEENS_9allocatorIcEEEESC_NS_4lessISC_EENSA_INS_4pairIKSC_SC_EEEEEEENKUlS5_S5_E_clES5_S5_EUlS5_mS5_mE_NSA_ISM_EEFvS5_mS5_mEED1Ev, symObjAddr: 0x1F844, symBinAddr: 0x10001FB3C, symSize: 0x6 }
  - { offset: 0x1644DB, size: 0x8, addend: 0x0, symName: __ZNSt3__110__function6__funcIZZN7httplib6detail16parse_query_textEPKcmRNS_8multimapINS_12basic_stringIcNS_11char_traitsIcEENS_9allocatorIcEEEESC_NS_4lessISC_EENSA_INS_4pairIKSC_SC_EEEEEEENKUlS5_S5_E_clES5_S5_EUlS5_mS5_mE_NSA_ISM_EEFvS5_mS5_mEED0Ev, symObjAddr: 0x1F84A, symBinAddr: 0x10001FB42, symSize: 0xA }
  - { offset: 0x1645F1, size: 0x8, addend: 0x0, symName: __ZNKSt3__110__function6__funcIZZN7httplib6detail16parse_query_textEPKcmRNS_8multimapINS_12basic_stringIcNS_11char_traitsIcEENS_9allocatorIcEEEESC_NS_4lessISC_EENSA_INS_4pairIKSC_SC_EEEEEEENKUlS5_S5_E_clES5_S5_EUlS5_mS5_mE_NSA_ISM_EEFvS5_mS5_mEE7__cloneEv, symObjAddr: 0x1F854, symBinAddr: 0x10001FB4C, symSize: 0x2C }
  - { offset: 0x164813, size: 0x8, addend: 0x0, symName: __ZNKSt3__110__function6__funcIZZN7httplib6detail16parse_query_textEPKcmRNS_8multimapINS_12basic_stringIcNS_11char_traitsIcEENS_9allocatorIcEEEESC_NS_4lessISC_EENSA_INS_4pairIKSC_SC_EEEEEEENKUlS5_S5_E_clES5_S5_EUlS5_mS5_mE_NSA_ISM_EEFvS5_mS5_mEE7__cloneEPNS0_6__baseISO_EE, symObjAddr: 0x1F880, symBinAddr: 0x10001FB78, symSize: 0x18 }
  - { offset: 0x164916, size: 0x8, addend: 0x0, symName: __ZNSt3__110__function6__funcIZZN7httplib6detail16parse_query_textEPKcmRNS_8multimapINS_12basic_stringIcNS_11char_traitsIcEENS_9allocatorIcEEEESC_NS_4lessISC_EENSA_INS_4pairIKSC_SC_EEEEEEENKUlS5_S5_E_clES5_S5_EUlS5_mS5_mE_NSA_ISM_EEFvS5_mS5_mEE7destroyEv, symObjAddr: 0x1F898, symBinAddr: 0x10001FB90, symSize: 0x6 }
  - { offset: 0x16496C, size: 0x8, addend: 0x0, symName: __ZNSt3__110__function6__funcIZZN7httplib6detail16parse_query_textEPKcmRNS_8multimapINS_12basic_stringIcNS_11char_traitsIcEENS_9allocatorIcEEEESC_NS_4lessISC_EENSA_INS_4pairIKSC_SC_EEEEEEENKUlS5_S5_E_clES5_S5_EUlS5_mS5_mE_NSA_ISM_EEFvS5_mS5_mEE18destroy_deallocateEv, symObjAddr: 0x1F89E, symBinAddr: 0x10001FB96, symSize: 0xA }
  - { offset: 0x164A6D, size: 0x8, addend: 0x0, symName: __ZNSt3__110__function6__funcIZZN7httplib6detail16parse_query_textEPKcmRNS_8multimapINS_12basic_stringIcNS_11char_traitsIcEENS_9allocatorIcEEEESC_NS_4lessISC_EENSA_INS_4pairIKSC_SC_EEEEEEENKUlS5_S5_E_clES5_S5_EUlS5_mS5_mE_NSA_ISM_EEFvS5_mS5_mEEclEOS5_OmSQ_SR_, symObjAddr: 0x1F8A8, symBinAddr: 0x10001FBA0, symSize: 0xE }
  - { offset: 0x164B7C, size: 0x8, addend: 0x0, symName: __ZNSt3__128__invoke_void_return_wrapperIvLb1EE6__callB8ne200100IJRZZN7httplib6detail16parse_query_textEPKcmRNS_8multimapINS_12basic_stringIcNS_11char_traitsIcEENS_9allocatorIcEEEESD_NS_4lessISD_EENSB_INS_4pairIKSD_SD_EEEEEEENKUlS6_S6_E_clES6_S6_EUlS6_mS6_mE_S6_mS6_mEEEvDpOT_, symObjAddr: 0x1F8E0, symBinAddr: 0x10001FBD8, symSize: 0x3A }
  - { offset: 0x164D06, size: 0x8, addend: 0x0, symName: __ZNKSt3__110__function6__funcIZZN7httplib6detail16parse_query_textEPKcmRNS_8multimapINS_12basic_stringIcNS_11char_traitsIcEENS_9allocatorIcEEEESC_NS_4lessISC_EENSA_INS_4pairIKSC_SC_EEEEEEENKUlS5_S5_E_clES5_S5_EUlS5_mS5_mE_NSA_ISM_EEFvS5_mS5_mEE6targetERKSt9type_info, symObjAddr: 0x1F8B6, symBinAddr: 0x10001FBAE, symSize: 0x1C }
  - { offset: 0x164D7A, size: 0x8, addend: 0x0, symName: __ZNKSt3__110__function6__funcIZZN7httplib6detail16parse_query_textEPKcmRNS_8multimapINS_12basic_stringIcNS_11char_traitsIcEENS_9allocatorIcEEEESC_NS_4lessISC_EENSA_INS_4pairIKSC_SC_EEEEEEENKUlS5_S5_E_clES5_S5_EUlS5_mS5_mE_NSA_ISM_EEFvS5_mS5_mEE11target_typeEv, symObjAddr: 0x1F8D2, symBinAddr: 0x10001FBCA, symSize: 0xE }
  - { offset: 0x165068, size: 0x8, addend: 0x0, symName: __ZNSt3__16__treeINS_12__value_typeINS_12basic_stringIcNS_11char_traitsIcEENS_9allocatorIcEEEES7_EENS_19__map_value_compareIS7_S8_NS_4lessIS7_EELb1EEENS5_IS8_EEE16__find_leaf_highERPNS_15__tree_end_nodeIPNS_16__tree_node_baseIPvEEEERKS7_, symObjAddr: 0x1F9D0, symBinAddr: 0x10001FCC8, symSize: 0x62 }
  - { offset: 0x1651C3, size: 0x8, addend: 0x0, symName: __ZNSt3__110unique_ptrINS_11__tree_nodeINS_12__value_typeINS_12basic_stringIcNS_11char_traitsIcEENS_9allocatorIcEEEES8_EEPvEENS_22__tree_node_destructorINS6_ISB_EEEEE5resetB8ne200100EPSB_, symObjAddr: 0x1FA70, symBinAddr: 0x10001FD2C, symSize: 0x36 }
  - { offset: 0x165370, size: 0x8, addend: 0x0, symName: __ZNSt3__110__function6__funcIZN7httplib13get_client_ipERKNS_12basic_stringIcNS_11char_traitsIcEENS_9allocatorIcEEEERKNS_6vectorIS8_NS6_IS8_EEEEEUlPKcSH_E_NS6_ISI_EEFvSH_SH_EED1Ev, symObjAddr: 0x1FAA6, symBinAddr: 0x10001FD62, symSize: 0x6 }
  - { offset: 0x16539C, size: 0x8, addend: 0x0, symName: __ZNSt3__110__function6__funcIZN7httplib13get_client_ipERKNS_12basic_stringIcNS_11char_traitsIcEENS_9allocatorIcEEEERKNS_6vectorIS8_NS6_IS8_EEEEEUlPKcSH_E_NS6_ISI_EEFvSH_SH_EED0Ev, symObjAddr: 0x1FAAC, symBinAddr: 0x10001FD68, symSize: 0xA }
  - { offset: 0x1654B2, size: 0x8, addend: 0x0, symName: __ZNKSt3__110__function6__funcIZN7httplib13get_client_ipERKNS_12basic_stringIcNS_11char_traitsIcEENS_9allocatorIcEEEERKNS_6vectorIS8_NS6_IS8_EEEEEUlPKcSH_E_NS6_ISI_EEFvSH_SH_EE7__cloneEv, symObjAddr: 0x1FAB6, symBinAddr: 0x10001FD72, symSize: 0x2C }
  - { offset: 0x1656D4, size: 0x8, addend: 0x0, symName: __ZNKSt3__110__function6__funcIZN7httplib13get_client_ipERKNS_12basic_stringIcNS_11char_traitsIcEENS_9allocatorIcEEEERKNS_6vectorIS8_NS6_IS8_EEEEEUlPKcSH_E_NS6_ISI_EEFvSH_SH_EE7__cloneEPNS0_6__baseISK_EE, symObjAddr: 0x1FAE2, symBinAddr: 0x10001FD9E, symSize: 0x18 }
  - { offset: 0x1657D7, size: 0x8, addend: 0x0, symName: __ZNSt3__110__function6__funcIZN7httplib13get_client_ipERKNS_12basic_stringIcNS_11char_traitsIcEENS_9allocatorIcEEEERKNS_6vectorIS8_NS6_IS8_EEEEEUlPKcSH_E_NS6_ISI_EEFvSH_SH_EE7destroyEv, symObjAddr: 0x1FAFA, symBinAddr: 0x10001FDB6, symSize: 0x6 }
  - { offset: 0x16582D, size: 0x8, addend: 0x0, symName: __ZNSt3__110__function6__funcIZN7httplib13get_client_ipERKNS_12basic_stringIcNS_11char_traitsIcEENS_9allocatorIcEEEERKNS_6vectorIS8_NS6_IS8_EEEEEUlPKcSH_E_NS6_ISI_EEFvSH_SH_EE18destroy_deallocateEv, symObjAddr: 0x1FB00, symBinAddr: 0x10001FDBC, symSize: 0xA }
  - { offset: 0x165956, size: 0x8, addend: 0x0, symName: __ZNSt3__110__function6__funcIZN7httplib13get_client_ipERKNS_12basic_stringIcNS_11char_traitsIcEENS_9allocatorIcEEEERKNS_6vectorIS8_NS6_IS8_EEEEEUlPKcSH_E_NS6_ISI_EEFvSH_SH_EEclEOSH_SM_, symObjAddr: 0x1FB0A, symBinAddr: 0x10001FDC6, symSize: 0x14 }
  - { offset: 0x165A7C, size: 0x8, addend: 0x0, symName: __ZZN7httplib13get_client_ipERKNSt3__112basic_stringIcNS0_11char_traitsIcEENS0_9allocatorIcEEEERKNS0_6vectorIS6_NS4_IS6_EEEEENKUlPKcSF_E_clESF_SF_, symObjAddr: 0x1FB48, symBinAddr: 0x10001FE04, symSize: 0x1B4 }
  - { offset: 0x16628E, size: 0x8, addend: 0x0, symName: __ZNKSt3__110__function6__funcIZN7httplib13get_client_ipERKNS_12basic_stringIcNS_11char_traitsIcEENS_9allocatorIcEEEERKNS_6vectorIS8_NS6_IS8_EEEEEUlPKcSH_E_NS6_ISI_EEFvSH_SH_EE6targetERKSt9type_info, symObjAddr: 0x1FB1E, symBinAddr: 0x10001FDDA, symSize: 0x1C }
  - { offset: 0x166302, size: 0x8, addend: 0x0, symName: __ZNKSt3__110__function6__funcIZN7httplib13get_client_ipERKNS_12basic_stringIcNS_11char_traitsIcEENS_9allocatorIcEEEERKNS_6vectorIS8_NS6_IS8_EEEEEUlPKcSH_E_NS6_ISI_EEFvSH_SH_EE11target_typeEv, symObjAddr: 0x1FB3A, symBinAddr: 0x10001FDF6, symSize: 0xE }
  - { offset: 0x166368, size: 0x8, addend: 0x0, symName: __ZNSt3__110__function6__funcIZN7httplib6detail19parse_accept_headerERKNS_12basic_stringIcNS_11char_traitsIcEENS_9allocatorIcEEEERNS_6vectorIS9_NS7_IS9_EEEEEUlPKcSH_E_NS7_ISI_EEFvSH_SH_EED1Ev, symObjAddr: 0x1FE5E, symBinAddr: 0x10002011A, symSize: 0x6 }
  - { offset: 0x166394, size: 0x8, addend: 0x0, symName: __ZNSt3__110__function6__funcIZN7httplib6detail19parse_accept_headerERKNS_12basic_stringIcNS_11char_traitsIcEENS_9allocatorIcEEEERNS_6vectorIS9_NS7_IS9_EEEEEUlPKcSH_E_NS7_ISI_EEFvSH_SH_EED0Ev, symObjAddr: 0x1FE64, symBinAddr: 0x100020120, symSize: 0xA }
  - { offset: 0x1664AA, size: 0x8, addend: 0x0, symName: __ZNKSt3__110__function6__funcIZN7httplib6detail19parse_accept_headerERKNS_12basic_stringIcNS_11char_traitsIcEENS_9allocatorIcEEEERNS_6vectorIS9_NS7_IS9_EEEEEUlPKcSH_E_NS7_ISI_EEFvSH_SH_EE7__cloneEv, symObjAddr: 0x1FE6E, symBinAddr: 0x10002012A, symSize: 0x34 }
  - { offset: 0x1666CC, size: 0x8, addend: 0x0, symName: __ZNKSt3__110__function6__funcIZN7httplib6detail19parse_accept_headerERKNS_12basic_stringIcNS_11char_traitsIcEENS_9allocatorIcEEEERNS_6vectorIS9_NS7_IS9_EEEEEUlPKcSH_E_NS7_ISI_EEFvSH_SH_EE7__cloneEPNS0_6__baseISK_EE, symObjAddr: 0x1FEA2, symBinAddr: 0x10002015E, symSize: 0x20 }
  - { offset: 0x1667CF, size: 0x8, addend: 0x0, symName: __ZNSt3__110__function6__funcIZN7httplib6detail19parse_accept_headerERKNS_12basic_stringIcNS_11char_traitsIcEENS_9allocatorIcEEEERNS_6vectorIS9_NS7_IS9_EEEEEUlPKcSH_E_NS7_ISI_EEFvSH_SH_EE7destroyEv, symObjAddr: 0x1FEC2, symBinAddr: 0x10002017E, symSize: 0x6 }
  - { offset: 0x166825, size: 0x8, addend: 0x0, symName: __ZNSt3__110__function6__funcIZN7httplib6detail19parse_accept_headerERKNS_12basic_stringIcNS_11char_traitsIcEENS_9allocatorIcEEEERNS_6vectorIS9_NS7_IS9_EEEEEUlPKcSH_E_NS7_ISI_EEFvSH_SH_EE18destroy_deallocateEv, symObjAddr: 0x1FEC8, symBinAddr: 0x100020184, symSize: 0xA }
  - { offset: 0x16694F, size: 0x8, addend: 0x0, symName: __ZNSt3__110__function6__funcIZN7httplib6detail19parse_accept_headerERKNS_12basic_stringIcNS_11char_traitsIcEENS_9allocatorIcEEEERNS_6vectorIS9_NS7_IS9_EEEEEUlPKcSH_E_NS7_ISI_EEFvSH_SH_EEclEOSH_SM_, symObjAddr: 0x1FED2, symBinAddr: 0x10002018E, symSize: 0x14 }
  - { offset: 0x166A75, size: 0x8, addend: 0x0, symName: __ZZN7httplib6detail19parse_accept_headerERKNSt3__112basic_stringIcNS1_11char_traitsIcEENS1_9allocatorIcEEEERNS1_6vectorIS7_NS5_IS7_EEEEENKUlPKcSF_E_clESF_SF_, symObjAddr: 0x1FF10, symBinAddr: 0x1000201CC, symSize: 0x702 }
  - { offset: 0x168AC7, size: 0x8, addend: 0x0, symName: __ZNKSt3__110__function6__funcIZN7httplib6detail19parse_accept_headerERKNS_12basic_stringIcNS_11char_traitsIcEENS_9allocatorIcEEEERNS_6vectorIS9_NS7_IS9_EEEEEUlPKcSH_E_NS7_ISI_EEFvSH_SH_EE6targetERKSt9type_info, symObjAddr: 0x1FEE6, symBinAddr: 0x1000201A2, symSize: 0x1C }
  - { offset: 0x168B3B, size: 0x8, addend: 0x0, symName: __ZNKSt3__110__function6__funcIZN7httplib6detail19parse_accept_headerERKNS_12basic_stringIcNS_11char_traitsIcEENS_9allocatorIcEEEERNS_6vectorIS9_NS7_IS9_EEEEEUlPKcSH_E_NS7_ISI_EEFvSH_SH_EE11target_typeEv, symObjAddr: 0x1FF02, symBinAddr: 0x1000201BE, symSize: 0xE }
  - { offset: 0x168D18, size: 0x8, addend: 0x0, symName: __ZNSt3__16vectorIZN7httplib6detail19parse_accept_headerERKNS_12basic_stringIcNS_11char_traitsIcEENS_9allocatorIcEEEERNS0_IS8_NS6_IS8_EEEEE11AcceptEntryNS6_ISE_EEE24__emplace_back_slow_pathIJSE_EEEPSE_DpOT_, symObjAddr: 0x20612, symBinAddr: 0x1000208CE, symSize: 0x14A }
  - { offset: 0x16922D, size: 0x8, addend: 0x0, symName: __ZNSt3__114__split_bufferIZN7httplib6detail19parse_accept_headerERKNS_12basic_stringIcNS_11char_traitsIcEENS_9allocatorIcEEEERNS_6vectorIS8_NS6_IS8_EEEEE11AcceptEntryRNS6_ISF_EEED2Ev, symObjAddr: 0x20894, symBinAddr: 0x100020B50, symSize: 0x28 }
  - { offset: 0x1692EF, size: 0x8, addend: 0x0, symName: __ZNSt3__16vectorIZN7httplib6detail19parse_accept_headerERKNS_12basic_stringIcNS_11char_traitsIcEENS_9allocatorIcEEEERNS0_IS8_NS6_IS8_EEEEE11AcceptEntryNS6_ISE_EEE20__throw_length_errorB8ne200100Ev, symObjAddr: 0x2075C, symBinAddr: 0x100020A18, symSize: 0x10 }
  - { offset: 0x169307, size: 0x8, addend: 0x0, symName: __ZNSt3__119__allocate_at_leastB8ne200100INS_9allocatorIZN7httplib6detail19parse_accept_headerERKNS_12basic_stringIcNS_11char_traitsIcEENS1_IcEEEERNS_6vectorIS8_NS1_IS8_EEEEE11AcceptEntryEEEENS_19__allocation_resultINS_16allocator_traitsIT_E7pointerEEERSJ_m, symObjAddr: 0x2076C, symBinAddr: 0x100020A28, symSize: 0x38 }
  - { offset: 0x16939A, size: 0x8, addend: 0x0, symName: __ZNSt3__128__exception_guard_exceptionsINS_29_AllocatorDestroyRangeReverseINS_9allocatorIZN7httplib6detail19parse_accept_headerERKNS_12basic_stringIcNS_11char_traitsIcEENS2_IcEEEERNS_6vectorIS9_NS2_IS9_EEEEE11AcceptEntryEEPSG_EEED2B8ne200100Ev, symObjAddr: 0x20846, symBinAddr: 0x100020B02, symSize: 0x1A }
  - { offset: 0x1693D3, size: 0x8, addend: 0x0, symName: __ZNKSt3__129_AllocatorDestroyRangeReverseINS_9allocatorIZN7httplib6detail19parse_accept_headerERKNS_12basic_stringIcNS_11char_traitsIcEENS1_IcEEEERNS_6vectorIS8_NS1_IS8_EEEEE11AcceptEntryEEPSF_EclB8ne200100Ev, symObjAddr: 0x20860, symBinAddr: 0x100020B1C, symSize: 0x34 }
  - { offset: 0x1695FB, size: 0x8, addend: 0x0, symName: __ZNSt3__114__split_bufferIZN7httplib6detail19parse_accept_headerERKNS_12basic_stringIcNS_11char_traitsIcEENS_9allocatorIcEEEERNS_6vectorIS8_NS6_IS8_EEEEE11AcceptEntryRNS6_ISF_EEE17__destruct_at_endB8ne200100EPSF_, symObjAddr: 0x208BC, symBinAddr: 0x100020B78, symSize: 0x3E }
  - { offset: 0x169635, size: 0x8, addend: 0x0, symName: __ZNSt3__114__split_bufferIZN7httplib6detail19parse_accept_headerERKNS_12basic_stringIcNS_11char_traitsIcEENS_9allocatorIcEEEERNS_6vectorIS8_NS6_IS8_EEEEE11AcceptEntryRNS6_ISF_EEE17__destruct_at_endB8ne200100EPSF_, symObjAddr: 0x208BC, symBinAddr: 0x100020B78, symSize: 0x3E }
  - { offset: 0x169A14, size: 0x8, addend: 0x0, symName: __ZNSt3__18_IterOpsINS_17_ClassicAlgPolicyEE9iter_swapB8ne200100IRPZN7httplib6detail19parse_accept_headerERKNS_12basic_stringIcNS_11char_traitsIcEENS_9allocatorIcEEEERNS_6vectorISB_NS9_ISB_EEEEE11AcceptEntrySK_EEvOT_OT0_, symObjAddr: 0x20CD8, symBinAddr: 0x100020F94, symSize: 0xDD }
  - { offset: 0x169D7A, size: 0x8, addend: 0x0, symName: __ZNSt3__16vectorIZN7httplib6detail19parse_accept_headerERKNS_12basic_stringIcNS_11char_traitsIcEENS_9allocatorIcEEEERNS0_IS8_NS6_IS8_EEEEE11AcceptEntryNS6_ISE_EEE22__base_destruct_at_endB8ne200100EPSE_, symObjAddr: 0x2251C, symBinAddr: 0x1000226FC, symSize: 0x42 }
  - { offset: 0x169F1A, size: 0x8, addend: 0x0, symName: __ZNSt3__110__function6__funcIZN7httplib6detail18parse_range_headerERKNS_12basic_stringIcNS_11char_traitsIcEENS_9allocatorIcEEEERNS_6vectorINS_4pairIllEENS7_ISE_EEEEEUlPKcSJ_E_NS7_ISK_EEFvSJ_SJ_EED1Ev, symObjAddr: 0x2255E, symBinAddr: 0x10002273E, symSize: 0x6 }
  - { offset: 0x169F46, size: 0x8, addend: 0x0, symName: __ZNSt3__110__function6__funcIZN7httplib6detail18parse_range_headerERKNS_12basic_stringIcNS_11char_traitsIcEENS_9allocatorIcEEEERNS_6vectorINS_4pairIllEENS7_ISE_EEEEEUlPKcSJ_E_NS7_ISK_EEFvSJ_SJ_EED0Ev, symObjAddr: 0x22564, symBinAddr: 0x100022744, symSize: 0xA }
  - { offset: 0x16A05C, size: 0x8, addend: 0x0, symName: __ZNKSt3__110__function6__funcIZN7httplib6detail18parse_range_headerERKNS_12basic_stringIcNS_11char_traitsIcEENS_9allocatorIcEEEERNS_6vectorINS_4pairIllEENS7_ISE_EEEEEUlPKcSJ_E_NS7_ISK_EEFvSJ_SJ_EE7__cloneEv, symObjAddr: 0x2256E, symBinAddr: 0x10002274E, symSize: 0x34 }
  - { offset: 0x16A27E, size: 0x8, addend: 0x0, symName: __ZNKSt3__110__function6__funcIZN7httplib6detail18parse_range_headerERKNS_12basic_stringIcNS_11char_traitsIcEENS_9allocatorIcEEEERNS_6vectorINS_4pairIllEENS7_ISE_EEEEEUlPKcSJ_E_NS7_ISK_EEFvSJ_SJ_EE7__cloneEPNS0_6__baseISM_EE, symObjAddr: 0x225A2, symBinAddr: 0x100022782, symSize: 0x20 }
  - { offset: 0x16A381, size: 0x8, addend: 0x0, symName: __ZNSt3__110__function6__funcIZN7httplib6detail18parse_range_headerERKNS_12basic_stringIcNS_11char_traitsIcEENS_9allocatorIcEEEERNS_6vectorINS_4pairIllEENS7_ISE_EEEEEUlPKcSJ_E_NS7_ISK_EEFvSJ_SJ_EE7destroyEv, symObjAddr: 0x225C2, symBinAddr: 0x1000227A2, symSize: 0x6 }
  - { offset: 0x16A3D7, size: 0x8, addend: 0x0, symName: __ZNSt3__110__function6__funcIZN7httplib6detail18parse_range_headerERKNS_12basic_stringIcNS_11char_traitsIcEENS_9allocatorIcEEEERNS_6vectorINS_4pairIllEENS7_ISE_EEEEEUlPKcSJ_E_NS7_ISK_EEFvSJ_SJ_EE18destroy_deallocateEv, symObjAddr: 0x225C8, symBinAddr: 0x1000227A8, symSize: 0xA }
  - { offset: 0x16A501, size: 0x8, addend: 0x0, symName: __ZNSt3__110__function6__funcIZN7httplib6detail18parse_range_headerERKNS_12basic_stringIcNS_11char_traitsIcEENS_9allocatorIcEEEERNS_6vectorINS_4pairIllEENS7_ISE_EEEEEUlPKcSJ_E_NS7_ISK_EEFvSJ_SJ_EEclEOSJ_SO_, symObjAddr: 0x225D2, symBinAddr: 0x1000227B2, symSize: 0x14 }
  - { offset: 0x16A627, size: 0x8, addend: 0x0, symName: __ZZN7httplib6detail18parse_range_headerERKNSt3__112basic_stringIcNS1_11char_traitsIcEENS1_9allocatorIcEEEERNS1_6vectorINS1_4pairIllEENS5_ISC_EEEEENKUlPKcSH_E_clESH_SH_, symObjAddr: 0x22610, symBinAddr: 0x1000227F0, symSize: 0x1F6 }
  - { offset: 0x16B0F5, size: 0x8, addend: 0x0, symName: __ZNKSt3__110__function6__funcIZN7httplib6detail18parse_range_headerERKNS_12basic_stringIcNS_11char_traitsIcEENS_9allocatorIcEEEERNS_6vectorINS_4pairIllEENS7_ISE_EEEEEUlPKcSJ_E_NS7_ISK_EEFvSJ_SJ_EE6targetERKSt9type_info, symObjAddr: 0x225E6, symBinAddr: 0x1000227C6, symSize: 0x1C }
  - { offset: 0x16B169, size: 0x8, addend: 0x0, symName: __ZNKSt3__110__function6__funcIZN7httplib6detail18parse_range_headerERKNS_12basic_stringIcNS_11char_traitsIcEENS_9allocatorIcEEEERNS_6vectorINS_4pairIllEENS7_ISE_EEEEEUlPKcSJ_E_NS7_ISK_EEFvSJ_SJ_EE11target_typeEv, symObjAddr: 0x22602, symBinAddr: 0x1000227E2, symSize: 0xE }
  - { offset: 0x16B1F1, size: 0x8, addend: 0x0, symName: __ZNSt3__16vectorINS_4pairIllEENS_9allocatorIS2_EEE12emplace_backIJRKlS8_EEERS2_DpOT_, symObjAddr: 0x22806, symBinAddr: 0x1000229E6, symSize: 0x126 }
  - { offset: 0x16B6F0, size: 0x8, addend: 0x0, symName: __ZNSt3__16vectorINS_4pairIllEENS_9allocatorIS2_EEE20__throw_length_errorB8ne200100Ev, symObjAddr: 0x2292C, symBinAddr: 0x100022B0C, symSize: 0x10 }
  - { offset: 0x16B897, size: 0x8, addend: 0x0, symName: __ZNSt3__110__function6__funcIZN7httplib6Server15process_requestERNS2_6StreamERKNS_12basic_stringIcNS_11char_traitsIcEENS_9allocatorIcEEEEiSD_ibRbRKNS_8functionIFvRNS2_7RequestEEEEEUlvE_NS9_ISM_EEFbvEED1Ev, symObjAddr: 0x22E30, symBinAddr: 0x100023010, symSize: 0x6 }
  - { offset: 0x16B8C3, size: 0x8, addend: 0x0, symName: __ZNSt3__110__function6__funcIZN7httplib6Server15process_requestERNS2_6StreamERKNS_12basic_stringIcNS_11char_traitsIcEENS_9allocatorIcEEEEiSD_ibRbRKNS_8functionIFvRNS2_7RequestEEEEEUlvE_NS9_ISM_EEFbvEED0Ev, symObjAddr: 0x22E36, symBinAddr: 0x100023016, symSize: 0xA }
  - { offset: 0x16B9D9, size: 0x8, addend: 0x0, symName: __ZNKSt3__110__function6__funcIZN7httplib6Server15process_requestERNS2_6StreamERKNS_12basic_stringIcNS_11char_traitsIcEENS_9allocatorIcEEEEiSD_ibRbRKNS_8functionIFvRNS2_7RequestEEEEEUlvE_NS9_ISM_EEFbvEE7__cloneEv, symObjAddr: 0x22E40, symBinAddr: 0x100023020, symSize: 0x2A }
  - { offset: 0x16BBFB, size: 0x8, addend: 0x0, symName: __ZNKSt3__110__function6__funcIZN7httplib6Server15process_requestERNS2_6StreamERKNS_12basic_stringIcNS_11char_traitsIcEENS_9allocatorIcEEEEiSD_ibRbRKNS_8functionIFvRNS2_7RequestEEEEEUlvE_NS9_ISM_EEFbvEE7__cloneEPNS0_6__baseISO_EE, symObjAddr: 0x22E6A, symBinAddr: 0x10002304A, symSize: 0x16 }
  - { offset: 0x16BCFE, size: 0x8, addend: 0x0, symName: __ZNSt3__110__function6__funcIZN7httplib6Server15process_requestERNS2_6StreamERKNS_12basic_stringIcNS_11char_traitsIcEENS_9allocatorIcEEEEiSD_ibRbRKNS_8functionIFvRNS2_7RequestEEEEEUlvE_NS9_ISM_EEFbvEE7destroyEv, symObjAddr: 0x22E80, symBinAddr: 0x100023060, symSize: 0x6 }
  - { offset: 0x16BD54, size: 0x8, addend: 0x0, symName: __ZNSt3__110__function6__funcIZN7httplib6Server15process_requestERNS2_6StreamERKNS_12basic_stringIcNS_11char_traitsIcEENS_9allocatorIcEEEEiSD_ibRbRKNS_8functionIFvRNS2_7RequestEEEEEUlvE_NS9_ISM_EEFbvEE18destroy_deallocateEv, symObjAddr: 0x22E86, symBinAddr: 0x100023066, symSize: 0xA }
  - { offset: 0x16BE6B, size: 0x8, addend: 0x0, symName: __ZNSt3__110__function6__funcIZN7httplib6Server15process_requestERNS2_6StreamERKNS_12basic_stringIcNS_11char_traitsIcEENS_9allocatorIcEEEEiSD_ibRbRKNS_8functionIFvRNS2_7RequestEEEEEUlvE_NS9_ISM_EEFbvEEclEv, symObjAddr: 0x22E90, symBinAddr: 0x100023070, symSize: 0x10 }
  - { offset: 0x16BF42, size: 0x8, addend: 0x0, symName: __ZNKSt3__110__function6__funcIZN7httplib6Server15process_requestERNS2_6StreamERKNS_12basic_stringIcNS_11char_traitsIcEENS_9allocatorIcEEEEiSD_ibRbRKNS_8functionIFvRNS2_7RequestEEEEEUlvE_NS9_ISM_EEFbvEE6targetERKSt9type_info, symObjAddr: 0x22EA0, symBinAddr: 0x100023080, symSize: 0x1C }
  - { offset: 0x16BFB6, size: 0x8, addend: 0x0, symName: __ZNKSt3__110__function6__funcIZN7httplib6Server15process_requestERNS2_6StreamERKNS_12basic_stringIcNS_11char_traitsIcEENS_9allocatorIcEEEEiSD_ibRbRKNS_8functionIFvRNS2_7RequestEEEEEUlvE_NS9_ISM_EEFbvEE11target_typeEv, symObjAddr: 0x22EBC, symBinAddr: 0x10002309C, symSize: 0xE }
  - { offset: 0x16C634, size: 0x8, addend: 0x0, symName: __ZN7httplib8Response12set_redirectERKNSt3__112basic_stringIcNS1_11char_traitsIcEENS1_9allocatorIcEEEEi, symObjAddr: 0x24388, symBinAddr: 0x100024568, symSize: 0x156 }
  - { offset: 0x16CC96, size: 0x8, addend: 0x0, symName: __ZNK7httplib6Server14check_if_rangeERNS_7RequestERKNSt3__112basic_stringIcNS3_11char_traitsIcEENS3_9allocatorIcEEEEl, symObjAddr: 0x24CB4, symBinAddr: 0x100024E94, symSize: 0x1A6 }
  - { offset: 0x16DD6B, size: 0x8, addend: 0x0, symName: __ZN7httplib6detail13is_valid_pathERKNSt3__112basic_stringIcNS1_11char_traitsIcEENS1_9allocatorIcEEEE.cold.1, symObjAddr: 0x38938, symBinAddr: 0x100057484, symSize: 0x23 }
  - { offset: 0x16E0D4, size: 0x8, addend: 0x0, symName: __ZZN7httplib6detail15parse_http_dateERKNSt3__112basic_stringIcNS1_11char_traitsIcEENS1_9allocatorIcEEEEENKUlPKcE_clESB_, symObjAddr: 0x2512E, symBinAddr: 0x1000252DE, symSize: 0x1A8 }
  - { offset: 0x16E3D1, size: 0x8, addend: 0x0, symName: __ZNSt3__110__function12__value_funcIFbPKcS3_EEC2B8ne200100EOS5_, symObjAddr: 0x24FEC, symBinAddr: 0x10002519C, symSize: 0x4A }
  - { offset: 0x16E423, size: 0x8, addend: 0x0, symName: __ZZNK7httplib6Server14check_if_rangeERNS_7RequestERKNSt3__112basic_stringIcNS3_11char_traitsIcEENS3_9allocatorIcEEEElENKUlvE_clEv, symObjAddr: 0x25770, symBinAddr: 0x100025920, symSize: 0x1AE }
  - { offset: 0x16E89D, size: 0x8, addend: 0x0, symName: __ZNSt3__110__function12__value_funcIFbPKcS3_EEC2B8ne200100EOS5_, symObjAddr: 0x24FEC, symBinAddr: 0x10002519C, symSize: 0x4A }
  - { offset: 0x16E8DB, size: 0x8, addend: 0x0, symName: __ZNSt3__110__function6__funcIZNK7httplib6Server21check_if_not_modifiedERKNS2_7RequestERNS2_8ResponseERKNS_12basic_stringIcNS_11char_traitsIcEENS_9allocatorIcEEEElEUlPKcSI_E_NSC_ISJ_EEFbSI_SI_EED1Ev, symObjAddr: 0x25036, symBinAddr: 0x1000251E6, symSize: 0x6 }
  - { offset: 0x16E907, size: 0x8, addend: 0x0, symName: __ZNSt3__110__function6__funcIZNK7httplib6Server21check_if_not_modifiedERKNS2_7RequestERNS2_8ResponseERKNS_12basic_stringIcNS_11char_traitsIcEENS_9allocatorIcEEEElEUlPKcSI_E_NSC_ISJ_EEFbSI_SI_EED0Ev, symObjAddr: 0x2503C, symBinAddr: 0x1000251EC, symSize: 0xA }
  - { offset: 0x16EA1D, size: 0x8, addend: 0x0, symName: __ZNKSt3__110__function6__funcIZNK7httplib6Server21check_if_not_modifiedERKNS2_7RequestERNS2_8ResponseERKNS_12basic_stringIcNS_11char_traitsIcEENS_9allocatorIcEEEElEUlPKcSI_E_NSC_ISJ_EEFbSI_SI_EE7__cloneEv, symObjAddr: 0x25046, symBinAddr: 0x1000251F6, symSize: 0x2C }
  - { offset: 0x16EC3F, size: 0x8, addend: 0x0, symName: __ZNKSt3__110__function6__funcIZNK7httplib6Server21check_if_not_modifiedERKNS2_7RequestERNS2_8ResponseERKNS_12basic_stringIcNS_11char_traitsIcEENS_9allocatorIcEEEElEUlPKcSI_E_NSC_ISJ_EEFbSI_SI_EE7__cloneEPNS0_6__baseISL_EE, symObjAddr: 0x25072, symBinAddr: 0x100025222, symSize: 0x18 }
  - { offset: 0x16ED42, size: 0x8, addend: 0x0, symName: __ZNSt3__110__function6__funcIZNK7httplib6Server21check_if_not_modifiedERKNS2_7RequestERNS2_8ResponseERKNS_12basic_stringIcNS_11char_traitsIcEENS_9allocatorIcEEEElEUlPKcSI_E_NSC_ISJ_EEFbSI_SI_EE7destroyEv, symObjAddr: 0x2508A, symBinAddr: 0x10002523A, symSize: 0x6 }
  - { offset: 0x16ED98, size: 0x8, addend: 0x0, symName: __ZNSt3__110__function6__funcIZNK7httplib6Server21check_if_not_modifiedERKNS2_7RequestERNS2_8ResponseERKNS_12basic_stringIcNS_11char_traitsIcEENS_9allocatorIcEEEElEUlPKcSI_E_NSC_ISJ_EEFbSI_SI_EE18destroy_deallocateEv, symObjAddr: 0x25090, symBinAddr: 0x100025240, symSize: 0xA }
  - { offset: 0x16EE83, size: 0x8, addend: 0x0, symName: __ZNSt3__110__function6__funcIZNK7httplib6Server21check_if_not_modifiedERKNS2_7RequestERNS2_8ResponseERKNS_12basic_stringIcNS_11char_traitsIcEENS_9allocatorIcEEEElEUlPKcSI_E_NSC_ISJ_EEFbSI_SI_EEclEOSI_SN_, symObjAddr: 0x2509A, symBinAddr: 0x10002524A, symSize: 0xE }
  - { offset: 0x16EF44, size: 0x8, addend: 0x0, symName: __ZNSt3__128__invoke_void_return_wrapperIbLb0EE6__callB8ne200100IJRZNK7httplib6Server21check_if_not_modifiedERKNS3_7RequestERNS3_8ResponseERKNS_12basic_stringIcNS_11char_traitsIcEENS_9allocatorIcEEEElEUlPKcSJ_E_SJ_SJ_EEEbDpOT_, symObjAddr: 0x250D2, symBinAddr: 0x100025282, symSize: 0x5C }
  - { offset: 0x16F243, size: 0x8, addend: 0x0, symName: __ZNKSt3__110__function6__funcIZNK7httplib6Server21check_if_not_modifiedERKNS2_7RequestERNS2_8ResponseERKNS_12basic_stringIcNS_11char_traitsIcEENS_9allocatorIcEEEElEUlPKcSI_E_NSC_ISJ_EEFbSI_SI_EE6targetERKSt9type_info, symObjAddr: 0x250A8, symBinAddr: 0x100025258, symSize: 0x1C }
  - { offset: 0x16F2B7, size: 0x8, addend: 0x0, symName: __ZNKSt3__110__function6__funcIZNK7httplib6Server21check_if_not_modifiedERKNS2_7RequestERNS2_8ResponseERKNS_12basic_stringIcNS_11char_traitsIcEENS_9allocatorIcEEEElEUlPKcSI_E_NSC_ISJ_EEFbSI_SI_EE11target_typeEv, symObjAddr: 0x250C4, symBinAddr: 0x100025274, symSize: 0xE }
  - { offset: 0x16F454, size: 0x8, addend: 0x0, symName: __ZNSt3__119basic_istringstreamIcNS_11char_traitsIcEENS_9allocatorIcEEEC1B8ne200100ERKNS_12basic_stringIcS2_S4_EEj, symObjAddr: 0x252D6, symBinAddr: 0x100025486, symSize: 0xC5 }
  - { offset: 0x16F5A1, size: 0x8, addend: 0x0, symName: __ZNSt3__119basic_istringstreamIcNS_11char_traitsIcEENS_9allocatorIcEEED1Ev, symObjAddr: 0x254B8, symBinAddr: 0x100025668, symSize: 0x7A }
  - { offset: 0x16F792, size: 0x8, addend: 0x0, symName: __ZNSt3__115basic_stringbufIcNS_11char_traitsIcEENS_9allocatorIcEEEC2B8ne200100ERKNS_12basic_stringIcS2_S4_EEj, symObjAddr: 0x256C8, symBinAddr: 0x100025878, symSize: 0xA8 }
  - { offset: 0x16FA3A, size: 0x8, addend: 0x0, symName: __ZNSt3__119basic_istringstreamIcNS_11char_traitsIcEENS_9allocatorIcEEED0Ev, symObjAddr: 0x25532, symBinAddr: 0x1000256E2, symSize: 0x82 }
  - { offset: 0x16FC17, size: 0x8, addend: 0x0, symName: __ZTv0_n24_NSt3__119basic_istringstreamIcNS_11char_traitsIcEENS_9allocatorIcEEED1Ev, symObjAddr: 0x255B4, symBinAddr: 0x100025764, symSize: 0x86 }
  - { offset: 0x16FE05, size: 0x8, addend: 0x0, symName: __ZTv0_n24_NSt3__119basic_istringstreamIcNS_11char_traitsIcEENS_9allocatorIcEEED0Ev, symObjAddr: 0x2563A, symBinAddr: 0x1000257EA, symSize: 0x8E }
  - { offset: 0x17006C, size: 0x8, addend: 0x0, symName: __ZNSt3__110__function6__funcIZN7httplib6Server19handle_file_requestERNS2_7RequestERNS2_8ResponseEEUlmmRNS2_8DataSinkEE_NS_9allocatorISA_EEFbmmS9_EED1Ev, symObjAddr: 0x2591E, symBinAddr: 0x100025ACE, symSize: 0x18 }
  - { offset: 0x170174, size: 0x8, addend: 0x0, symName: __ZNSt3__110__function6__funcIZN7httplib6Server19handle_file_requestERNS2_7RequestERNS2_8ResponseEEUlmmRNS2_8DataSinkEE_NS_9allocatorISA_EEFbmmS9_EED0Ev, symObjAddr: 0x25936, symBinAddr: 0x100025AE6, symSize: 0x2A }
  - { offset: 0x1703B5, size: 0x8, addend: 0x0, symName: __ZNKSt3__110__function6__funcIZN7httplib6Server19handle_file_requestERNS2_7RequestERNS2_8ResponseEEUlmmRNS2_8DataSinkEE_NS_9allocatorISA_EEFbmmS9_EE7__cloneEv, symObjAddr: 0x25960, symBinAddr: 0x100025B10, symSize: 0x3A }
  - { offset: 0x1706CF, size: 0x8, addend: 0x0, symName: __ZNKSt3__110__function6__funcIZN7httplib6Server19handle_file_requestERNS2_7RequestERNS2_8ResponseEEUlmmRNS2_8DataSinkEE_NS_9allocatorISA_EEFbmmS9_EE7__cloneEPNS0_6__baseISD_EE, symObjAddr: 0x2599A, symBinAddr: 0x100025B4A, symSize: 0x26 }
  - { offset: 0x170706, size: 0x8, addend: 0x0, symName: __ZNKSt3__110__function6__funcIZN7httplib6Server19handle_file_requestERNS2_7RequestERNS2_8ResponseEEUlmmRNS2_8DataSinkEE_NS_9allocatorISA_EEFbmmS9_EE7__cloneEPNS0_6__baseISD_EE, symObjAddr: 0x2599A, symBinAddr: 0x100025B4A, symSize: 0x26 }
  - { offset: 0x170738, size: 0x8, addend: 0x0, symName: __ZNKSt3__110__function6__funcIZN7httplib6Server19handle_file_requestERNS2_7RequestERNS2_8ResponseEEUlmmRNS2_8DataSinkEE_NS_9allocatorISA_EEFbmmS9_EE7__cloneEPNS0_6__baseISD_EE, symObjAddr: 0x2599A, symBinAddr: 0x100025B4A, symSize: 0x26 }
  - { offset: 0x1708E0, size: 0x8, addend: 0x0, symName: __ZNSt3__110__function6__funcIZN7httplib6Server19handle_file_requestERNS2_7RequestERNS2_8ResponseEEUlmmRNS2_8DataSinkEE_NS_9allocatorISA_EEFbmmS9_EE7destroyEv, symObjAddr: 0x259C0, symBinAddr: 0x100025B70, symSize: 0xE }
  - { offset: 0x1709C1, size: 0x8, addend: 0x0, symName: __ZNSt3__110__function6__funcIZN7httplib6Server19handle_file_requestERNS2_7RequestERNS2_8ResponseEEUlmmRNS2_8DataSinkEE_NS_9allocatorISA_EEFbmmS9_EE18destroy_deallocateEv, symObjAddr: 0x259CE, symBinAddr: 0x100025B7E, symSize: 0x20 }
  - { offset: 0x170BF1, size: 0x8, addend: 0x0, symName: __ZNSt3__110__function6__funcIZN7httplib6Server19handle_file_requestERNS2_7RequestERNS2_8ResponseEEUlmmRNS2_8DataSinkEE_NS_9allocatorISA_EEFbmmS9_EEclEOmSF_S9_, symObjAddr: 0x259EE, symBinAddr: 0x100025B9E, symSize: 0x30 }
  - { offset: 0x170C4E, size: 0x8, addend: 0x0, symName: __ZNSt3__110__function6__funcIZN7httplib6Server19handle_file_requestERNS2_7RequestERNS2_8ResponseEEUlmmRNS2_8DataSinkEE_NS_9allocatorISA_EEFbmmS9_EEclEOmSF_S9_, symObjAddr: 0x259EE, symBinAddr: 0x100025B9E, symSize: 0x30 }
  - { offset: 0x170C82, size: 0x8, addend: 0x0, symName: __ZNSt3__110__function6__funcIZN7httplib6Server19handle_file_requestERNS2_7RequestERNS2_8ResponseEEUlmmRNS2_8DataSinkEE_NS_9allocatorISA_EEFbmmS9_EEclEOmSF_S9_, symObjAddr: 0x259EE, symBinAddr: 0x100025B9E, symSize: 0x30 }
  - { offset: 0x170CB5, size: 0x8, addend: 0x0, symName: __ZNSt3__110__function6__funcIZN7httplib6Server19handle_file_requestERNS2_7RequestERNS2_8ResponseEEUlmmRNS2_8DataSinkEE_NS_9allocatorISA_EEFbmmS9_EEclEOmSF_S9_, symObjAddr: 0x259EE, symBinAddr: 0x100025B9E, symSize: 0x30 }
  - { offset: 0x170CE9, size: 0x8, addend: 0x0, symName: __ZNSt3__110__function6__funcIZN7httplib6Server19handle_file_requestERNS2_7RequestERNS2_8ResponseEEUlmmRNS2_8DataSinkEE_NS_9allocatorISA_EEFbmmS9_EEclEOmSF_S9_, symObjAddr: 0x259EE, symBinAddr: 0x100025B9E, symSize: 0x30 }
  - { offset: 0x170D9D, size: 0x8, addend: 0x0, symName: __ZNKSt3__110__function6__funcIZN7httplib6Server19handle_file_requestERNS2_7RequestERNS2_8ResponseEEUlmmRNS2_8DataSinkEE_NS_9allocatorISA_EEFbmmS9_EE6targetERKSt9type_info, symObjAddr: 0x25A1E, symBinAddr: 0x100025BCE, symSize: 0x1C }
  - { offset: 0x170E11, size: 0x8, addend: 0x0, symName: __ZNKSt3__110__function6__funcIZN7httplib6Server19handle_file_requestERNS2_7RequestERNS2_8ResponseEEUlmmRNS2_8DataSinkEE_NS_9allocatorISA_EEFbmmS9_EE11target_typeEv, symObjAddr: 0x25A3A, symBinAddr: 0x100025BEA, symSize: 0xD }
  - { offset: 0x170E36, size: 0x8, addend: 0x0, symName: __ZNSt3__110__function6__funcIZN7httplib6Server7routingERNS2_7RequestERNS2_8ResponseERNS2_6StreamEEUlNS_8functionIFbPKcmEEEE_NS_9allocatorISF_EEFbSE_EED1Ev, symObjAddr: 0x25B84, symBinAddr: 0x100025D34, symSize: 0x6 }
  - { offset: 0x170E62, size: 0x8, addend: 0x0, symName: __ZNSt3__110__function6__funcIZN7httplib6Server7routingERNS2_7RequestERNS2_8ResponseERNS2_6StreamEEUlNS_8functionIFbPKcmEEEE_NS_9allocatorISF_EEFbSE_EED0Ev, symObjAddr: 0x25B8A, symBinAddr: 0x100025D3A, symSize: 0xA }
  - { offset: 0x170F52, size: 0x8, addend: 0x0, symName: __ZNKSt3__110__function6__funcIZN7httplib6Server7routingERNS2_7RequestERNS2_8ResponseERNS2_6StreamEEUlNS_8functionIFbPKcmEEEE_NS_9allocatorISF_EEFbSE_EE7__cloneEv, symObjAddr: 0x25B94, symBinAddr: 0x100025D44, symSize: 0x34 }
  - { offset: 0x171174, size: 0x8, addend: 0x0, symName: __ZNKSt3__110__function6__funcIZN7httplib6Server7routingERNS2_7RequestERNS2_8ResponseERNS2_6StreamEEUlNS_8functionIFbPKcmEEEE_NS_9allocatorISF_EEFbSE_EE7__cloneEPNS0_6__baseISI_EE, symObjAddr: 0x25BC8, symBinAddr: 0x100025D78, symSize: 0x20 }
  - { offset: 0x171277, size: 0x8, addend: 0x0, symName: __ZNSt3__110__function6__funcIZN7httplib6Server7routingERNS2_7RequestERNS2_8ResponseERNS2_6StreamEEUlNS_8functionIFbPKcmEEEE_NS_9allocatorISF_EEFbSE_EE7destroyEv, symObjAddr: 0x25BE8, symBinAddr: 0x100025D98, symSize: 0x6 }
  - { offset: 0x17129C, size: 0x8, addend: 0x0, symName: __ZNSt3__110__function6__funcIZN7httplib6Server7routingERNS2_7RequestERNS2_8ResponseERNS2_6StreamEEUlNS_8functionIFbPKcmEEEE_NS_9allocatorISF_EEFbSE_EE18destroy_deallocateEv, symObjAddr: 0x25BEE, symBinAddr: 0x100025D9E, symSize: 0xA }
  - { offset: 0x171366, size: 0x8, addend: 0x0, symName: __ZNSt3__110__function6__funcIZN7httplib6Server7routingERNS2_7RequestERNS2_8ResponseERNS2_6StreamEEUlNS_8functionIFbPKcmEEEE_NS_9allocatorISF_EEFbSE_EEclEOSE_, symObjAddr: 0x25BF8, symBinAddr: 0x100025DA8, symSize: 0xE }
  - { offset: 0x171400, size: 0x8, addend: 0x0, symName: __ZNSt3__128__invoke_void_return_wrapperIbLb0EE6__callB8ne200100IJRZN7httplib6Server7routingERNS3_7RequestERNS3_8ResponseERNS3_6StreamEEUlNS_8functionIFbPKcmEEEE_SF_EEEbDpOT_, symObjAddr: 0x25C30, symBinAddr: 0x100025DE0, symSize: 0x9E }
  - { offset: 0x171645, size: 0x8, addend: 0x0, symName: __ZNKSt3__110__function6__funcIZN7httplib6Server7routingERNS2_7RequestERNS2_8ResponseERNS2_6StreamEEUlNS_8functionIFbPKcmEEEE_NS_9allocatorISF_EEFbSE_EE6targetERKSt9type_info, symObjAddr: 0x25C06, symBinAddr: 0x100025DB6, symSize: 0x1C }
  - { offset: 0x1716B9, size: 0x8, addend: 0x0, symName: __ZNKSt3__110__function6__funcIZN7httplib6Server7routingERNS2_7RequestERNS2_8ResponseERNS2_6StreamEEUlNS_8functionIFbPKcmEEEE_NS_9allocatorISF_EEFbSE_EE11target_typeEv, symObjAddr: 0x25C22, symBinAddr: 0x100025DD2, symSize: 0xE }
  - { offset: 0x171754, size: 0x8, addend: 0x0, symName: __ZNSt3__110__function12__value_funcIFbPKcmEEC2B8ne200100EOS5_, symObjAddr: 0x2E218, symBinAddr: 0x10002DF70, symSize: 0x4A }
  - { offset: 0x1717A1, size: 0x8, addend: 0x0, symName: __ZZN7httplib6Server7routingERNS_7RequestERNS_8ResponseERNS_6StreamEENKUlNSt3__18functionIFbPKcmEEEE_clESC_, symObjAddr: 0x25CCE, symBinAddr: 0x100025E7E, symSize: 0x1FA }
  - { offset: 0x171F26, size: 0x8, addend: 0x0, symName: __ZN7httplib6Server34read_content_with_content_receiverERNS_6StreamERNS_7RequestERNS_8ResponseENSt3__18functionIFbPKcmEEENS8_IFbRKNS_8FormDataEEEESC_, symObjAddr: 0x25EC8, symBinAddr: 0x100026078, symSize: 0x15E }
  - { offset: 0x172485, size: 0x8, addend: 0x0, symName: __ZZN7httplib6Server7routingERNS_7RequestERNS_8ResponseERNS_6StreamEENKUlNSt3__18functionIFbPKcmEEEE_clESC_.cold.1, symObjAddr: 0x3895B, symBinAddr: 0x1000574A7, symSize: 0x5D }
  - { offset: 0x1725CA, size: 0x8, addend: 0x0, symName: __ZNSt3__110__function12__value_funcIFbRKN7httplib8FormDataEEEC2B8ne200100EOS7_, symObjAddr: 0x2E1CE, symBinAddr: 0x10002DF26, symSize: 0x4A }
  - { offset: 0x172612, size: 0x8, addend: 0x0, symName: __ZN7httplib6Server34read_content_with_content_receiverERNS_6StreamERNS_7RequestERNS_8ResponseENSt3__18functionIFbPKcmEEENS8_IFbRKNS_8FormDataEEEESC_.cold.1, symObjAddr: 0x389B8, symBinAddr: 0x100057504, symSize: 0x49 }
  - { offset: 0x1728FF, size: 0x8, addend: 0x0, symName: __ZN7httplib6detail14FormDataParserC2Ev, symObjAddr: 0x26DBA, symBinAddr: 0x100026F6A, symSize: 0xBE }
  - { offset: 0x172BF6, size: 0x8, addend: 0x0, symName: __ZNK7httplib7Request22is_multipart_form_dataEv, symObjAddr: 0x266A8, symBinAddr: 0x100026858, symSize: 0x10F }
  - { offset: 0x17319A, size: 0x8, addend: 0x0, symName: __ZN7httplib6detail14FormDataParser12set_boundaryEONSt3__112basic_stringIcNS2_11char_traitsIcEENS2_9allocatorIcEEEE, symObjAddr: 0x26970, symBinAddr: 0x100026B20, symSize: 0x1C0 }
  - { offset: 0x1739F8, size: 0x8, addend: 0x0, symName: __ZNSt3__18functionIFbPKcmmmEEaSIZNK7httplib6Server17read_content_coreERNS6_6StreamERNS6_7RequestERNS6_8ResponseENS0_IFbS2_mEEENS0_IFbRKNS6_8FormDataEEEESF_EUlS2_mmmE_vEERS4_OT_, symObjAddr: 0x26B30, symBinAddr: 0x100026CE0, symSize: 0x8A }
  - { offset: 0x173C40, size: 0x8, addend: 0x0, symName: __ZNSt3__18functionIFbPKcmmmEEaSIZNK7httplib6Server17read_content_coreERNS6_6StreamERNS6_7RequestERNS6_8ResponseENS0_IFbS2_mEEENS0_IFbRKNS6_8FormDataEEEESF_EUlS2_mmmE0_vEERS4_OT_, symObjAddr: 0x26BBA, symBinAddr: 0x100026D6A, symSize: 0xF8 }
  - { offset: 0x1742F7, size: 0x8, addend: 0x0, symName: __ZNSt3__16vectorIcNS_9allocatorIcEEEC2B8ne200100Em, symObjAddr: 0x2BB70, symBinAddr: 0x10002BAE8, symSize: 0x63 }
  - { offset: 0x174575, size: 0x8, addend: 0x0, symName: __ZN7httplib6detail14FormDataParserD2Ev, symObjAddr: 0x2E0F8, symBinAddr: 0x10002DE50, symSize: 0xD6 }
  - { offset: 0x175327, size: 0x8, addend: 0x0, symName: __ZNSt3__110__function12__value_funcIFbPKcmmmEE4swapB8ne200100ERS5_, symObjAddr: 0x2B882, symBinAddr: 0x10002B846, symSize: 0x116 }
  - { offset: 0x1757A1, size: 0x8, addend: 0x0, symName: __ZNSt3__110__function12__value_funcIFbPKcmmmEEC2B8ne200100EOS5_, symObjAddr: 0x2E062, symBinAddr: 0x10002DE06, symSize: 0x4A }
  - { offset: 0x175823, size: 0x8, addend: 0x0, symName: __ZNSt3__110__function6__funcIZNK7httplib6Server17read_content_coreERNS2_6StreamERNS2_7RequestERNS2_8ResponseENS_8functionIFbPKcmEEENSA_IFbRKNS2_8FormDataEEEESE_EUlSC_mmmE_NS_9allocatorISK_EEFbSC_mmmEED1Ev, symObjAddr: 0x26E78, symBinAddr: 0x100027028, symSize: 0x6 }
  - { offset: 0x17584F, size: 0x8, addend: 0x0, symName: __ZNSt3__110__function6__funcIZNK7httplib6Server17read_content_coreERNS2_6StreamERNS2_7RequestERNS2_8ResponseENS_8functionIFbPKcmEEENSA_IFbRKNS2_8FormDataEEEESE_EUlSC_mmmE_NS_9allocatorISK_EEFbSC_mmmEED0Ev, symObjAddr: 0x26E7E, symBinAddr: 0x10002702E, symSize: 0xA }
  - { offset: 0x175965, size: 0x8, addend: 0x0, symName: __ZNKSt3__110__function6__funcIZNK7httplib6Server17read_content_coreERNS2_6StreamERNS2_7RequestERNS2_8ResponseENS_8functionIFbPKcmEEENSA_IFbRKNS2_8FormDataEEEESE_EUlSC_mmmE_NS_9allocatorISK_EEFbSC_mmmEE7__cloneEv, symObjAddr: 0x26E88, symBinAddr: 0x100027038, symSize: 0x34 }
  - { offset: 0x175B87, size: 0x8, addend: 0x0, symName: __ZNKSt3__110__function6__funcIZNK7httplib6Server17read_content_coreERNS2_6StreamERNS2_7RequestERNS2_8ResponseENS_8functionIFbPKcmEEENSA_IFbRKNS2_8FormDataEEEESE_EUlSC_mmmE_NS_9allocatorISK_EEFbSC_mmmEE7__cloneEPNS0_6__baseISN_EE, symObjAddr: 0x26EBC, symBinAddr: 0x10002706C, symSize: 0x20 }
  - { offset: 0x175C8A, size: 0x8, addend: 0x0, symName: __ZNSt3__110__function6__funcIZNK7httplib6Server17read_content_coreERNS2_6StreamERNS2_7RequestERNS2_8ResponseENS_8functionIFbPKcmEEENSA_IFbRKNS2_8FormDataEEEESE_EUlSC_mmmE_NS_9allocatorISK_EEFbSC_mmmEE7destroyEv, symObjAddr: 0x26EDC, symBinAddr: 0x10002708C, symSize: 0x6 }
  - { offset: 0x175CE0, size: 0x8, addend: 0x0, symName: __ZNSt3__110__function6__funcIZNK7httplib6Server17read_content_coreERNS2_6StreamERNS2_7RequestERNS2_8ResponseENS_8functionIFbPKcmEEENSA_IFbRKNS2_8FormDataEEEESE_EUlSC_mmmE_NS_9allocatorISK_EEFbSC_mmmEE18destroy_deallocateEv, symObjAddr: 0x26EE2, symBinAddr: 0x100027092, symSize: 0xA }
  - { offset: 0x175E8E, size: 0x8, addend: 0x0, symName: __ZNSt3__110__function6__funcIZNK7httplib6Server17read_content_coreERNS2_6StreamERNS2_7RequestERNS2_8ResponseENS_8functionIFbPKcmEEENSA_IFbRKNS2_8FormDataEEEESE_EUlSC_mmmE_NS_9allocatorISK_EEFbSC_mmmEEclEOSC_OmSQ_SQ_, symObjAddr: 0x26EEC, symBinAddr: 0x10002709C, symSize: 0x20 }
  - { offset: 0x176009, size: 0x8, addend: 0x0, symName: __ZNKSt3__110__function6__funcIZNK7httplib6Server17read_content_coreERNS2_6StreamERNS2_7RequestERNS2_8ResponseENS_8functionIFbPKcmEEENSA_IFbRKNS2_8FormDataEEEESE_EUlSC_mmmE_NS_9allocatorISK_EEFbSC_mmmEE6targetERKSt9type_info, symObjAddr: 0x26F0C, symBinAddr: 0x1000270BC, symSize: 0x1C }
  - { offset: 0x17607D, size: 0x8, addend: 0x0, symName: __ZNKSt3__110__function6__funcIZNK7httplib6Server17read_content_coreERNS2_6StreamERNS2_7RequestERNS2_8ResponseENS_8functionIFbPKcmEEENSA_IFbRKNS2_8FormDataEEEESE_EUlSC_mmmE_NS_9allocatorISK_EEFbSC_mmmEE11target_typeEv, symObjAddr: 0x26F28, symBinAddr: 0x1000270D8, symSize: 0xE }
  - { offset: 0x176314, size: 0x8, addend: 0x0, symName: __ZN7httplib6detail14FormDataParser10buf_appendEPKcm, symObjAddr: 0x27B0C, symBinAddr: 0x100027CBC, symSize: 0x102 }
  - { offset: 0x176563, size: 0x8, addend: 0x0, symName: __ZNK7httplib6detail14FormDataParser8buf_findERKNSt3__112basic_stringIcNS2_11char_traitsIcEENS2_9allocatorIcEEEE, symObjAddr: 0x27C0E, symBinAddr: 0x100027DBE, symSize: 0xE6 }
  - { offset: 0x17674C, size: 0x8, addend: 0x0, symName: __ZNK7httplib6detail14FormDataParser22start_with_case_ignoreERKNSt3__112basic_stringIcNS2_11char_traitsIcEENS2_9allocatorIcEEEEPKc, symObjAddr: 0x28596, symBinAddr: 0x100028746, symSize: 0x7B }
  - { offset: 0x17695C, size: 0x8, addend: 0x0, symName: __ZNSt3__111basic_regexIcNS_12regex_traitsIcEEEC2B8ne200100EPKcNS_15regex_constants18syntax_option_typeE, symObjAddr: 0x2882E, symBinAddr: 0x1000289DE, symSize: 0x7E }
  - { offset: 0x176B2D, size: 0x8, addend: 0x0, symName: __ZN7httplib6detail14FormDataParser5parseEPKcmRKNSt3__18functionIFbRKNS_8FormDataEEEERKNS5_IFbS3_mEEE.cold.1, symObjAddr: 0x38A01, symBinAddr: 0x10005754D, symSize: 0x31 }
  - { offset: 0x176B45, size: 0x8, addend: 0x0, symName: __ZN7httplib6detail14FormDataParser5parseEPKcmRKNSt3__18functionIFbRKNS_8FormDataEEEERKNS5_IFbS3_mEEE.cold.2, symObjAddr: 0x38A32, symBinAddr: 0x10005757E, symSize: 0x31 }
  - { offset: 0x176B5D, size: 0x8, addend: 0x0, symName: __ZN7httplib6detail14FormDataParser15clear_file_infoEv, symObjAddr: 0x27CF4, symBinAddr: 0x100027EA4, symSize: 0x8C }
  - { offset: 0x176E9C, size: 0x8, addend: 0x0, symName: __ZNK7httplib6detail14FormDataParser10start_withERKNSt3__112basic_stringIcNS2_11char_traitsIcEENS2_9allocatorIcEEEEmmSA_, symObjAddr: 0x2877A, symBinAddr: 0x10002892A, symSize: 0x66 }
  - { offset: 0x176F67, size: 0x8, addend: 0x0, symName: __ZNSt3__112__hash_tableINS_17__hash_value_typeINS_12basic_stringIcNS_11char_traitsIcEENS_9allocatorIcEEEES7_EENS_22__unordered_map_hasherIS7_S8_N7httplib6detail11case_ignore4hashENSC_8equal_toELb1EEENS_21__unordered_map_equalIS7_S8_SE_SD_Lb1EEENS5_IS8_EEE5clearEv, symObjAddr: 0x287E0, symBinAddr: 0x100028990, symSize: 0x4E }
  - { offset: 0x177320, size: 0x8, addend: 0x0, symName: __ZNSt3__111basic_regexIcNS_12regex_traitsIcEEE7__parseIPKcEET_S7_S7_, symObjAddr: 0x288AC, symBinAddr: 0x100028A5C, symSize: 0x11C }
  - { offset: 0x177589, size: 0x8, addend: 0x0, symName: __ZNSt3__111basic_regexIcNS_12regex_traitsIcEEE13__parse_egrepIPKcEET_S7_S7_, symObjAddr: 0x28DA4, symBinAddr: 0x100028F54, symSize: 0x13A }
  - { offset: 0x177998, size: 0x8, addend: 0x0, symName: __ZNSt3__111basic_regexIcNS_12regex_traitsIcEEE24__parse_extended_reg_expIPKcEET_S7_S7_, symObjAddr: 0x28BE2, symBinAddr: 0x100028D92, symSize: 0x88 }
  - { offset: 0x177A97, size: 0x8, addend: 0x0, symName: __ZNSt3__111basic_regexIcNS_12regex_traitsIcEEE12__parse_grepIPKcEET_S7_S7_, symObjAddr: 0x28C6A, symBinAddr: 0x100028E1A, symSize: 0x13A }
  - { offset: 0x177AAB, size: 0x8, addend: 0x0, symName: __ZNSt3__111basic_regexIcNS_12regex_traitsIcEEE21__parse_basic_reg_expIPKcEET_S7_S7_, symObjAddr: 0x28AE0, symBinAddr: 0x100028C90, symSize: 0x102 }
  - { offset: 0x177D7E, size: 0x8, addend: 0x0, symName: __ZNSt3__111basic_regexIcNS_12regex_traitsIcEEE12__parse_grepIPKcEET_S7_S7_, symObjAddr: 0x28C6A, symBinAddr: 0x100028E1A, symSize: 0x13A }
  - { offset: 0x17818D, size: 0x8, addend: 0x0, symName: __ZNSt3__111basic_regexIcNS_12regex_traitsIcEEE16__parse_ecma_expIPKcEET_S7_S7_, symObjAddr: 0x289C8, symBinAddr: 0x100028B78, symSize: 0x118 }
  - { offset: 0x1784E1, size: 0x8, addend: 0x0, symName: __ZNSt3__111basic_regexIcNS_12regex_traitsIcEEE12__parse_termIPKcEET_S7_S7_, symObjAddr: 0x28EDE, symBinAddr: 0x10002908E, symSize: 0x80 }
  - { offset: 0x178614, size: 0x8, addend: 0x0, symName: __ZNSt3__111basic_regexIcNS_12regex_traitsIcEEE17__parse_simple_REIPKcEET_S7_S7_, symObjAddr: 0x2AAA0, symBinAddr: 0x10002AB78, symSize: 0x70 }
  - { offset: 0x1786CC, size: 0x8, addend: 0x0, symName: __ZNSt3__111basic_regexIcNS_12regex_traitsIcEEE18__parse_ERE_branchIPKcEET_S7_S7_, symObjAddr: 0x2AEB8, symBinAddr: 0x10002AF44, symSize: 0x46 }
  - { offset: 0x17876D, size: 0x8, addend: 0x0, symName: __ZNSt3__111basic_regexIcNS_12regex_traitsIcEEE22__parse_ERE_expressionIPKcEET_S7_S7_, symObjAddr: 0x2AEFE, symBinAddr: 0x10002AF8A, symSize: 0x15C }
  - { offset: 0x178781, size: 0x8, addend: 0x0, symName: __ZNSt3__111basic_regexIcNS_12regex_traitsIcEEE17__parse_assertionIPKcEET_S7_S7_, symObjAddr: 0x28F5E, symBinAddr: 0x10002910E, symSize: 0x248 }
  - { offset: 0x178C4C, size: 0x8, addend: 0x0, symName: __ZNSt3__111basic_regexIcNS_12regex_traitsIcEEE12__parse_atomIPKcEET_S7_S7_, symObjAddr: 0x291A6, symBinAddr: 0x100029356, symSize: 0x1A2 }
  - { offset: 0x178EBF, size: 0x8, addend: 0x0, symName: __ZNSt3__111basic_regexIcNS_12regex_traitsIcEEE23__parse_ERE_dupl_symbolIPKcEET_S7_S7_PNS_16__owns_one_stateIcEEjj, symObjAddr: 0x29348, symBinAddr: 0x1000294F8, symSize: 0x32A }
  - { offset: 0x1791B9, size: 0x8, addend: 0x0, symName: __ZNSt3__111basic_regexIcNS_12regex_traitsIcEEE19__parse_atom_escapeIPKcEET_S7_S7_, symObjAddr: 0x29672, symBinAddr: 0x100029822, symSize: 0x78 }
  - { offset: 0x1791CD, size: 0x8, addend: 0x0, symName: __ZNSt3__111basic_regexIcNS_12regex_traitsIcEEE26__parse_bracket_expressionIPKcEET_S7_S7_, symObjAddr: 0x296EA, symBinAddr: 0x10002989A, symSize: 0xEA }
  - { offset: 0x17931B, size: 0x8, addend: 0x0, symName: __ZNSt3__111basic_regexIcNS_12regex_traitsIcEEE19__parse_atom_escapeIPKcEET_S7_S7_, symObjAddr: 0x29672, symBinAddr: 0x100029822, symSize: 0x78 }
  - { offset: 0x1794BC, size: 0x8, addend: 0x0, symName: __ZNSt3__111basic_regexIcNS_12regex_traitsIcEEE17__parse_DUP_COUNTIPKcEET_S7_S7_Ri, symObjAddr: 0x2AA22, symBinAddr: 0x10002AAFA, symSize: 0x7E }
  - { offset: 0x179663, size: 0x8, addend: 0x0, symName: __ZNSt3__111basic_regexIcNS_12regex_traitsIcEEE22__parse_decimal_escapeIPKcEET_S7_S7_, symObjAddr: 0x2981C, symBinAddr: 0x100029984, symSize: 0x7A }
  - { offset: 0x179789, size: 0x8, addend: 0x0, symName: __ZNSt3__111basic_regexIcNS_12regex_traitsIcEEE24__parse_character_escapeIPKcEET_S7_S7_PNS_12basic_stringIcNS_11char_traitsIcEENS_9allocatorIcEEEE, symObjAddr: 0x29928, symBinAddr: 0x100029A00, symSize: 0x458 }
  - { offset: 0x17A505, size: 0x8, addend: 0x0, symName: __ZNSt3__111basic_regexIcNS_12regex_traitsIcEEE23__parse_expression_termIPKcEET_S7_S7_PNS_20__bracket_expressionIcS2_EE, symObjAddr: 0x29D80, symBinAddr: 0x100029E58, symSize: 0x3B4 }
  - { offset: 0x17B4DE, size: 0x8, addend: 0x0, symName: __ZNSt3__111basic_regexIcNS_12regex_traitsIcEEE25__parse_equivalence_classIPKcEET_S7_S7_PNS_20__bracket_expressionIcS2_EE, symObjAddr: 0x2A134, symBinAddr: 0x10002A20C, symSize: 0x1B2 }
  - { offset: 0x17BF25, size: 0x8, addend: 0x0, symName: __ZNSt3__111basic_regexIcNS_12regex_traitsIcEEE18__parse_awk_escapeIPKcEET_S7_S7_PNS_12basic_stringIcNS_11char_traitsIcEENS_9allocatorIcEEEE, symObjAddr: 0x2A51A, symBinAddr: 0x10002A5F2, symSize: 0x2FE }
  - { offset: 0x17C82B, size: 0x8, addend: 0x0, symName: __ZNSt3__111basic_regexIcNS_12regex_traitsIcEEE23__parse_character_classIPKcEET_S7_S7_PNS_20__bracket_expressionIcS2_EE, symObjAddr: 0x2A2E6, symBinAddr: 0x10002A3BE, symSize: 0x70 }
  - { offset: 0x17CB27, size: 0x8, addend: 0x0, symName: __ZNSt3__111basic_regexIcNS_12regex_traitsIcEEE24__parse_collating_symbolIPKcEET_S7_S7_RNS_12basic_stringIcNS_11char_traitsIcEENS_9allocatorIcEEEE, symObjAddr: 0x2A356, symBinAddr: 0x10002A42E, symSize: 0xAE }
  - { offset: 0x17CF1F, size: 0x8, addend: 0x0, symName: __ZNSt3__111basic_regexIcNS_12regex_traitsIcEEE20__parse_class_escapeIPKcEET_S7_S7_RNS_12basic_stringIcNS_11char_traitsIcEENS_9allocatorIcEEEEPNS_20__bracket_expressionIcS2_EE, symObjAddr: 0x2A404, symBinAddr: 0x10002A4DC, symSize: 0x116 }
  - { offset: 0x17D277, size: 0x8, addend: 0x0, symName: __ZNSt3__111basic_regexIcNS_12regex_traitsIcEEE18__parse_awk_escapeIPKcEET_S7_S7_PNS_12basic_stringIcNS_11char_traitsIcEENS_9allocatorIcEEEE, symObjAddr: 0x2A51A, symBinAddr: 0x10002A5F2, symSize: 0x2FE }
  - { offset: 0x17D2C2, size: 0x8, addend: 0x0, symName: __ZNKSt3__112regex_traitsIcE20__lookup_collatenameIPKcEENS_12basic_stringIcNS_11char_traitsIcEENS_9allocatorIcEEEET_SB_c, symObjAddr: 0x2A818, symBinAddr: 0x10002A8F0, symSize: 0x170 }
  - { offset: 0x17DD30, size: 0x8, addend: 0x0, symName: __ZNKSt3__112regex_traitsIcE18__lookup_classnameIPKcEEjT_S5_bc, symObjAddr: 0x2A988, symBinAddr: 0x10002AA60, symSize: 0x9A }
  - { offset: 0x17E229, size: 0x8, addend: 0x0, symName: __ZNSt3__111basic_regexIcNS_12regex_traitsIcEEE18__parse_nondupl_REIPKcEET_S7_S7_, symObjAddr: 0x2AB10, symBinAddr: 0x10002ABE8, symSize: 0xBE }
  - { offset: 0x17E4D8, size: 0x8, addend: 0x0, symName: __ZNSt3__111basic_regexIcNS_12regex_traitsIcEEE22__parse_RE_dupl_symbolIPKcEET_S7_S7_PNS_16__owns_one_stateIcEEjj, symObjAddr: 0x2ABCE, symBinAddr: 0x10002ACA6, symSize: 0x1AC }
  - { offset: 0x17E4EC, size: 0x8, addend: 0x0, symName: __ZNSt3__111basic_regexIcNS_12regex_traitsIcEEE22__parse_RE_dupl_symbolIPKcEET_S7_S7_PNS_16__owns_one_stateIcEEjj, symObjAddr: 0x2ABCE, symBinAddr: 0x10002ACA6, symSize: 0x1AC }
  - { offset: 0x17E95E, size: 0x8, addend: 0x0, symName: __ZNSt3__111basic_regexIcNS_12regex_traitsIcEEE32__parse_one_char_or_coll_elem_REIPKcEET_S7_S7_, symObjAddr: 0x2AD7A, symBinAddr: 0x10002AE52, symSize: 0xF0 }
  - { offset: 0x17ECF9, size: 0x8, addend: 0x0, symName: __ZNSt3__111basic_regexIcNS_12regex_traitsIcEEE22__parse_ERE_expressionIPKcEET_S7_S7_, symObjAddr: 0x2AEFE, symBinAddr: 0x10002AF8A, symSize: 0x15C }
  - { offset: 0x17EF2A, size: 0x8, addend: 0x0, symName: __ZNSt3__111basic_regexIcNS_12regex_traitsIcEEE33__parse_one_char_or_coll_elem_EREIPKcEET_S7_S7_, symObjAddr: 0x2B05A, symBinAddr: 0x10002B0E6, symSize: 0x9E }
  - { offset: 0x17F0E9, size: 0x8, addend: 0x0, symName: __ZNSt3__111basic_regexIcNS_12regex_traitsIcEEE23__parse_QUOTED_CHAR_EREIPKcEET_S7_S7_, symObjAddr: 0x2B156, symBinAddr: 0x10002B186, symSize: 0x84 }
  - { offset: 0x17F203, size: 0x8, addend: 0x0, symName: __ZNSt3__110__function6__funcIZN7httplib6detail24parse_disposition_paramsERKNS_12basic_stringIcNS_11char_traitsIcEENS_9allocatorIcEEEERNS_8multimapIS9_S9_NS_4lessIS9_EENS7_INS_4pairISA_S9_EEEEEEEUlPKcSL_E_NS7_ISM_EEFvSL_SL_EED1Ev, symObjAddr: 0x2B1DA, symBinAddr: 0x10002B20A, symSize: 0x6 }
  - { offset: 0x17F22F, size: 0x8, addend: 0x0, symName: __ZNSt3__110__function6__funcIZN7httplib6detail24parse_disposition_paramsERKNS_12basic_stringIcNS_11char_traitsIcEENS_9allocatorIcEEEERNS_8multimapIS9_S9_NS_4lessIS9_EENS7_INS_4pairISA_S9_EEEEEEEUlPKcSL_E_NS7_ISM_EEFvSL_SL_EED0Ev, symObjAddr: 0x2B1E0, symBinAddr: 0x10002B210, symSize: 0xA }
  - { offset: 0x17F345, size: 0x8, addend: 0x0, symName: __ZNKSt3__110__function6__funcIZN7httplib6detail24parse_disposition_paramsERKNS_12basic_stringIcNS_11char_traitsIcEENS_9allocatorIcEEEERNS_8multimapIS9_S9_NS_4lessIS9_EENS7_INS_4pairISA_S9_EEEEEEEUlPKcSL_E_NS7_ISM_EEFvSL_SL_EE7__cloneEv, symObjAddr: 0x2B1EA, symBinAddr: 0x10002B21A, symSize: 0x2C }
  - { offset: 0x17F567, size: 0x8, addend: 0x0, symName: __ZNKSt3__110__function6__funcIZN7httplib6detail24parse_disposition_paramsERKNS_12basic_stringIcNS_11char_traitsIcEENS_9allocatorIcEEEERNS_8multimapIS9_S9_NS_4lessIS9_EENS7_INS_4pairISA_S9_EEEEEEEUlPKcSL_E_NS7_ISM_EEFvSL_SL_EE7__cloneEPNS0_6__baseISO_EE, symObjAddr: 0x2B216, symBinAddr: 0x10002B246, symSize: 0x18 }
  - { offset: 0x17F66A, size: 0x8, addend: 0x0, symName: __ZNSt3__110__function6__funcIZN7httplib6detail24parse_disposition_paramsERKNS_12basic_stringIcNS_11char_traitsIcEENS_9allocatorIcEEEERNS_8multimapIS9_S9_NS_4lessIS9_EENS7_INS_4pairISA_S9_EEEEEEEUlPKcSL_E_NS7_ISM_EEFvSL_SL_EE7destroyEv, symObjAddr: 0x2B22E, symBinAddr: 0x10002B25E, symSize: 0x6 }
  - { offset: 0x17F6C0, size: 0x8, addend: 0x0, symName: __ZNSt3__110__function6__funcIZN7httplib6detail24parse_disposition_paramsERKNS_12basic_stringIcNS_11char_traitsIcEENS_9allocatorIcEEEERNS_8multimapIS9_S9_NS_4lessIS9_EENS7_INS_4pairISA_S9_EEEEEEEUlPKcSL_E_NS7_ISM_EEFvSL_SL_EE18destroy_deallocateEv, symObjAddr: 0x2B234, symBinAddr: 0x10002B264, symSize: 0xA }
  - { offset: 0x17F7E9, size: 0x8, addend: 0x0, symName: __ZNSt3__110__function6__funcIZN7httplib6detail24parse_disposition_paramsERKNS_12basic_stringIcNS_11char_traitsIcEENS_9allocatorIcEEEERNS_8multimapIS9_S9_NS_4lessIS9_EENS7_INS_4pairISA_S9_EEEEEEEUlPKcSL_E_NS7_ISM_EEFvSL_SL_EEclEOSL_SQ_, symObjAddr: 0x2B23E, symBinAddr: 0x10002B26E, symSize: 0x14 }
  - { offset: 0x17F90A, size: 0x8, addend: 0x0, symName: __ZNKSt3__110__function6__funcIZN7httplib6detail24parse_disposition_paramsERKNS_12basic_stringIcNS_11char_traitsIcEENS_9allocatorIcEEEERNS_8multimapIS9_S9_NS_4lessIS9_EENS7_INS_4pairISA_S9_EEEEEEEUlPKcSL_E_NS7_ISM_EEFvSL_SL_EE6targetERKSt9type_info, symObjAddr: 0x2B252, symBinAddr: 0x10002B282, symSize: 0x1C }
  - { offset: 0x17F97E, size: 0x8, addend: 0x0, symName: __ZNKSt3__110__function6__funcIZN7httplib6detail24parse_disposition_paramsERKNS_12basic_stringIcNS_11char_traitsIcEENS_9allocatorIcEEEERNS_8multimapIS9_S9_NS_4lessIS9_EENS7_INS_4pairISA_S9_EEEEEEEUlPKcSL_E_NS7_ISM_EEFvSL_SL_EE11target_typeEv, symObjAddr: 0x2B26E, symBinAddr: 0x10002B29E, symSize: 0xE }
  - { offset: 0x17FBF3, size: 0x8, addend: 0x0, symName: __ZNSt3__16__treeINS_12basic_stringIcNS_11char_traitsIcEENS_9allocatorIcEEEENS_4lessIS6_EENS4_IS6_EEE25__emplace_unique_key_argsIS6_JRKS6_EEENS_4pairINS_15__tree_iteratorIS6_PNS_11__tree_nodeIS6_PvEElEEbEERKT_DpOT0_, symObjAddr: 0x2B62E, symBinAddr: 0x10002B65E, symSize: 0x68 }
  - { offset: 0x17FD66, size: 0x8, addend: 0x0, symName: __ZNSt3__110__function6__funcIZZN7httplib6detail24parse_disposition_paramsERKNS_12basic_stringIcNS_11char_traitsIcEENS_9allocatorIcEEEERNS_8multimapIS9_S9_NS_4lessIS9_EENS7_INS_4pairISA_S9_EEEEEEENKUlPKcSL_E_clESL_SL_EUlSL_SL_E_NS7_ISN_EEFvSL_SL_EED1Ev, symObjAddr: 0x2B696, symBinAddr: 0x10002B6C6, symSize: 0x6 }
  - { offset: 0x17FD92, size: 0x8, addend: 0x0, symName: __ZNSt3__110__function6__funcIZZN7httplib6detail24parse_disposition_paramsERKNS_12basic_stringIcNS_11char_traitsIcEENS_9allocatorIcEEEERNS_8multimapIS9_S9_NS_4lessIS9_EENS7_INS_4pairISA_S9_EEEEEEENKUlPKcSL_E_clESL_SL_EUlSL_SL_E_NS7_ISN_EEFvSL_SL_EED0Ev, symObjAddr: 0x2B69C, symBinAddr: 0x10002B6CC, symSize: 0xA }
  - { offset: 0x17FEA8, size: 0x8, addend: 0x0, symName: __ZNKSt3__110__function6__funcIZZN7httplib6detail24parse_disposition_paramsERKNS_12basic_stringIcNS_11char_traitsIcEENS_9allocatorIcEEEERNS_8multimapIS9_S9_NS_4lessIS9_EENS7_INS_4pairISA_S9_EEEEEEENKUlPKcSL_E_clESL_SL_EUlSL_SL_E_NS7_ISN_EEFvSL_SL_EE7__cloneEv, symObjAddr: 0x2B6A6, symBinAddr: 0x10002B6D6, symSize: 0x2C }
  - { offset: 0x1800CA, size: 0x8, addend: 0x0, symName: __ZNKSt3__110__function6__funcIZZN7httplib6detail24parse_disposition_paramsERKNS_12basic_stringIcNS_11char_traitsIcEENS_9allocatorIcEEEERNS_8multimapIS9_S9_NS_4lessIS9_EENS7_INS_4pairISA_S9_EEEEEEENKUlPKcSL_E_clESL_SL_EUlSL_SL_E_NS7_ISN_EEFvSL_SL_EE7__cloneEPNS0_6__baseISP_EE, symObjAddr: 0x2B6D2, symBinAddr: 0x10002B702, symSize: 0x18 }
  - { offset: 0x1801CD, size: 0x8, addend: 0x0, symName: __ZNSt3__110__function6__funcIZZN7httplib6detail24parse_disposition_paramsERKNS_12basic_stringIcNS_11char_traitsIcEENS_9allocatorIcEEEERNS_8multimapIS9_S9_NS_4lessIS9_EENS7_INS_4pairISA_S9_EEEEEEENKUlPKcSL_E_clESL_SL_EUlSL_SL_E_NS7_ISN_EEFvSL_SL_EE7destroyEv, symObjAddr: 0x2B6EA, symBinAddr: 0x10002B71A, symSize: 0x6 }
  - { offset: 0x180223, size: 0x8, addend: 0x0, symName: __ZNSt3__110__function6__funcIZZN7httplib6detail24parse_disposition_paramsERKNS_12basic_stringIcNS_11char_traitsIcEENS_9allocatorIcEEEERNS_8multimapIS9_S9_NS_4lessIS9_EENS7_INS_4pairISA_S9_EEEEEEENKUlPKcSL_E_clESL_SL_EUlSL_SL_E_NS7_ISN_EEFvSL_SL_EE18destroy_deallocateEv, symObjAddr: 0x2B6F0, symBinAddr: 0x10002B720, symSize: 0xA }
  - { offset: 0x18030E, size: 0x8, addend: 0x0, symName: __ZNSt3__110__function6__funcIZZN7httplib6detail24parse_disposition_paramsERKNS_12basic_stringIcNS_11char_traitsIcEENS_9allocatorIcEEEERNS_8multimapIS9_S9_NS_4lessIS9_EENS7_INS_4pairISA_S9_EEEEEEENKUlPKcSL_E_clESL_SL_EUlSL_SL_E_NS7_ISN_EEFvSL_SL_EEclEOSL_SR_, symObjAddr: 0x2B6FA, symBinAddr: 0x10002B72A, symSize: 0xE }
  - { offset: 0x1803CF, size: 0x8, addend: 0x0, symName: __ZNSt3__128__invoke_void_return_wrapperIvLb1EE6__callB8ne200100IJRZZN7httplib6detail24parse_disposition_paramsERKNS_12basic_stringIcNS_11char_traitsIcEENS_9allocatorIcEEEERNS_8multimapISA_SA_NS_4lessISA_EENS8_INS_4pairISB_SA_EEEEEEENKUlPKcSM_E_clESM_SM_EUlSM_SM_E_SM_SM_EEEvDpOT_, symObjAddr: 0x2B732, symBinAddr: 0x10002B762, symSize: 0x36 }
  - { offset: 0x180567, size: 0x8, addend: 0x0, symName: __ZNKSt3__110__function6__funcIZZN7httplib6detail24parse_disposition_paramsERKNS_12basic_stringIcNS_11char_traitsIcEENS_9allocatorIcEEEERNS_8multimapIS9_S9_NS_4lessIS9_EENS7_INS_4pairISA_S9_EEEEEEENKUlPKcSL_E_clESL_SL_EUlSL_SL_E_NS7_ISN_EEFvSL_SL_EE6targetERKSt9type_info, symObjAddr: 0x2B708, symBinAddr: 0x10002B738, symSize: 0x1C }
  - { offset: 0x1805DB, size: 0x8, addend: 0x0, symName: __ZNKSt3__110__function6__funcIZZN7httplib6detail24parse_disposition_paramsERKNS_12basic_stringIcNS_11char_traitsIcEENS_9allocatorIcEEEERNS_8multimapIS9_S9_NS_4lessIS9_EENS7_INS_4pairISA_S9_EEEEEEENKUlPKcSL_E_clESL_SL_EUlSL_SL_E_NS7_ISN_EEFvSL_SL_EE11target_typeEv, symObjAddr: 0x2B724, symBinAddr: 0x10002B754, symSize: 0xE }
  - { offset: 0x180688, size: 0x8, addend: 0x0, symName: __ZNSt3__112basic_stringIcNS_11char_traitsIcEENS_9allocatorIcEEE16__assign_trivialB8ne200100IPKcS8_EEvT_T0_m, symObjAddr: 0x2B768, symBinAddr: 0x10002B798, symSize: 0xAE }
  - { offset: 0x180ADA, size: 0x8, addend: 0x0, symName: __ZNSt3__110__function6__funcIZNK7httplib6Server17read_content_coreERNS2_6StreamERNS2_7RequestERNS2_8ResponseENS_8functionIFbPKcmEEENSA_IFbRKNS2_8FormDataEEEESE_EUlSC_mmmE0_NS_9allocatorISK_EEFbSC_mmmEED1Ev, symObjAddr: 0x2B9E4, symBinAddr: 0x10002B95C, symSize: 0x36 }
  - { offset: 0x180C05, size: 0x8, addend: 0x0, symName: __ZNSt3__110__function6__funcIZNK7httplib6Server17read_content_coreERNS2_6StreamERNS2_7RequestERNS2_8ResponseENS_8functionIFbPKcmEEENSA_IFbRKNS2_8FormDataEEEESE_EUlSC_mmmE0_NS_9allocatorISK_EEFbSC_mmmEED0Ev, symObjAddr: 0x2BA1A, symBinAddr: 0x10002B992, symSize: 0x46 }
  - { offset: 0x180FA8, size: 0x8, addend: 0x0, symName: __ZNKSt3__110__function6__funcIZNK7httplib6Server17read_content_coreERNS2_6StreamERNS2_7RequestERNS2_8ResponseENS_8functionIFbPKcmEEENSA_IFbRKNS2_8FormDataEEEESE_EUlSC_mmmE0_NS_9allocatorISK_EEFbSC_mmmEE7__cloneEv, symObjAddr: 0x2BA60, symBinAddr: 0x10002B9D8, symSize: 0x4A }
  - { offset: 0x181390, size: 0x8, addend: 0x0, symName: __ZNKSt3__110__function6__funcIZNK7httplib6Server17read_content_coreERNS2_6StreamERNS2_7RequestERNS2_8ResponseENS_8functionIFbPKcmEEENSA_IFbRKNS2_8FormDataEEEESE_EUlSC_mmmE0_NS_9allocatorISK_EEFbSC_mmmEE7__cloneEPNS0_6__baseISN_EE, symObjAddr: 0x2BAAA, symBinAddr: 0x10002BA22, symSize: 0x20 }
  - { offset: 0x18156D, size: 0x8, addend: 0x0, symName: __ZNSt3__110__function6__funcIZNK7httplib6Server17read_content_coreERNS2_6StreamERNS2_7RequestERNS2_8ResponseENS_8functionIFbPKcmEEENSA_IFbRKNS2_8FormDataEEEESE_EUlSC_mmmE0_NS_9allocatorISK_EEFbSC_mmmEE7destroyEv, symObjAddr: 0x2BACA, symBinAddr: 0x10002BA42, symSize: 0x2C }
  - { offset: 0x18164E, size: 0x8, addend: 0x0, symName: __ZNSt3__110__function6__funcIZNK7httplib6Server17read_content_coreERNS2_6StreamERNS2_7RequestERNS2_8ResponseENS_8functionIFbPKcmEEENSA_IFbRKNS2_8FormDataEEEESE_EUlSC_mmmE0_NS_9allocatorISK_EEFbSC_mmmEE18destroy_deallocateEv, symObjAddr: 0x2BAF6, symBinAddr: 0x10002BA6E, symSize: 0x3C }
  - { offset: 0x1818F6, size: 0x8, addend: 0x0, symName: __ZNSt3__110__function6__funcIZNK7httplib6Server17read_content_coreERNS2_6StreamERNS2_7RequestERNS2_8ResponseENS_8functionIFbPKcmEEENSA_IFbRKNS2_8FormDataEEEESE_EUlSC_mmmE0_NS_9allocatorISK_EEFbSC_mmmEEclEOSC_OmSQ_SQ_, symObjAddr: 0x2BB32, symBinAddr: 0x10002BAAA, symSize: 0x14 }
  - { offset: 0x181A63, size: 0x8, addend: 0x0, symName: __ZNKSt3__110__function6__funcIZNK7httplib6Server17read_content_coreERNS2_6StreamERNS2_7RequestERNS2_8ResponseENS_8functionIFbPKcmEEENSA_IFbRKNS2_8FormDataEEEESE_EUlSC_mmmE0_NS_9allocatorISK_EEFbSC_mmmEE6targetERKSt9type_info, symObjAddr: 0x2BB46, symBinAddr: 0x10002BABE, symSize: 0x1C }
  - { offset: 0x181AD7, size: 0x8, addend: 0x0, symName: __ZNKSt3__110__function6__funcIZNK7httplib6Server17read_content_coreERNS2_6StreamERNS2_7RequestERNS2_8ResponseENS_8functionIFbPKcmEEENSA_IFbRKNS2_8FormDataEEEESE_EUlSC_mmmE0_NS_9allocatorISK_EEFbSC_mmmEE11target_typeEv, symObjAddr: 0x2BB62, symBinAddr: 0x10002BADA, symSize: 0xE }
  - { offset: 0x182099, size: 0x8, addend: 0x0, symName: __ZZN7httplib6detail12read_contentINS_7RequestEEEbRNS_6StreamERT_mRiNSt3__18functionIFbmmEEENS9_IFbPKcmmmEEEbENKUlRKSF_E_clESH_, symObjAddr: 0x2BE50, symBinAddr: 0x10002BDC8, symSize: 0x608 }
  - { offset: 0x18366F, size: 0x8, addend: 0x0, symName: __ZN7httplib6detail20read_content_chunkedINS_7RequestEEENS0_17ReadContentResultERNS_6StreamERT_mNSt3__18functionIFbPKcmmmEEE, symObjAddr: 0x2C6CA, symBinAddr: 0x10002C602, symSize: 0x1E0 }
  - { offset: 0x18367A, size: 0x8, addend: 0x0, symName: __ZNSt3__110__function12__value_funcIFbmmEEC2B8ne200100EOS3_, symObjAddr: 0x2DF70, symBinAddr: 0x10002DD14, symSize: 0x4A }
  - { offset: 0x1836C2, size: 0x8, addend: 0x0, symName: __ZNSt3__110__function6__funcIZN7httplib6detail24prepare_content_receiverINS2_7RequestEZNS3_12read_contentIS5_EEbRNS2_6StreamERT_mRiNS_8functionIFbmmEEENSC_IFbPKcmmmEEEbEUlRKSI_E_EEbSA_SB_SI_bT0_EUlSG_mmmE_NS_9allocatorISN_EESH_ED1Ev, symObjAddr: 0x2C458, symBinAddr: 0x10002C3D0, symSize: 0x6 }
  - { offset: 0x1836EE, size: 0x8, addend: 0x0, symName: __ZNSt3__110__function6__funcIZN7httplib6detail24prepare_content_receiverINS2_7RequestEZNS3_12read_contentIS5_EEbRNS2_6StreamERT_mRiNS_8functionIFbmmEEENSC_IFbPKcmmmEEEbEUlRKSI_E_EEbSA_SB_SI_bT0_EUlSG_mmmE_NS_9allocatorISN_EESH_ED0Ev, symObjAddr: 0x2C45E, symBinAddr: 0x10002C3D6, symSize: 0xA }
  - { offset: 0x183804, size: 0x8, addend: 0x0, symName: __ZNKSt3__110__function6__funcIZN7httplib6detail24prepare_content_receiverINS2_7RequestEZNS3_12read_contentIS5_EEbRNS2_6StreamERT_mRiNS_8functionIFbmmEEENSC_IFbPKcmmmEEEbEUlRKSI_E_EEbSA_SB_SI_bT0_EUlSG_mmmE_NS_9allocatorISN_EESH_E7__cloneEv, symObjAddr: 0x2C468, symBinAddr: 0x10002C3E0, symSize: 0x2C }
  - { offset: 0x183A26, size: 0x8, addend: 0x0, symName: __ZNKSt3__110__function6__funcIZN7httplib6detail24prepare_content_receiverINS2_7RequestEZNS3_12read_contentIS5_EEbRNS2_6StreamERT_mRiNS_8functionIFbmmEEENSC_IFbPKcmmmEEEbEUlRKSI_E_EEbSA_SB_SI_bT0_EUlSG_mmmE_NS_9allocatorISN_EESH_E7__cloneEPNS0_6__baseISH_EE, symObjAddr: 0x2C494, symBinAddr: 0x10002C40C, symSize: 0x18 }
  - { offset: 0x183B29, size: 0x8, addend: 0x0, symName: __ZNSt3__110__function6__funcIZN7httplib6detail24prepare_content_receiverINS2_7RequestEZNS3_12read_contentIS5_EEbRNS2_6StreamERT_mRiNS_8functionIFbmmEEENSC_IFbPKcmmmEEEbEUlRKSI_E_EEbSA_SB_SI_bT0_EUlSG_mmmE_NS_9allocatorISN_EESH_E7destroyEv, symObjAddr: 0x2C4AC, symBinAddr: 0x10002C424, symSize: 0x6 }
  - { offset: 0x183B7F, size: 0x8, addend: 0x0, symName: __ZNSt3__110__function6__funcIZN7httplib6detail24prepare_content_receiverINS2_7RequestEZNS3_12read_contentIS5_EEbRNS2_6StreamERT_mRiNS_8functionIFbmmEEENSC_IFbPKcmmmEEEbEUlRKSI_E_EEbSA_SB_SI_bT0_EUlSG_mmmE_NS_9allocatorISN_EESH_E18destroy_deallocateEv, symObjAddr: 0x2C4B2, symBinAddr: 0x10002C42A, symSize: 0xA }
  - { offset: 0x183C80, size: 0x8, addend: 0x0, symName: __ZNSt3__110__function6__funcIZN7httplib6detail24prepare_content_receiverINS2_7RequestEZNS3_12read_contentIS5_EEbRNS2_6StreamERT_mRiNS_8functionIFbmmEEENSC_IFbPKcmmmEEEbEUlRKSI_E_EEbSA_SB_SI_bT0_EUlSG_mmmE_NS_9allocatorISN_EESH_EclEOSG_OmSS_SS_, symObjAddr: 0x2C4BC, symBinAddr: 0x10002C434, symSize: 0xE }
  - { offset: 0x183D8F, size: 0x8, addend: 0x0, symName: __ZNSt3__128__invoke_void_return_wrapperIbLb0EE6__callB8ne200100IJRZN7httplib6detail24prepare_content_receiverINS3_7RequestEZNS4_12read_contentIS6_EEbRNS3_6StreamERT_mRiNS_8functionIFbmmEEENSD_IFbPKcmmmEEEbEUlRKSJ_E_EEbSB_SC_SJ_bT0_EUlSH_mmmE_SH_mmmEEEbDpOT_, symObjAddr: 0x2C4F4, symBinAddr: 0x10002C46C, symSize: 0xD0 }
  - { offset: 0x184108, size: 0x8, addend: 0x0, symName: __ZNKSt3__110__function6__funcIZN7httplib6detail24prepare_content_receiverINS2_7RequestEZNS3_12read_contentIS5_EEbRNS2_6StreamERT_mRiNS_8functionIFbmmEEENSC_IFbPKcmmmEEEbEUlRKSI_E_EEbSA_SB_SI_bT0_EUlSG_mmmE_NS_9allocatorISN_EESH_E6targetERKSt9type_info, symObjAddr: 0x2C4CA, symBinAddr: 0x10002C442, symSize: 0x1C }
  - { offset: 0x18417C, size: 0x8, addend: 0x0, symName: __ZNKSt3__110__function6__funcIZN7httplib6detail24prepare_content_receiverINS2_7RequestEZNS3_12read_contentIS5_EEbRNS2_6StreamERT_mRiNS_8functionIFbmmEEENSC_IFbPKcmmmEEEbEUlRKSI_E_EEbSA_SB_SI_bT0_EUlSG_mmmE_NS_9allocatorISN_EESH_E11target_typeEv, symObjAddr: 0x2C4E6, symBinAddr: 0x10002C45E, symSize: 0xE }
  - { offset: 0x184412, size: 0x8, addend: 0x0, symName: __ZNSt3__110__function6__funcIZZN7httplib6detail24prepare_content_receiverINS2_7RequestEZNS3_12read_contentIS5_EEbRNS2_6StreamERT_mRiNS_8functionIFbmmEEENSC_IFbPKcmmmEEEbEUlRKSI_E_EEbSA_SB_SI_bT0_ENKUlSG_mmmE_clESG_mmmEUlSG_mE_NS_9allocatorISO_EEFbSG_mEED1Ev, symObjAddr: 0x2C5C4, symBinAddr: 0x10002C53C, symSize: 0x6 }
  - { offset: 0x18443E, size: 0x8, addend: 0x0, symName: __ZNSt3__110__function6__funcIZZN7httplib6detail24prepare_content_receiverINS2_7RequestEZNS3_12read_contentIS5_EEbRNS2_6StreamERT_mRiNS_8functionIFbmmEEENSC_IFbPKcmmmEEEbEUlRKSI_E_EEbSA_SB_SI_bT0_ENKUlSG_mmmE_clESG_mmmEUlSG_mE_NS_9allocatorISO_EEFbSG_mEED0Ev, symObjAddr: 0x2C5CA, symBinAddr: 0x10002C542, symSize: 0xA }
  - { offset: 0x184554, size: 0x8, addend: 0x0, symName: __ZNKSt3__110__function6__funcIZZN7httplib6detail24prepare_content_receiverINS2_7RequestEZNS3_12read_contentIS5_EEbRNS2_6StreamERT_mRiNS_8functionIFbmmEEENSC_IFbPKcmmmEEEbEUlRKSI_E_EEbSA_SB_SI_bT0_ENKUlSG_mmmE_clESG_mmmEUlSG_mE_NS_9allocatorISO_EEFbSG_mEE7__cloneEv, symObjAddr: 0x2C5D4, symBinAddr: 0x10002C54C, symSize: 0x34 }
  - { offset: 0x184776, size: 0x8, addend: 0x0, symName: __ZNKSt3__110__function6__funcIZZN7httplib6detail24prepare_content_receiverINS2_7RequestEZNS3_12read_contentIS5_EEbRNS2_6StreamERT_mRiNS_8functionIFbmmEEENSC_IFbPKcmmmEEEbEUlRKSI_E_EEbSA_SB_SI_bT0_ENKUlSG_mmmE_clESG_mmmEUlSG_mE_NS_9allocatorISO_EEFbSG_mEE7__cloneEPNS0_6__baseISR_EE, symObjAddr: 0x2C608, symBinAddr: 0x10002C580, symSize: 0x20 }
  - { offset: 0x184879, size: 0x8, addend: 0x0, symName: __ZNSt3__110__function6__funcIZZN7httplib6detail24prepare_content_receiverINS2_7RequestEZNS3_12read_contentIS5_EEbRNS2_6StreamERT_mRiNS_8functionIFbmmEEENSC_IFbPKcmmmEEEbEUlRKSI_E_EEbSA_SB_SI_bT0_ENKUlSG_mmmE_clESG_mmmEUlSG_mE_NS_9allocatorISO_EEFbSG_mEE7destroyEv, symObjAddr: 0x2C628, symBinAddr: 0x10002C5A0, symSize: 0x6 }
  - { offset: 0x1848CF, size: 0x8, addend: 0x0, symName: __ZNSt3__110__function6__funcIZZN7httplib6detail24prepare_content_receiverINS2_7RequestEZNS3_12read_contentIS5_EEbRNS2_6StreamERT_mRiNS_8functionIFbmmEEENSC_IFbPKcmmmEEEbEUlRKSI_E_EEbSA_SB_SI_bT0_ENKUlSG_mmmE_clESG_mmmEUlSG_mE_NS_9allocatorISO_EEFbSG_mEE18destroy_deallocateEv, symObjAddr: 0x2C62E, symBinAddr: 0x10002C5A6, symSize: 0xA }
  - { offset: 0x184A35, size: 0x8, addend: 0x0, symName: __ZNSt3__110__function6__funcIZZN7httplib6detail24prepare_content_receiverINS2_7RequestEZNS3_12read_contentIS5_EEbRNS2_6StreamERT_mRiNS_8functionIFbmmEEENSC_IFbPKcmmmEEEbEUlRKSI_E_EEbSA_SB_SI_bT0_ENKUlSG_mmmE_clESG_mmmEUlSG_mE_NS_9allocatorISO_EEFbSG_mEEclEOSG_Om, symObjAddr: 0x2C638, symBinAddr: 0x10002C5B0, symSize: 0x26 }
  - { offset: 0x184B8E, size: 0x8, addend: 0x0, symName: __ZNKSt3__110__function6__funcIZZN7httplib6detail24prepare_content_receiverINS2_7RequestEZNS3_12read_contentIS5_EEbRNS2_6StreamERT_mRiNS_8functionIFbmmEEENSC_IFbPKcmmmEEEbEUlRKSI_E_EEbSA_SB_SI_bT0_ENKUlSG_mmmE_clESG_mmmEUlSG_mE_NS_9allocatorISO_EEFbSG_mEE6targetERKSt9type_info, symObjAddr: 0x2C65E, symBinAddr: 0x10002C5D6, symSize: 0x1C }
  - { offset: 0x184C02, size: 0x8, addend: 0x0, symName: __ZNKSt3__110__function6__funcIZZN7httplib6detail24prepare_content_receiverINS2_7RequestEZNS3_12read_contentIS5_EEbRNS2_6StreamERT_mRiNS_8functionIFbmmEEENSC_IFbPKcmmmEEEbEUlRKSI_E_EEbSA_SB_SI_bT0_ENKUlSG_mmmE_clESG_mmmEUlSG_mE_NS_9allocatorISO_EEFbSG_mEE11target_typeEv, symObjAddr: 0x2C67A, symBinAddr: 0x10002C5F2, symSize: 0xE }
  - { offset: 0x184CFF, size: 0x8, addend: 0x0, symName: __ZN7httplib6detail14ChunkedDecoder12read_payloadEPcmRmS3_, symObjAddr: 0x2C8AA, symBinAddr: 0x10002C7E2, symSize: 0x271 }
  - { offset: 0x1859F5, size: 0x8, addend: 0x0, symName: __ZNSt3__113unordered_setINS_12basic_stringIcNS_11char_traitsIcEENS_9allocatorIcEEEEN7httplib6detail11case_ignore4hashENS9_8equal_toENS4_IS6_EEEC2ESt16initializer_listIS6_E, symObjAddr: 0x2D5A8, symBinAddr: 0x10002D4E0, symSize: 0x64 }
  - { offset: 0x185C43, size: 0x8, addend: 0x0, symName: __ZNSt3__113unordered_setINS_12basic_stringIcNS_11char_traitsIcEENS_9allocatorIcEEEEN7httplib6detail11case_ignore4hashENS9_8equal_toENS4_IS6_EEED1B8ne200100Ev, symObjAddr: 0x2D15E, symBinAddr: 0x10002D096, symSize: 0xA }
  - { offset: 0x185E9B, size: 0x8, addend: 0x0, symName: __ZNSt3__112__hash_tableINS_12basic_stringIcNS_11char_traitsIcEENS_9allocatorIcEEEEN7httplib6detail11case_ignore4hashENS9_8equal_toENS4_IS6_EEE25__emplace_unique_key_argsIS6_JRKS6_EEENS_4pairINS_15__hash_iteratorIPNS_11__hash_nodeIS6_PvEEEEbEERKT_DpOT0_, symObjAddr: 0x2D60C, symBinAddr: 0x10002D544, symSize: 0x2BA }
  - { offset: 0x186451, size: 0x8, addend: 0x0, symName: __ZNSt3__112__hash_tableINS_12basic_stringIcNS_11char_traitsIcEENS_9allocatorIcEEEEN7httplib6detail11case_ignore4hashENS9_8equal_toENS4_IS6_EEE21__construct_node_hashIRKS6_JEEENS_10unique_ptrINS_11__hash_nodeIS6_PvEENS_22__hash_node_destructorINS4_ISK_EEEEEEmOT_DpOT0_, symObjAddr: 0x2D8C6, symBinAddr: 0x10002D7FE, symSize: 0x9A }
  - { offset: 0x18683C, size: 0x8, addend: 0x0, symName: __ZNSt3__112__hash_tableINS_12basic_stringIcNS_11char_traitsIcEENS_9allocatorIcEEEEN7httplib6detail11case_ignore4hashENS9_8equal_toENS4_IS6_EEE8__rehashILb1EEEvm, symObjAddr: 0x2D960, symBinAddr: 0x10002D898, symSize: 0x150 }
  - { offset: 0x18694B, size: 0x8, addend: 0x0, symName: __ZNSt3__122__hash_node_destructorINS_9allocatorINS_11__hash_nodeINS_12basic_stringIcNS_11char_traitsIcEENS1_IcEEEEPvEEEEEclB8ne200100EPS9_, symObjAddr: 0x2DC34, symBinAddr: 0x10002DB6C, symSize: 0x3A }
  - { offset: 0x186D57, size: 0x8, addend: 0x0, symName: __ZNSt3__112__hash_tableINS_12basic_stringIcNS_11char_traitsIcEENS_9allocatorIcEEEEN7httplib6detail11case_ignore4hashENS9_8equal_toENS4_IS6_EEE11__do_rehashILb1EEEvm, symObjAddr: 0x2DAB0, symBinAddr: 0x10002D9E8, symSize: 0x184 }
  - { offset: 0x187197, size: 0x8, addend: 0x0, symName: __ZNSt3__122__hash_node_destructorINS_9allocatorINS_11__hash_nodeINS_12basic_stringIcNS_11char_traitsIcEENS1_IcEEEEPvEEEEEclB8ne200100EPS9_, symObjAddr: 0x2DC34, symBinAddr: 0x10002DB6C, symSize: 0x3A }
  - { offset: 0x187393, size: 0x8, addend: 0x0, symName: __ZNSt3__110__function6__funcIZN7httplib6detail14parse_trailersERNS3_18stream_line_readerERNS_18unordered_multimapINS_12basic_stringIcNS_11char_traitsIcEENS_9allocatorIcEEEESC_NS3_11case_ignore4hashENSD_8equal_toENSA_INS_4pairIKSC_SC_EEEEEERKSK_EUlPKcSP_E_NSA_ISQ_EEFvSP_SP_EED1Ev, symObjAddr: 0x2DCD4, symBinAddr: 0x10002DBA8, symSize: 0x6 }
  - { offset: 0x1873BF, size: 0x8, addend: 0x0, symName: __ZNSt3__110__function6__funcIZN7httplib6detail14parse_trailersERNS3_18stream_line_readerERNS_18unordered_multimapINS_12basic_stringIcNS_11char_traitsIcEENS_9allocatorIcEEEESC_NS3_11case_ignore4hashENSD_8equal_toENSA_INS_4pairIKSC_SC_EEEEEERKSK_EUlPKcSP_E_NSA_ISQ_EEFvSP_SP_EED0Ev, symObjAddr: 0x2DCDA, symBinAddr: 0x10002DBAE, symSize: 0xA }
  - { offset: 0x1874D5, size: 0x8, addend: 0x0, symName: __ZNKSt3__110__function6__funcIZN7httplib6detail14parse_trailersERNS3_18stream_line_readerERNS_18unordered_multimapINS_12basic_stringIcNS_11char_traitsIcEENS_9allocatorIcEEEESC_NS3_11case_ignore4hashENSD_8equal_toENSA_INS_4pairIKSC_SC_EEEEEERKSK_EUlPKcSP_E_NSA_ISQ_EEFvSP_SP_EE7__cloneEv, symObjAddr: 0x2DCE4, symBinAddr: 0x10002DBB8, symSize: 0x2C }
  - { offset: 0x1876F7, size: 0x8, addend: 0x0, symName: __ZNKSt3__110__function6__funcIZN7httplib6detail14parse_trailersERNS3_18stream_line_readerERNS_18unordered_multimapINS_12basic_stringIcNS_11char_traitsIcEENS_9allocatorIcEEEESC_NS3_11case_ignore4hashENSD_8equal_toENSA_INS_4pairIKSC_SC_EEEEEERKSK_EUlPKcSP_E_NSA_ISQ_EEFvSP_SP_EE7__cloneEPNS0_6__baseISS_EE, symObjAddr: 0x2DD10, symBinAddr: 0x10002DBE4, symSize: 0x18 }
  - { offset: 0x1877FA, size: 0x8, addend: 0x0, symName: __ZNSt3__110__function6__funcIZN7httplib6detail14parse_trailersERNS3_18stream_line_readerERNS_18unordered_multimapINS_12basic_stringIcNS_11char_traitsIcEENS_9allocatorIcEEEESC_NS3_11case_ignore4hashENSD_8equal_toENSA_INS_4pairIKSC_SC_EEEEEERKSK_EUlPKcSP_E_NSA_ISQ_EEFvSP_SP_EE7destroyEv, symObjAddr: 0x2DD28, symBinAddr: 0x10002DBFC, symSize: 0x6 }
  - { offset: 0x187850, size: 0x8, addend: 0x0, symName: __ZNSt3__110__function6__funcIZN7httplib6detail14parse_trailersERNS3_18stream_line_readerERNS_18unordered_multimapINS_12basic_stringIcNS_11char_traitsIcEENS_9allocatorIcEEEESC_NS3_11case_ignore4hashENSD_8equal_toENSA_INS_4pairIKSC_SC_EEEEEERKSK_EUlPKcSP_E_NSA_ISQ_EEFvSP_SP_EE18destroy_deallocateEv, symObjAddr: 0x2DD2E, symBinAddr: 0x10002DC02, symSize: 0xA }
  - { offset: 0x187979, size: 0x8, addend: 0x0, symName: __ZNSt3__110__function6__funcIZN7httplib6detail14parse_trailersERNS3_18stream_line_readerERNS_18unordered_multimapINS_12basic_stringIcNS_11char_traitsIcEENS_9allocatorIcEEEESC_NS3_11case_ignore4hashENSD_8equal_toENSA_INS_4pairIKSC_SC_EEEEEERKSK_EUlPKcSP_E_NSA_ISQ_EEFvSP_SP_EEclEOSP_SU_, symObjAddr: 0x2DD38, symBinAddr: 0x10002DC0C, symSize: 0x14 }
  - { offset: 0x187A9F, size: 0x8, addend: 0x0, symName: __ZZN7httplib6detail14parse_trailersERNS0_18stream_line_readerERNSt3__118unordered_multimapINS3_12basic_stringIcNS3_11char_traitsIcEENS3_9allocatorIcEEEESA_NS0_11case_ignore4hashENSB_8equal_toENS8_INS3_4pairIKSA_SA_EEEEEERKSI_ENKUlPKcSN_E_clESN_SN_, symObjAddr: 0x2DD76, symBinAddr: 0x10002DC4A, symSize: 0xCA }
  - { offset: 0x187ECA, size: 0x8, addend: 0x0, symName: __ZNKSt3__110__function6__funcIZN7httplib6detail14parse_trailersERNS3_18stream_line_readerERNS_18unordered_multimapINS_12basic_stringIcNS_11char_traitsIcEENS_9allocatorIcEEEESC_NS3_11case_ignore4hashENSD_8equal_toENSA_INS_4pairIKSC_SC_EEEEEERKSK_EUlPKcSP_E_NSA_ISQ_EEFvSP_SP_EE6targetERKSt9type_info, symObjAddr: 0x2DD4C, symBinAddr: 0x10002DC20, symSize: 0x1C }
  - { offset: 0x187F3E, size: 0x8, addend: 0x0, symName: __ZNKSt3__110__function6__funcIZN7httplib6detail14parse_trailersERNS3_18stream_line_readerERNS_18unordered_multimapINS_12basic_stringIcNS_11char_traitsIcEENS_9allocatorIcEEEESC_NS3_11case_ignore4hashENSD_8equal_toENSA_INS_4pairIKSC_SC_EEEEEERKSK_EUlPKcSP_E_NSA_ISQ_EEFvSP_SP_EE11target_typeEv, symObjAddr: 0x2DD68, symBinAddr: 0x10002DC3C, symSize: 0xE }
  - { offset: 0x187F85, size: 0x8, addend: 0x0, symName: __ZNSt3__110__function6__funcIZN7httplib6detail24prepare_content_receiverINS2_7RequestEZNS3_12read_contentIS5_EEbRNS2_6StreamERT_mRiNS_8functionIFbmmEEENSC_IFbPKcmmmEEEbEUlRKSI_E_EEbSA_SB_SI_bT0_EUlSG_mmmE0_NS_9allocatorISN_EESH_ED1Ev, symObjAddr: 0x2DFBA, symBinAddr: 0x10002DD5E, symSize: 0x6 }
  - { offset: 0x187FB1, size: 0x8, addend: 0x0, symName: __ZNSt3__110__function6__funcIZN7httplib6detail24prepare_content_receiverINS2_7RequestEZNS3_12read_contentIS5_EEbRNS2_6StreamERT_mRiNS_8functionIFbmmEEENSC_IFbPKcmmmEEEbEUlRKSI_E_EEbSA_SB_SI_bT0_EUlSG_mmmE0_NS_9allocatorISN_EESH_ED0Ev, symObjAddr: 0x2DFC0, symBinAddr: 0x10002DD64, symSize: 0xA }
  - { offset: 0x1880C7, size: 0x8, addend: 0x0, symName: __ZNKSt3__110__function6__funcIZN7httplib6detail24prepare_content_receiverINS2_7RequestEZNS3_12read_contentIS5_EEbRNS2_6StreamERT_mRiNS_8functionIFbmmEEENSC_IFbPKcmmmEEEbEUlRKSI_E_EEbSA_SB_SI_bT0_EUlSG_mmmE0_NS_9allocatorISN_EESH_E7__cloneEv, symObjAddr: 0x2DFCA, symBinAddr: 0x10002DD6E, symSize: 0x2C }
  - { offset: 0x1882E9, size: 0x8, addend: 0x0, symName: __ZNKSt3__110__function6__funcIZN7httplib6detail24prepare_content_receiverINS2_7RequestEZNS3_12read_contentIS5_EEbRNS2_6StreamERT_mRiNS_8functionIFbmmEEENSC_IFbPKcmmmEEEbEUlRKSI_E_EEbSA_SB_SI_bT0_EUlSG_mmmE0_NS_9allocatorISN_EESH_E7__cloneEPNS0_6__baseISH_EE, symObjAddr: 0x2DFF6, symBinAddr: 0x10002DD9A, symSize: 0x18 }
  - { offset: 0x1883EC, size: 0x8, addend: 0x0, symName: __ZNSt3__110__function6__funcIZN7httplib6detail24prepare_content_receiverINS2_7RequestEZNS3_12read_contentIS5_EEbRNS2_6StreamERT_mRiNS_8functionIFbmmEEENSC_IFbPKcmmmEEEbEUlRKSI_E_EEbSA_SB_SI_bT0_EUlSG_mmmE0_NS_9allocatorISN_EESH_E7destroyEv, symObjAddr: 0x2E00E, symBinAddr: 0x10002DDB2, symSize: 0x6 }
  - { offset: 0x188442, size: 0x8, addend: 0x0, symName: __ZNSt3__110__function6__funcIZN7httplib6detail24prepare_content_receiverINS2_7RequestEZNS3_12read_contentIS5_EEbRNS2_6StreamERT_mRiNS_8functionIFbmmEEENSC_IFbPKcmmmEEEbEUlRKSI_E_EEbSA_SB_SI_bT0_EUlSG_mmmE0_NS_9allocatorISN_EESH_E18destroy_deallocateEv, symObjAddr: 0x2E014, symBinAddr: 0x10002DDB8, symSize: 0xA }
  - { offset: 0x1885F5, size: 0x8, addend: 0x0, symName: __ZNSt3__110__function6__funcIZN7httplib6detail24prepare_content_receiverINS2_7RequestEZNS3_12read_contentIS5_EEbRNS2_6StreamERT_mRiNS_8functionIFbmmEEENSC_IFbPKcmmmEEEbEUlRKSI_E_EEbSA_SB_SI_bT0_EUlSG_mmmE0_NS_9allocatorISN_EESH_EclEOSG_OmSS_SS_, symObjAddr: 0x2E01E, symBinAddr: 0x10002DDC2, symSize: 0x1A }
  - { offset: 0x1887D0, size: 0x8, addend: 0x0, symName: __ZNKSt3__110__function6__funcIZN7httplib6detail24prepare_content_receiverINS2_7RequestEZNS3_12read_contentIS5_EEbRNS2_6StreamERT_mRiNS_8functionIFbmmEEENSC_IFbPKcmmmEEEbEUlRKSI_E_EEbSA_SB_SI_bT0_EUlSG_mmmE0_NS_9allocatorISN_EESH_E6targetERKSt9type_info, symObjAddr: 0x2E038, symBinAddr: 0x10002DDDC, symSize: 0x1C }
  - { offset: 0x188844, size: 0x8, addend: 0x0, symName: __ZNKSt3__110__function6__funcIZN7httplib6detail24prepare_content_receiverINS2_7RequestEZNS3_12read_contentIS5_EEbRNS2_6StreamERT_mRiNS_8functionIFbmmEEENSC_IFbPKcmmmEEEbEUlRKSI_E_EEbSA_SB_SI_bT0_EUlSG_mmmE0_NS_9allocatorISN_EESH_E11target_typeEv, symObjAddr: 0x2E054, symBinAddr: 0x10002DDF8, symSize: 0xE }
  - { offset: 0x188869, size: 0x8, addend: 0x0, symName: __ZNSt3__110__function6__funcIZN7httplib6Server7routingERNS2_7RequestERNS2_8ResponseERNS2_6StreamEEUlNS_8functionIFbRKNS2_8FormDataEEEENSA_IFbPKcmEEEE_NS_9allocatorISK_EEFbSF_SJ_EED1Ev, symObjAddr: 0x2E262, symBinAddr: 0x10002DFBA, symSize: 0x6 }
  - { offset: 0x188895, size: 0x8, addend: 0x0, symName: __ZNSt3__110__function6__funcIZN7httplib6Server7routingERNS2_7RequestERNS2_8ResponseERNS2_6StreamEEUlNS_8functionIFbRKNS2_8FormDataEEEENSA_IFbPKcmEEEE_NS_9allocatorISK_EEFbSF_SJ_EED0Ev, symObjAddr: 0x2E268, symBinAddr: 0x10002DFC0, symSize: 0xA }
  - { offset: 0x188985, size: 0x8, addend: 0x0, symName: __ZNKSt3__110__function6__funcIZN7httplib6Server7routingERNS2_7RequestERNS2_8ResponseERNS2_6StreamEEUlNS_8functionIFbRKNS2_8FormDataEEEENSA_IFbPKcmEEEE_NS_9allocatorISK_EEFbSF_SJ_EE7__cloneEv, symObjAddr: 0x2E272, symBinAddr: 0x10002DFCA, symSize: 0x34 }
  - { offset: 0x188BA7, size: 0x8, addend: 0x0, symName: __ZNKSt3__110__function6__funcIZN7httplib6Server7routingERNS2_7RequestERNS2_8ResponseERNS2_6StreamEEUlNS_8functionIFbRKNS2_8FormDataEEEENSA_IFbPKcmEEEE_NS_9allocatorISK_EEFbSF_SJ_EE7__cloneEPNS0_6__baseISN_EE, symObjAddr: 0x2E2A6, symBinAddr: 0x10002DFFE, symSize: 0x20 }
  - { offset: 0x188CAA, size: 0x8, addend: 0x0, symName: __ZNSt3__110__function6__funcIZN7httplib6Server7routingERNS2_7RequestERNS2_8ResponseERNS2_6StreamEEUlNS_8functionIFbRKNS2_8FormDataEEEENSA_IFbPKcmEEEE_NS_9allocatorISK_EEFbSF_SJ_EE7destroyEv, symObjAddr: 0x2E2C6, symBinAddr: 0x10002E01E, symSize: 0x6 }
  - { offset: 0x188D00, size: 0x8, addend: 0x0, symName: __ZNSt3__110__function6__funcIZN7httplib6Server7routingERNS2_7RequestERNS2_8ResponseERNS2_6StreamEEUlNS_8functionIFbRKNS2_8FormDataEEEENSA_IFbPKcmEEEE_NS_9allocatorISK_EEFbSF_SJ_EE18destroy_deallocateEv, symObjAddr: 0x2E2CC, symBinAddr: 0x10002E024, symSize: 0xA }
  - { offset: 0x188DEC, size: 0x8, addend: 0x0, symName: __ZNSt3__110__function6__funcIZN7httplib6Server7routingERNS2_7RequestERNS2_8ResponseERNS2_6StreamEEUlNS_8functionIFbRKNS2_8FormDataEEEENSA_IFbPKcmEEEE_NS_9allocatorISK_EEFbSF_SJ_EEclEOSF_OSJ_, symObjAddr: 0x2E2D6, symBinAddr: 0x10002E02E, symSize: 0xE }
  - { offset: 0x188EAD, size: 0x8, addend: 0x0, symName: __ZNSt3__128__invoke_void_return_wrapperIbLb0EE6__callB8ne200100IJRZN7httplib6Server7routingERNS3_7RequestERNS3_8ResponseERNS3_6StreamEEUlNS_8functionIFbRKNS3_8FormDataEEEENSB_IFbPKcmEEEE_SG_SK_EEEbDpOT_, symObjAddr: 0x2E30E, symBinAddr: 0x10002E066, symSize: 0xEC }
  - { offset: 0x1892BC, size: 0x8, addend: 0x0, symName: __ZNKSt3__110__function6__funcIZN7httplib6Server7routingERNS2_7RequestERNS2_8ResponseERNS2_6StreamEEUlNS_8functionIFbRKNS2_8FormDataEEEENSA_IFbPKcmEEEE_NS_9allocatorISK_EEFbSF_SJ_EE6targetERKSt9type_info, symObjAddr: 0x2E2E4, symBinAddr: 0x10002E03C, symSize: 0x1C }
  - { offset: 0x189330, size: 0x8, addend: 0x0, symName: __ZNKSt3__110__function6__funcIZN7httplib6Server7routingERNS2_7RequestERNS2_8ResponseERNS2_6StreamEEUlNS_8functionIFbRKNS2_8FormDataEEEENSA_IFbPKcmEEEE_NS_9allocatorISK_EEFbSF_SJ_EE11target_typeEv, symObjAddr: 0x2E300, symBinAddr: 0x10002E058, symSize: 0xE }
  - { offset: 0x18935A, size: 0x8, addend: 0x0, symName: __ZZN7httplib6Server7routingERNS_7RequestERNS_8ResponseERNS_6StreamEENKUlNSt3__18functionIFbRKNS_8FormDataEEEENS8_IFbPKcmEEEE_clESD_SH_, symObjAddr: 0x2E3FA, symBinAddr: 0x10002E152, symSize: 0x20E }
  - { offset: 0x189A3E, size: 0x8, addend: 0x0, symName: __ZNSt3__128__invoke_void_return_wrapperIbLb0EE6__callB8ne200100IJRZN7httplib6Server7routingERNS3_7RequestERNS3_8ResponseERNS3_6StreamEEUlNS_8functionIFbRKNS3_8FormDataEEEENSB_IFbPKcmEEEE_SG_SK_EEEbDpOT_.cold.1, symObjAddr: 0x38AD9, symBinAddr: 0x1000575B1, symSize: 0x24 }
  - { offset: 0x189AC7, size: 0x8, addend: 0x0, symName: __ZZN7httplib6Server7routingERNS_7RequestERNS_8ResponseERNS_6StreamEENKUlNSt3__18functionIFbRKNS_8FormDataEEEENS8_IFbPKcmEEEE_clESD_SH_.cold.1, symObjAddr: 0x38AFD, symBinAddr: 0x1000575D5, symSize: 0x6C }
  - { offset: 0x189B96, size: 0x8, addend: 0x0, symName: __ZNSt3__110__function6__funcIZN7httplib6Server12read_contentERNS2_6StreamERNS2_7RequestERNS2_8ResponseEEUlPKcmE_NS_9allocatorISC_EEFbSB_mEED1Ev, symObjAddr: 0x2E69C, symBinAddr: 0x10002E3F4, symSize: 0x6 }
  - { offset: 0x189BC2, size: 0x8, addend: 0x0, symName: __ZNSt3__110__function6__funcIZN7httplib6Server12read_contentERNS2_6StreamERNS2_7RequestERNS2_8ResponseEEUlPKcmE_NS_9allocatorISC_EEFbSB_mEED0Ev, symObjAddr: 0x2E6A2, symBinAddr: 0x10002E3FA, symSize: 0xA }
  - { offset: 0x189CD8, size: 0x8, addend: 0x0, symName: __ZNKSt3__110__function6__funcIZN7httplib6Server12read_contentERNS2_6StreamERNS2_7RequestERNS2_8ResponseEEUlPKcmE_NS_9allocatorISC_EEFbSB_mEE7__cloneEv, symObjAddr: 0x2E6AC, symBinAddr: 0x10002E404, symSize: 0x2C }
  - { offset: 0x189EFA, size: 0x8, addend: 0x0, symName: __ZNKSt3__110__function6__funcIZN7httplib6Server12read_contentERNS2_6StreamERNS2_7RequestERNS2_8ResponseEEUlPKcmE_NS_9allocatorISC_EEFbSB_mEE7__cloneEPNS0_6__baseISF_EE, symObjAddr: 0x2E6D8, symBinAddr: 0x10002E430, symSize: 0x18 }
  - { offset: 0x189FFD, size: 0x8, addend: 0x0, symName: __ZNSt3__110__function6__funcIZN7httplib6Server12read_contentERNS2_6StreamERNS2_7RequestERNS2_8ResponseEEUlPKcmE_NS_9allocatorISC_EEFbSB_mEE7destroyEv, symObjAddr: 0x2E6F0, symBinAddr: 0x10002E448, symSize: 0x6 }
  - { offset: 0x18A053, size: 0x8, addend: 0x0, symName: __ZNSt3__110__function6__funcIZN7httplib6Server12read_contentERNS2_6StreamERNS2_7RequestERNS2_8ResponseEEUlPKcmE_NS_9allocatorISC_EEFbSB_mEE18destroy_deallocateEv, symObjAddr: 0x2E6F6, symBinAddr: 0x10002E44E, symSize: 0xA }
  - { offset: 0x18A13E, size: 0x8, addend: 0x0, symName: __ZNSt3__110__function6__funcIZN7httplib6Server12read_contentERNS2_6StreamERNS2_7RequestERNS2_8ResponseEEUlPKcmE_NS_9allocatorISC_EEFbSB_mEEclEOSB_Om, symObjAddr: 0x2E700, symBinAddr: 0x10002E458, symSize: 0xE }
  - { offset: 0x18A1FF, size: 0x8, addend: 0x0, symName: __ZNSt3__128__invoke_void_return_wrapperIbLb0EE6__callB8ne200100IJRZN7httplib6Server12read_contentERNS3_6StreamERNS3_7RequestERNS3_8ResponseEEUlPKcmE_SC_mEEEbDpOT_, symObjAddr: 0x2E738, symBinAddr: 0x10002E490, symSize: 0x4A }
  - { offset: 0x18A324, size: 0x8, addend: 0x0, symName: __ZNKSt3__110__function6__funcIZN7httplib6Server12read_contentERNS2_6StreamERNS2_7RequestERNS2_8ResponseEEUlPKcmE_NS_9allocatorISC_EEFbSB_mEE6targetERKSt9type_info, symObjAddr: 0x2E70E, symBinAddr: 0x10002E466, symSize: 0x1C }
  - { offset: 0x18A398, size: 0x8, addend: 0x0, symName: __ZNKSt3__110__function6__funcIZN7httplib6Server12read_contentERNS2_6StreamERNS2_7RequestERNS2_8ResponseEEUlPKcmE_NS_9allocatorISC_EEFbSB_mEE11target_typeEv, symObjAddr: 0x2E72A, symBinAddr: 0x10002E482, symSize: 0xE }
  - { offset: 0x18A3F9, size: 0x8, addend: 0x0, symName: __ZNSt3__110__function6__funcIZN7httplib6Server12read_contentERNS2_6StreamERNS2_7RequestERNS2_8ResponseEEUlRKNS2_8FormDataEE_NS_9allocatorISD_EEFbSC_EED1Ev, symObjAddr: 0x2E782, symBinAddr: 0x10002E4DA, symSize: 0x6 }
  - { offset: 0x18A425, size: 0x8, addend: 0x0, symName: __ZNSt3__110__function6__funcIZN7httplib6Server12read_contentERNS2_6StreamERNS2_7RequestERNS2_8ResponseEEUlRKNS2_8FormDataEE_NS_9allocatorISD_EEFbSC_EED0Ev, symObjAddr: 0x2E788, symBinAddr: 0x10002E4E0, symSize: 0xA }
  - { offset: 0x18A515, size: 0x8, addend: 0x0, symName: __ZNKSt3__110__function6__funcIZN7httplib6Server12read_contentERNS2_6StreamERNS2_7RequestERNS2_8ResponseEEUlRKNS2_8FormDataEE_NS_9allocatorISD_EEFbSC_EE7__cloneEv, symObjAddr: 0x2E792, symBinAddr: 0x10002E4EA, symSize: 0x3C }
  - { offset: 0x18A737, size: 0x8, addend: 0x0, symName: __ZNKSt3__110__function6__funcIZN7httplib6Server12read_contentERNS2_6StreamERNS2_7RequestERNS2_8ResponseEEUlRKNS2_8FormDataEE_NS_9allocatorISD_EEFbSC_EE7__cloneEPNS0_6__baseISG_EE, symObjAddr: 0x2E7CE, symBinAddr: 0x10002E526, symSize: 0x28 }
  - { offset: 0x18A83A, size: 0x8, addend: 0x0, symName: __ZNSt3__110__function6__funcIZN7httplib6Server12read_contentERNS2_6StreamERNS2_7RequestERNS2_8ResponseEEUlRKNS2_8FormDataEE_NS_9allocatorISD_EEFbSC_EE7destroyEv, symObjAddr: 0x2E7F6, symBinAddr: 0x10002E54E, symSize: 0x6 }
  - { offset: 0x18A890, size: 0x8, addend: 0x0, symName: __ZNSt3__110__function6__funcIZN7httplib6Server12read_contentERNS2_6StreamERNS2_7RequestERNS2_8ResponseEEUlRKNS2_8FormDataEE_NS_9allocatorISD_EEFbSC_EE18destroy_deallocateEv, symObjAddr: 0x2E7FC, symBinAddr: 0x10002E554, symSize: 0xA }
  - { offset: 0x18A99F, size: 0x8, addend: 0x0, symName: __ZNSt3__110__function6__funcIZN7httplib6Server12read_contentERNS2_6StreamERNS2_7RequestERNS2_8ResponseEEUlRKNS2_8FormDataEE_NS_9allocatorISD_EEFbSC_EEclESC_, symObjAddr: 0x2E806, symBinAddr: 0x10002E55E, symSize: 0xE }
  - { offset: 0x18AA8B, size: 0x8, addend: 0x0, symName: __ZZN7httplib6Server12read_contentERNS_6StreamERNS_7RequestERNS_8ResponseEENKUlRKNS_8FormDataEE_clES9_, symObjAddr: 0x2E83E, symBinAddr: 0x10002E596, symSize: 0x1FA }
  - { offset: 0x18B393, size: 0x8, addend: 0x0, symName: __ZNKSt3__110__function6__funcIZN7httplib6Server12read_contentERNS2_6StreamERNS2_7RequestERNS2_8ResponseEEUlRKNS2_8FormDataEE_NS_9allocatorISD_EEFbSC_EE6targetERKSt9type_info, symObjAddr: 0x2E814, symBinAddr: 0x10002E56C, symSize: 0x1C }
  - { offset: 0x18B407, size: 0x8, addend: 0x0, symName: __ZNKSt3__110__function6__funcIZN7httplib6Server12read_contentERNS2_6StreamERNS2_7RequestERNS2_8ResponseEEUlRKNS2_8FormDataEE_NS_9allocatorISD_EEFbSC_EE11target_typeEv, symObjAddr: 0x2E830, symBinAddr: 0x10002E588, symSize: 0xE }
  - { offset: 0x18B4D6, size: 0x8, addend: 0x0, symName: __ZNSt3__16__treeINS_12__value_typeINS_12basic_stringIcNS_11char_traitsIcEENS_9allocatorIcEEEEN7httplib8FormDataEEENS_19__map_value_compareIS7_SA_NS_4lessIS7_EELb1EEENS5_ISA_EEE15__emplace_multiIJRKS7_RKS9_EEENS_15__tree_iteratorISA_PNS_11__tree_nodeISA_PvEElEEDpOT_, symObjAddr: 0x2ED60, symBinAddr: 0x10002E9E8, symSize: 0x6C }
  - { offset: 0x18B682, size: 0x8, addend: 0x0, symName: __ZNSt3__118unordered_multimapINS_12basic_stringIcNS_11char_traitsIcEENS_9allocatorIcEEEES6_N7httplib6detail11case_ignore4hashENS9_8equal_toENS4_INS_4pairIKS6_S6_EEEEEC2ERKSG_, symObjAddr: 0x2ECD2, symBinAddr: 0x10002E98A, symSize: 0x5E }
  - { offset: 0x18B9B5, size: 0x8, addend: 0x0, symName: __ZNSt3__16__treeINS_12__value_typeINS_12basic_stringIcNS_11char_traitsIcEENS_9allocatorIcEEEEN7httplib9FormFieldEEENS_19__map_value_compareIS7_SA_NS_4lessIS7_EELb1EEENS5_ISA_EEE15__emplace_multiIJRKS7_S9_EEENS_15__tree_iteratorISA_PNS_11__tree_nodeISA_PvEElEEDpOT_, symObjAddr: 0x2EA38, symBinAddr: 0x10002E790, symSize: 0x6C }
  - { offset: 0x18BBEE, size: 0x8, addend: 0x0, symName: __ZNSt3__16__treeINS_12__value_typeINS_12basic_stringIcNS_11char_traitsIcEENS_9allocatorIcEEEEN7httplib9FormFieldEEENS_19__map_value_compareIS7_SA_NS_4lessIS7_EELb1EEENS5_ISA_EEE16__construct_nodeIJRKS7_S9_EEENS_10unique_ptrINS_11__tree_nodeISA_PvEENS_22__tree_node_destructorINS5_ISN_EEEEEEDpOT_, symObjAddr: 0x2EAA4, symBinAddr: 0x10002E7FC, symSize: 0x64 }
  - { offset: 0x18BFBA, size: 0x8, addend: 0x0, symName: __ZNSt3__110unique_ptrINS_11__tree_nodeINS_12__value_typeINS_12basic_stringIcNS_11char_traitsIcEENS_9allocatorIcEEEEN7httplib9FormFieldEEEPvEENS_22__tree_node_destructorINS6_ISD_EEEEE5resetB8ne200100EPSD_, symObjAddr: 0x2EC9C, symBinAddr: 0x10002E954, symSize: 0x36 }
  - { offset: 0x18C2AA, size: 0x8, addend: 0x0, symName: __ZNSt3__14pairIKNS_12basic_stringIcNS_11char_traitsIcEENS_9allocatorIcEEEEN7httplib9FormFieldEEC2B8ne200100IRS7_S9_Li0EEEOT_OT0_, symObjAddr: 0x2EBA8, symBinAddr: 0x10002E860, symSize: 0x80 }
  - { offset: 0x18C648, size: 0x8, addend: 0x0, symName: __ZNSt3__112__hash_tableINS_17__hash_value_typeINS_12basic_stringIcNS_11char_traitsIcEENS_9allocatorIcEEEES7_EENS_22__unordered_map_hasherIS7_S8_N7httplib6detail11case_ignore4hashENSC_8equal_toELb1EEENS_21__unordered_map_equalIS7_S8_SE_SD_Lb1EEENS5_IS8_EEEC2EOSJ_, symObjAddr: 0x2EC28, symBinAddr: 0x10002E8E0, symSize: 0x74 }
  - { offset: 0x18CA5B, size: 0x8, addend: 0x0, symName: __ZNSt3__16__treeINS_12__value_typeINS_12basic_stringIcNS_11char_traitsIcEENS_9allocatorIcEEEEN7httplib8FormDataEEENS_19__map_value_compareIS7_SA_NS_4lessIS7_EELb1EEENS5_ISA_EEE16__construct_nodeIJRKS7_RKS9_EEENS_10unique_ptrINS_11__tree_nodeISA_PvEENS_22__tree_node_destructorINS5_ISP_EEEEEEDpOT_, symObjAddr: 0x2EDCC, symBinAddr: 0x10002EA54, symSize: 0x64 }
  - { offset: 0x18CE27, size: 0x8, addend: 0x0, symName: __ZNSt3__110unique_ptrINS_11__tree_nodeINS_12__value_typeINS_12basic_stringIcNS_11char_traitsIcEENS_9allocatorIcEEEEN7httplib8FormDataEEEPvEENS_22__tree_node_destructorINS6_ISD_EEEEE5resetB8ne200100EPSD_, symObjAddr: 0x2F070, symBinAddr: 0x10002EC58, symSize: 0x36 }
  - { offset: 0x18D10F, size: 0x8, addend: 0x0, symName: __ZNSt3__14pairIKNS_12basic_stringIcNS_11char_traitsIcEENS_9allocatorIcEEEEN7httplib8FormDataEEC2B8ne200100ILb1ELi0EEERS7_RKS9_, symObjAddr: 0x2EED0, symBinAddr: 0x10002EAB8, symSize: 0x5C }
  - { offset: 0x18D3BE, size: 0x8, addend: 0x0, symName: __ZN7httplib8FormDataC2ERKS0_, symObjAddr: 0x2EF2C, symBinAddr: 0x10002EB14, symSize: 0x144 }
  - { offset: 0x18DA69, size: 0x8, addend: 0x0, symName: __ZNSt3__110__function6__funcIZN7httplib6Server12read_contentERNS2_6StreamERNS2_7RequestERNS2_8ResponseEEUlPKcmE0_NS_9allocatorISC_EEFbSB_mEED1Ev, symObjAddr: 0x2F0A6, symBinAddr: 0x10002EC8E, symSize: 0x6 }
  - { offset: 0x18DA95, size: 0x8, addend: 0x0, symName: __ZNSt3__110__function6__funcIZN7httplib6Server12read_contentERNS2_6StreamERNS2_7RequestERNS2_8ResponseEEUlPKcmE0_NS_9allocatorISC_EEFbSB_mEED0Ev, symObjAddr: 0x2F0AC, symBinAddr: 0x10002EC94, symSize: 0xA }
  - { offset: 0x18DBAB, size: 0x8, addend: 0x0, symName: __ZNKSt3__110__function6__funcIZN7httplib6Server12read_contentERNS2_6StreamERNS2_7RequestERNS2_8ResponseEEUlPKcmE0_NS_9allocatorISC_EEFbSB_mEE7__cloneEv, symObjAddr: 0x2F0B6, symBinAddr: 0x10002EC9E, symSize: 0x34 }
  - { offset: 0x18DDCD, size: 0x8, addend: 0x0, symName: __ZNKSt3__110__function6__funcIZN7httplib6Server12read_contentERNS2_6StreamERNS2_7RequestERNS2_8ResponseEEUlPKcmE0_NS_9allocatorISC_EEFbSB_mEE7__cloneEPNS0_6__baseISF_EE, symObjAddr: 0x2F0EA, symBinAddr: 0x10002ECD2, symSize: 0x20 }
  - { offset: 0x18DED0, size: 0x8, addend: 0x0, symName: __ZNSt3__110__function6__funcIZN7httplib6Server12read_contentERNS2_6StreamERNS2_7RequestERNS2_8ResponseEEUlPKcmE0_NS_9allocatorISC_EEFbSB_mEE7destroyEv, symObjAddr: 0x2F10A, symBinAddr: 0x10002ECF2, symSize: 0x6 }
  - { offset: 0x18DF26, size: 0x8, addend: 0x0, symName: __ZNSt3__110__function6__funcIZN7httplib6Server12read_contentERNS2_6StreamERNS2_7RequestERNS2_8ResponseEEUlPKcmE0_NS_9allocatorISC_EEFbSB_mEE18destroy_deallocateEv, symObjAddr: 0x2F110, symBinAddr: 0x10002ECF8, symSize: 0xA }
  - { offset: 0x18E012, size: 0x8, addend: 0x0, symName: __ZNSt3__110__function6__funcIZN7httplib6Server12read_contentERNS2_6StreamERNS2_7RequestERNS2_8ResponseEEUlPKcmE0_NS_9allocatorISC_EEFbSB_mEEclEOSB_Om, symObjAddr: 0x2F11A, symBinAddr: 0x10002ED02, symSize: 0xE }
  - { offset: 0x18E0D3, size: 0x8, addend: 0x0, symName: __ZNSt3__128__invoke_void_return_wrapperIbLb0EE6__callB8ne200100IJRZN7httplib6Server12read_contentERNS3_6StreamERNS3_7RequestERNS3_8ResponseEEUlPKcmE0_SC_mEEEbDpOT_, symObjAddr: 0x2F152, symBinAddr: 0x10002ED3A, symSize: 0x48 }
  - { offset: 0x18E1DC, size: 0x8, addend: 0x0, symName: __ZNKSt3__110__function6__funcIZN7httplib6Server12read_contentERNS2_6StreamERNS2_7RequestERNS2_8ResponseEEUlPKcmE0_NS_9allocatorISC_EEFbSB_mEE6targetERKSt9type_info, symObjAddr: 0x2F128, symBinAddr: 0x10002ED10, symSize: 0x1C }
  - { offset: 0x18E250, size: 0x8, addend: 0x0, symName: __ZNKSt3__110__function6__funcIZN7httplib6Server12read_contentERNS2_6StreamERNS2_7RequestERNS2_8ResponseEEUlPKcmE0_NS_9allocatorISC_EEFbSB_mEE11target_typeEv, symObjAddr: 0x2F144, symBinAddr: 0x10002ED2C, symSize: 0xE }
  - { offset: 0x18E503, size: 0x8, addend: 0x0, symName: __ZNSt3__120__shared_ptr_emplaceIN7httplib6detail4mmapENS_9allocatorIS3_EEEC2B8ne200100IJPKcES5_Li0EEES5_DpOT_, symObjAddr: 0x2F1F2, symBinAddr: 0x10002EDDA, symSize: 0x4E }
  - { offset: 0x18E77B, size: 0x8, addend: 0x0, symName: __ZN7httplib6detail4mmap4openEPKc, symObjAddr: 0x2F292, symBinAddr: 0x10002EE7A, symSize: 0x124 }
  - { offset: 0x18E8F4, size: 0x8, addend: 0x0, symName: __ZNSt3__120__shared_ptr_emplaceIN7httplib6detail4mmapENS_9allocatorIS3_EEED1Ev, symObjAddr: 0x2F240, symBinAddr: 0x10002EE28, symSize: 0x14 }
  - { offset: 0x18E94F, size: 0x8, addend: 0x0, symName: __ZNSt3__120__shared_ptr_emplaceIN7httplib6detail4mmapENS_9allocatorIS3_EEED0Ev, symObjAddr: 0x2F254, symBinAddr: 0x10002EE3C, symSize: 0x26 }
  - { offset: 0x18EA20, size: 0x8, addend: 0x0, symName: __ZNSt3__120__shared_ptr_emplaceIN7httplib6detail4mmapENS_9allocatorIS3_EEE16__on_zero_sharedEv, symObjAddr: 0x2F27A, symBinAddr: 0x10002EE62, symSize: 0xE }
  - { offset: 0x18EAB1, size: 0x8, addend: 0x0, symName: __ZNSt3__120__shared_ptr_emplaceIN7httplib6detail4mmapENS_9allocatorIS3_EEE21__on_zero_shared_weakEv, symObjAddr: 0x2F288, symBinAddr: 0x10002EE70, symSize: 0xA }
  - { offset: 0x18EC5E, size: 0x8, addend: 0x0, symName: __ZNKSt3__111basic_regexIcNS_12regex_traitsIcEEE8__searchINS_9allocatorINS_9sub_matchIPKcEEEEEEbS8_S8_RNS_13match_resultsIS8_T_EENS_15regex_constants15match_flag_typeE, symObjAddr: 0x2F61C, symBinAddr: 0x10002F204, symSize: 0x1C0 }
  - { offset: 0x18F05D, size: 0x8, addend: 0x0, symName: __ZNSt3__113match_resultsINS_11__wrap_iterIPKcEENS_9allocatorINS_9sub_matchIS4_EEEEE8__assignB8ne200100IS3_NS5_INS6_IS3_EEEEEEvS4_S4_RKNS0_IT_T0_EEb, symObjAddr: 0x2F7DC, symBinAddr: 0x10002F3C4, symSize: 0x176 }
  - { offset: 0x18F7CA, size: 0x8, addend: 0x0, symName: __ZN7httplib6detail14file_extensionERKNSt3__112basic_stringIcNS1_11char_traitsIcEENS1_9allocatorIcEEEE.cold.1, symObjAddr: 0x38B69, symBinAddr: 0x100057641, symSize: 0x31 }
  - { offset: 0x18F825, size: 0x8, addend: 0x0, symName: __ZNKSt3__111basic_regexIcNS_12regex_traitsIcEEE16__match_at_startINS_9allocatorINS_9sub_matchIPKcEEEEEEbS8_S8_RNS_13match_resultsIS8_T_EENS_15regex_constants15match_flag_typeEb, symObjAddr: 0x2F952, symBinAddr: 0x10002F53A, symSize: 0x34 }
  - { offset: 0x18F902, size: 0x8, addend: 0x0, symName: __ZNSt3__16vectorINS_9sub_matchINS_11__wrap_iterIPKcEEEENS_9allocatorIS6_EEE6resizeEm, symObjAddr: 0x3176E, symBinAddr: 0x10003100A, symSize: 0x42 }
  - { offset: 0x18F9C6, size: 0x8, addend: 0x0, symName: __ZNKSt3__111basic_regexIcNS_12regex_traitsIcEEE27__match_at_start_posix_subsINS_9allocatorINS_9sub_matchIPKcEEEEEEbS8_S8_RNS_13match_resultsIS8_T_EENS_15regex_constants15match_flag_typeEb, symObjAddr: 0x2FF40, symBinAddr: 0x10002FB28, symSize: 0x588 }
  - { offset: 0x190D9E, size: 0x8, addend: 0x0, symName: __ZNKSt3__111basic_regexIcNS_12regex_traitsIcEEE29__match_at_start_posix_nosubsINS_9allocatorINS_9sub_matchIPKcEEEEEEbS8_S8_RNS_13match_resultsIS8_T_EENS_15regex_constants15match_flag_typeEb, symObjAddr: 0x2F986, symBinAddr: 0x10002F56E, symSize: 0x5BA }
  - { offset: 0x191F5A, size: 0x8, addend: 0x0, symName: __ZNSt3__15dequeINS_7__stateIcEENS_9allocatorIS2_EEE9push_backEOS2_, symObjAddr: 0x304C8, symBinAddr: 0x1000300B0, symSize: 0xF8 }
  - { offset: 0x192210, size: 0x8, addend: 0x0, symName: __ZNSt3__15dequeINS_7__stateIcEENS_9allocatorIS2_EEE10push_frontEOS2_, symObjAddr: 0x30622, symBinAddr: 0x10003020A, symSize: 0xEE }
  - { offset: 0x192477, size: 0x8, addend: 0x0, symName: __ZNSt3__15dequeINS_7__stateIcEENS_9allocatorIS2_EEE8pop_backEv, symObjAddr: 0x305C0, symBinAddr: 0x1000301A8, symSize: 0x62 }
  - { offset: 0x192562, size: 0x8, addend: 0x0, symName: __ZNSt3__15dequeINS_7__stateIcEENS_9allocatorIS2_EEED2B8ne200100Ev, symObjAddr: 0x31304, symBinAddr: 0x100030BA0, symSize: 0x14C }
  - { offset: 0x192A00, size: 0x8, addend: 0x0, symName: __ZNSt3__16vectorINS_9sub_matchIPKcEENS_9allocatorIS4_EEE18__assign_with_sizeB8ne200100IPS4_S9_EEvT_T0_l, symObjAddr: 0x31484, symBinAddr: 0x100030D20, symSize: 0x18E }
  - { offset: 0x193295, size: 0x8, addend: 0x0, symName: __ZNSt3__16vectorINS_4pairImPKcEENS_9allocatorIS4_EEE18__assign_with_sizeB8ne200100IPS4_S9_EEvT_T0_l, symObjAddr: 0x31612, symBinAddr: 0x100030EAE, symSize: 0x15C }
  - { offset: 0x193ABD, size: 0x8, addend: 0x0, symName: __ZNSt3__15dequeINS_7__stateIcEENS_9allocatorIS2_EEE19__add_back_capacityEv, symObjAddr: 0x30710, symBinAddr: 0x1000302F8, symSize: 0x1D8 }
  - { offset: 0x1943F2, size: 0x8, addend: 0x0, symName: __ZNSt3__15dequeINS_7__stateIcEENS_9allocatorIS2_EEE25__maybe_remove_back_spareB8ne200100Eb, symObjAddr: 0x30E4E, symBinAddr: 0x1000308FE, symSize: 0x6A }
  - { offset: 0x1945EF, size: 0x8, addend: 0x0, symName: __ZNSt3__15dequeINS_7__stateIcEENS_9allocatorIS2_EEE20__add_front_capacityEv, symObjAddr: 0x30EB8, symBinAddr: 0x100030968, symSize: 0x236 }
  - { offset: 0x19525E, size: 0x8, addend: 0x0, symName: __ZNSt3__114__split_bufferIPNS_7__stateIcEENS_9allocatorIS3_EEE12emplace_backIJRS3_EEEvDpOT_, symObjAddr: 0x308E8, symBinAddr: 0x1000304D0, symSize: 0x10C }
  - { offset: 0x195A0A, size: 0x8, addend: 0x0, symName: __ZNSt3__114__split_bufferIPNS_7__stateIcEERNS_9allocatorIS3_EEE12emplace_backIJS3_EEEvDpOT_, symObjAddr: 0x30C0A, symBinAddr: 0x1000306E6, symSize: 0x10C }
  - { offset: 0x195EE2, size: 0x8, addend: 0x0, symName: __ZNSt3__114__split_bufferIPNS_7__stateIcEERNS_9allocatorIS3_EEE13emplace_frontIJRS3_EEEvDpOT_, symObjAddr: 0x30D16, symBinAddr: 0x1000307F2, symSize: 0x10A }
  - { offset: 0x1963C0, size: 0x8, addend: 0x0, symName: __ZNSt3__114__split_bufferIPNS_7__stateIcEENS_9allocatorIS3_EEE13emplace_frontIJS3_EEEvDpOT_, symObjAddr: 0x30B00, symBinAddr: 0x1000305DC, symSize: 0x10A }
  - { offset: 0x1970D8, size: 0x8, addend: 0x0, symName: __ZNSt3__114__split_bufferIPNS_7__stateIcEENS_9allocatorIS3_EEED2Ev, symObjAddr: 0x31450, symBinAddr: 0x100030CEC, symSize: 0x34 }
  - { offset: 0x197351, size: 0x8, addend: 0x0, symName: __ZNSt3__16vectorINS_9sub_matchINS_11__wrap_iterIPKcEEEENS_9allocatorIS6_EEE8__appendEm, symObjAddr: 0x317B0, symBinAddr: 0x10003104C, symSize: 0x168 }
  - { offset: 0x197C01, size: 0x8, addend: 0x0, symName: __ZNSt3__16vectorINS_9sub_matchINS_11__wrap_iterIPKcEEEENS_9allocatorIS6_EEE20__throw_length_errorB8ne200100Ev, symObjAddr: 0x31918, symBinAddr: 0x1000311B4, symSize: 0x10 }
  - { offset: 0x197D24, size: 0x8, addend: 0x0, symName: __ZNSt3__110__function6__funcIZN7httplib6Server15process_requestERNS2_6StreamERKNS_12basic_stringIcNS_11char_traitsIcEENS_9allocatorIcEEEEiSD_ibRbRKNS_8functionIFvRNS2_7RequestEEEEEUlmmRNS2_8DataSinkEE_NS9_ISO_EEFbmmSN_EED1Ev, symObjAddr: 0x31AB4, symBinAddr: 0x100031238, symSize: 0x18 }
  - { offset: 0x197E2C, size: 0x8, addend: 0x0, symName: __ZNSt3__110__function6__funcIZN7httplib6Server15process_requestERNS2_6StreamERKNS_12basic_stringIcNS_11char_traitsIcEENS_9allocatorIcEEEEiSD_ibRbRKNS_8functionIFvRNS2_7RequestEEEEEUlmmRNS2_8DataSinkEE_NS9_ISO_EEFbmmSN_EED0Ev, symObjAddr: 0x31ACC, symBinAddr: 0x100031250, symSize: 0x2A }
  - { offset: 0x19806D, size: 0x8, addend: 0x0, symName: __ZNKSt3__110__function6__funcIZN7httplib6Server15process_requestERNS2_6StreamERKNS_12basic_stringIcNS_11char_traitsIcEENS_9allocatorIcEEEEiSD_ibRbRKNS_8functionIFvRNS2_7RequestEEEEEUlmmRNS2_8DataSinkEE_NS9_ISO_EEFbmmSN_EE7__cloneEv, symObjAddr: 0x31AF6, symBinAddr: 0x10003127A, symSize: 0x3A }
  - { offset: 0x198387, size: 0x8, addend: 0x0, symName: __ZNKSt3__110__function6__funcIZN7httplib6Server15process_requestERNS2_6StreamERKNS_12basic_stringIcNS_11char_traitsIcEENS_9allocatorIcEEEEiSD_ibRbRKNS_8functionIFvRNS2_7RequestEEEEEUlmmRNS2_8DataSinkEE_NS9_ISO_EEFbmmSN_EE7__cloneEPNS0_6__baseISQ_EE, symObjAddr: 0x31B30, symBinAddr: 0x1000312B4, symSize: 0x26 }
  - { offset: 0x1983BE, size: 0x8, addend: 0x0, symName: __ZNKSt3__110__function6__funcIZN7httplib6Server15process_requestERNS2_6StreamERKNS_12basic_stringIcNS_11char_traitsIcEENS_9allocatorIcEEEEiSD_ibRbRKNS_8functionIFvRNS2_7RequestEEEEEUlmmRNS2_8DataSinkEE_NS9_ISO_EEFbmmSN_EE7__cloneEPNS0_6__baseISQ_EE, symObjAddr: 0x31B30, symBinAddr: 0x1000312B4, symSize: 0x26 }
  - { offset: 0x1983F0, size: 0x8, addend: 0x0, symName: __ZNKSt3__110__function6__funcIZN7httplib6Server15process_requestERNS2_6StreamERKNS_12basic_stringIcNS_11char_traitsIcEENS_9allocatorIcEEEEiSD_ibRbRKNS_8functionIFvRNS2_7RequestEEEEEUlmmRNS2_8DataSinkEE_NS9_ISO_EEFbmmSN_EE7__cloneEPNS0_6__baseISQ_EE, symObjAddr: 0x31B30, symBinAddr: 0x1000312B4, symSize: 0x26 }
  - { offset: 0x198598, size: 0x8, addend: 0x0, symName: __ZNSt3__110__function6__funcIZN7httplib6Server15process_requestERNS2_6StreamERKNS_12basic_stringIcNS_11char_traitsIcEENS_9allocatorIcEEEEiSD_ibRbRKNS_8functionIFvRNS2_7RequestEEEEEUlmmRNS2_8DataSinkEE_NS9_ISO_EEFbmmSN_EE7destroyEv, symObjAddr: 0x31B56, symBinAddr: 0x1000312DA, symSize: 0xE }
  - { offset: 0x198679, size: 0x8, addend: 0x0, symName: __ZNSt3__110__function6__funcIZN7httplib6Server15process_requestERNS2_6StreamERKNS_12basic_stringIcNS_11char_traitsIcEENS_9allocatorIcEEEEiSD_ibRbRKNS_8functionIFvRNS2_7RequestEEEEEUlmmRNS2_8DataSinkEE_NS9_ISO_EEFbmmSN_EE18destroy_deallocateEv, symObjAddr: 0x31B64, symBinAddr: 0x1000312E8, symSize: 0x20 }
  - { offset: 0x198891, size: 0x8, addend: 0x0, symName: __ZNSt3__110__function6__funcIZN7httplib6Server15process_requestERNS2_6StreamERKNS_12basic_stringIcNS_11char_traitsIcEENS_9allocatorIcEEEEiSD_ibRbRKNS_8functionIFvRNS2_7RequestEEEEEUlmmRNS2_8DataSinkEE_NS9_ISO_EEFbmmSN_EEclEOmSS_SN_, symObjAddr: 0x31B84, symBinAddr: 0x100031308, symSize: 0x30 }
  - { offset: 0x1988EE, size: 0x8, addend: 0x0, symName: __ZNSt3__110__function6__funcIZN7httplib6Server15process_requestERNS2_6StreamERKNS_12basic_stringIcNS_11char_traitsIcEENS_9allocatorIcEEEEiSD_ibRbRKNS_8functionIFvRNS2_7RequestEEEEEUlmmRNS2_8DataSinkEE_NS9_ISO_EEFbmmSN_EEclEOmSS_SN_, symObjAddr: 0x31B84, symBinAddr: 0x100031308, symSize: 0x30 }
  - { offset: 0x198922, size: 0x8, addend: 0x0, symName: __ZNSt3__110__function6__funcIZN7httplib6Server15process_requestERNS2_6StreamERKNS_12basic_stringIcNS_11char_traitsIcEENS_9allocatorIcEEEEiSD_ibRbRKNS_8functionIFvRNS2_7RequestEEEEEUlmmRNS2_8DataSinkEE_NS9_ISO_EEFbmmSN_EEclEOmSS_SN_, symObjAddr: 0x31B84, symBinAddr: 0x100031308, symSize: 0x30 }
  - { offset: 0x198955, size: 0x8, addend: 0x0, symName: __ZNSt3__110__function6__funcIZN7httplib6Server15process_requestERNS2_6StreamERKNS_12basic_stringIcNS_11char_traitsIcEENS_9allocatorIcEEEEiSD_ibRbRKNS_8functionIFvRNS2_7RequestEEEEEUlmmRNS2_8DataSinkEE_NS9_ISO_EEFbmmSN_EEclEOmSS_SN_, symObjAddr: 0x31B84, symBinAddr: 0x100031308, symSize: 0x30 }
  - { offset: 0x198989, size: 0x8, addend: 0x0, symName: __ZNSt3__110__function6__funcIZN7httplib6Server15process_requestERNS2_6StreamERKNS_12basic_stringIcNS_11char_traitsIcEENS_9allocatorIcEEEEiSD_ibRbRKNS_8functionIFvRNS2_7RequestEEEEEUlmmRNS2_8DataSinkEE_NS9_ISO_EEFbmmSN_EEclEOmSS_SN_, symObjAddr: 0x31B84, symBinAddr: 0x100031308, symSize: 0x30 }
  - { offset: 0x198A3D, size: 0x8, addend: 0x0, symName: __ZNKSt3__110__function6__funcIZN7httplib6Server15process_requestERNS2_6StreamERKNS_12basic_stringIcNS_11char_traitsIcEENS_9allocatorIcEEEEiSD_ibRbRKNS_8functionIFvRNS2_7RequestEEEEEUlmmRNS2_8DataSinkEE_NS9_ISO_EEFbmmSN_EE6targetERKSt9type_info, symObjAddr: 0x31BB4, symBinAddr: 0x100031338, symSize: 0x1C }
  - { offset: 0x198AB1, size: 0x8, addend: 0x0, symName: __ZNKSt3__110__function6__funcIZN7httplib6Server15process_requestERNS2_6StreamERKNS_12basic_stringIcNS_11char_traitsIcEENS_9allocatorIcEEEEiSD_ibRbRKNS_8functionIFvRNS2_7RequestEEEEEUlmmRNS2_8DataSinkEE_NS9_ISO_EEFbmmSN_EE11target_typeEv, symObjAddr: 0x31BD0, symBinAddr: 0x100031354, symSize: 0xE }
  - { offset: 0x198B55, size: 0x8, addend: 0x0, symName: __ZNSt3__16vectorINS_4pairIllEENS_9allocatorIS2_EEE7reserveEm, symObjAddr: 0x31EB8, symBinAddr: 0x10003163C, symSize: 0x89 }
  - { offset: 0x198DED, size: 0x8, addend: 0x0, symName: __ZNSt3__111__introsortINS_17_ClassicAlgPolicyERZN7httplib6detail15coalesce_rangesERNS_6vectorINS_4pairIllEENS_9allocatorIS6_EEEEmEUlRKS6_SC_E_PS6_Lb0EEEvT1_SG_T0_NS_15iterator_traitsISG_E15difference_typeEb, symObjAddr: 0x31F41, symBinAddr: 0x1000316C5, symSize: 0x763 }
  - { offset: 0x199521, size: 0x8, addend: 0x0, symName: __ZNSt3__112__hash_tableINS_17__hash_value_typeINS_12basic_stringIcNS_11char_traitsIcEENS_9allocatorIcEEEES7_EENS_22__unordered_map_hasherIS7_S8_NS_4hashIS7_EENS_8equal_toIS7_EELb1EEENS_21__unordered_map_equalIS7_S8_SD_SB_Lb1EEENS5_IS8_EEE25__emplace_unique_key_argsIS7_JRKS7_S7_EEENS_4pairINS_15__hash_iteratorIPNS_11__hash_nodeIS8_PvEEEEbEERKT_DpOT0_, symObjAddr: 0x33B04, symBinAddr: 0x1000330B8, symSize: 0x2C0 }
  - { offset: 0x1995C9, size: 0x8, addend: 0x0, symName: __ZNSt3__112__hash_tableINS_17__hash_value_typeINS_12basic_stringIcNS_11char_traitsIcEENS_9allocatorIcEEEES7_EENS_22__unordered_map_hasherIS7_S8_NS_4hashIS7_EENS_8equal_toIS7_EELb1EEENS_21__unordered_map_equalIS7_S8_SD_SB_Lb1EEENS5_IS8_EEE21__construct_node_hashIRKS7_JS7_EEENS_10unique_ptrINS_11__hash_nodeIS8_PvEENS_22__hash_node_destructorINS5_ISP_EEEEEEmOT_DpOT0_, symObjAddr: 0x33DC4, symBinAddr: 0x100033378, symSize: 0xBC }
  - { offset: 0x199C8A, size: 0x8, addend: 0x0, symName: '__ZNSt3__110__function6__funcIZ4mainE3$_0NS_9allocatorIS2_EEFvRKN7httplib7RequestERNS5_8ResponseEEED1Ev', symObjAddr: 0x33FC2, symBinAddr: 0x100033576, symSize: 0x6 }
  - { offset: 0x199CB4, size: 0x8, addend: 0x0, symName: '__ZNSt3__110__function6__funcIZ4mainE3$_0NS_9allocatorIS2_EEFvRKN7httplib7RequestERNS5_8ResponseEEED0Ev', symObjAddr: 0x33FC8, symBinAddr: 0x10003357C, symSize: 0xA }
  - { offset: 0x199DA4, size: 0x8, addend: 0x0, symName: '__ZNKSt3__110__function6__funcIZ4mainE3$_0NS_9allocatorIS2_EEFvRKN7httplib7RequestERNS5_8ResponseEEE7__cloneEv', symObjAddr: 0x33FD2, symBinAddr: 0x100033586, symSize: 0x3C }
  - { offset: 0x199FC6, size: 0x8, addend: 0x0, symName: '__ZNKSt3__110__function6__funcIZ4mainE3$_0NS_9allocatorIS2_EEFvRKN7httplib7RequestERNS5_8ResponseEEE7__cloneEPNS0_6__baseISB_EE', symObjAddr: 0x3400E, symBinAddr: 0x1000335C2, symSize: 0x28 }
  - { offset: 0x19A0C9, size: 0x8, addend: 0x0, symName: '__ZNSt3__110__function6__funcIZ4mainE3$_0NS_9allocatorIS2_EEFvRKN7httplib7RequestERNS5_8ResponseEEE7destroyEv', symObjAddr: 0x34036, symBinAddr: 0x1000335EA, symSize: 0x6 }
  - { offset: 0x19A11D, size: 0x8, addend: 0x0, symName: '__ZNSt3__110__function6__funcIZ4mainE3$_0NS_9allocatorIS2_EEFvRKN7httplib7RequestERNS5_8ResponseEEE18destroy_deallocateEv', symObjAddr: 0x3403C, symBinAddr: 0x1000335F0, symSize: 0xA }
  - { offset: 0x19A73C, size: 0x8, addend: 0x0, symName: '__ZNSt3__110__function6__funcIZ4mainE3$_0NS_9allocatorIS2_EEFvRKN7httplib7RequestERNS5_8ResponseEEEclES8_SA_', symObjAddr: 0x34046, symBinAddr: 0x1000335FA, symSize: 0xAC2 }
  - { offset: 0x19CC14, size: 0x8, addend: 0x0, symName: __ZN7httplib8Response11set_contentEPKcmRKNSt3__112basic_stringIcNS3_11char_traitsIcEENS3_9allocatorIcEEEE, symObjAddr: 0x3625A, symBinAddr: 0x10003578E, symSize: 0x178 }
  - { offset: 0x19D43E, size: 0x8, addend: 0x0, symName: __ZN7httplib8Response28set_chunked_content_providerERKNSt3__112basic_stringIcNS1_11char_traitsIcEENS1_9allocatorIcEEEENS1_8functionIFbmRNS_8DataSinkEEEENSA_IFvbEEE, symObjAddr: 0x34B32, symBinAddr: 0x1000340E6, symSize: 0x1F2 }
  - { offset: 0x19DE82, size: 0x8, addend: 0x0, symName: __ZN7httplib8Response11set_contentERKNSt3__112basic_stringIcNS1_11char_traitsIcEENS1_9allocatorIcEEEES9_, symObjAddr: 0x34D58, symBinAddr: 0x1000342D8, symSize: 0x24 }
  - { offset: 0x19DF26, size: 0x8, addend: 0x0, symName: '__ZNKSt3__110__function6__funcIZ4mainE3$_0NS_9allocatorIS2_EEFvRKN7httplib7RequestERNS5_8ResponseEEE6targetERKSt9type_info', symObjAddr: 0x34B08, symBinAddr: 0x1000340BC, symSize: 0x1C }
  - { offset: 0x19DF9A, size: 0x8, addend: 0x0, symName: '__ZNKSt3__110__function6__funcIZ4mainE3$_0NS_9allocatorIS2_EEFvRKN7httplib7RequestERNS5_8ResponseEEE11target_typeEv', symObjAddr: 0x34B24, symBinAddr: 0x1000340D8, symSize: 0xE }
  - { offset: 0x19E0B9, size: 0x8, addend: 0x0, symName: __ZNSt3__110__function12__value_funcIFbmRN7httplib8DataSinkEEEC2B8ne200100EOS6_, symObjAddr: 0x34E74, symBinAddr: 0x1000343F4, symSize: 0x4A }
  - { offset: 0x19E101, size: 0x8, addend: 0x0, symName: __ZNSt3__18functionIFbmmRN7httplib8DataSinkEEEaSINS1_6detail22ContentProviderAdapterEvEERS5_OT_, symObjAddr: 0x34D7C, symBinAddr: 0x1000342FC, symSize: 0xF8 }
  - { offset: 0x19EA9E, size: 0x8, addend: 0x0, symName: __ZNSt3__110__function12__value_funcIFbmmRN7httplib8DataSinkEEE4swapB8ne200100ERS6_, symObjAddr: 0x350B2, symBinAddr: 0x1000345E6, symSize: 0x116 }
  - { offset: 0x19EC35, size: 0x8, addend: 0x0, symName: __ZNSt3__110__function6__funcIN7httplib6detail22ContentProviderAdapterENS_9allocatorIS4_EEFbmmRNS2_8DataSinkEEED1Ev, symObjAddr: 0x34EBE, symBinAddr: 0x10003443E, symSize: 0x36 }
  - { offset: 0x19ED60, size: 0x8, addend: 0x0, symName: __ZNSt3__110__function6__funcIN7httplib6detail22ContentProviderAdapterENS_9allocatorIS4_EEFbmmRNS2_8DataSinkEEED0Ev, symObjAddr: 0x34EF4, symBinAddr: 0x100034474, symSize: 0x46 }
  - { offset: 0x19F179, size: 0x8, addend: 0x0, symName: __ZNKSt3__110__function6__funcIN7httplib6detail22ContentProviderAdapterENS_9allocatorIS4_EEFbmmRNS2_8DataSinkEEE7__cloneEv, symObjAddr: 0x34F3A, symBinAddr: 0x1000344BA, symSize: 0x4A }
  - { offset: 0x19F59E, size: 0x8, addend: 0x0, symName: __ZNKSt3__110__function6__funcIN7httplib6detail22ContentProviderAdapterENS_9allocatorIS4_EEFbmmRNS2_8DataSinkEEE7__cloneEPNS0_6__baseIS9_EE, symObjAddr: 0x34F84, symBinAddr: 0x100034504, symSize: 0x20 }
  - { offset: 0x19F77B, size: 0x8, addend: 0x0, symName: __ZNSt3__110__function6__funcIN7httplib6detail22ContentProviderAdapterENS_9allocatorIS4_EEFbmmRNS2_8DataSinkEEE7destroyEv, symObjAddr: 0x34FA4, symBinAddr: 0x100034524, symSize: 0x2C }
  - { offset: 0x19F85C, size: 0x8, addend: 0x0, symName: __ZNSt3__110__function6__funcIN7httplib6detail22ContentProviderAdapterENS_9allocatorIS4_EEFbmmRNS2_8DataSinkEEE18destroy_deallocateEv, symObjAddr: 0x34FD0, symBinAddr: 0x100034550, symSize: 0x3C }
  - { offset: 0x19FB3A, size: 0x8, addend: 0x0, symName: __ZNSt3__110__function6__funcIN7httplib6detail22ContentProviderAdapterENS_9allocatorIS4_EEFbmmRNS2_8DataSinkEEEclEOmSB_S8_, symObjAddr: 0x3500C, symBinAddr: 0x10003458C, symSize: 0x30 }
  - { offset: 0x19FC9C, size: 0x8, addend: 0x0, symName: __ZNKSt3__110__function6__funcIN7httplib6detail22ContentProviderAdapterENS_9allocatorIS4_EEFbmmRNS2_8DataSinkEEE6targetERKSt9type_info, symObjAddr: 0x3503C, symBinAddr: 0x1000345BC, symSize: 0x1C }
  - { offset: 0x19FCA7, size: 0x8, addend: 0x0, symName: __ZNKSt3__110__function6__funcIN7httplib6detail22ContentProviderAdapterENS_9allocatorIS4_EEFbmmRNS2_8DataSinkEEE6targetERKSt9type_info, symObjAddr: 0x3503C, symBinAddr: 0x1000345BC, symSize: 0x1C }
  - { offset: 0x19FD1B, size: 0x8, addend: 0x0, symName: __ZNKSt3__110__function6__funcIN7httplib6detail22ContentProviderAdapterENS_9allocatorIS4_EEFbmmRNS2_8DataSinkEEE11target_typeEv, symObjAddr: 0x35058, symBinAddr: 0x1000345D8, symSize: 0xE }
  - { offset: 0x19FD9B, size: 0x8, addend: 0x0, symName: '__ZNSt3__110__function6__funcIZZ4mainENK3$_0clERKN7httplib7RequestERNS3_8ResponseEEUlmRNS3_8DataSinkEE_NS_9allocatorISB_EEFbmSA_EED1Ev', symObjAddr: 0x351C8, symBinAddr: 0x1000346FC, symSize: 0x3E }
  - { offset: 0x1A0064, size: 0x8, addend: 0x0, symName: '__ZNSt3__110__function6__funcIZZ4mainENK3$_0clERKN7httplib7RequestERNS3_8ResponseEEUlmRNS3_8DataSinkEE_NS_9allocatorISB_EEFbmSA_EED0Ev', symObjAddr: 0x35206, symBinAddr: 0x10003473A, symSize: 0x40 }
  - { offset: 0x1A05A9, size: 0x8, addend: 0x0, symName: '__ZNKSt3__110__function6__funcIZZ4mainENK3$_0clERKN7httplib7RequestERNS3_8ResponseEEUlmRNS3_8DataSinkEE_NS_9allocatorISB_EEFbmSA_EE7__cloneEv', symObjAddr: 0x35246, symBinAddr: 0x10003477A, symSize: 0xEC }
  - { offset: 0x1A0AE5, size: 0x8, addend: 0x0, symName: '__ZNKSt3__110__function6__funcIZZ4mainENK3$_0clERKN7httplib7RequestERNS3_8ResponseEEUlmRNS3_8DataSinkEE_NS_9allocatorISB_EEFbmSA_EE7__cloneEPNS0_6__baseISE_EE', symObjAddr: 0x35332, symBinAddr: 0x100034866, symSize: 0xC6 }
  - { offset: 0x1A0E09, size: 0x8, addend: 0x0, symName: '__ZNSt3__110__function6__funcIZZ4mainENK3$_0clERKN7httplib7RequestERNS3_8ResponseEEUlmRNS3_8DataSinkEE_NS_9allocatorISB_EEFbmSA_EE7destroyEv', symObjAddr: 0x353F8, symBinAddr: 0x10003492C, symSize: 0xE }
  - { offset: 0x1A0E3E, size: 0x8, addend: 0x0, symName: '__ZNSt3__110__function12__alloc_funcIZZ4mainENK3$_0clERKN7httplib7RequestERNS3_8ResponseEEUlmRNS3_8DataSinkEE_NS_9allocatorISB_EEFbmSA_EE7destroyB8ne200100Ev', symObjAddr: 0x35B04, symBinAddr: 0x100035038, symSize: 0x33 }
  - { offset: 0x1A10A0, size: 0x8, addend: 0x0, symName: '__ZNSt3__110__function6__funcIZZ4mainENK3$_0clERKN7httplib7RequestERNS3_8ResponseEEUlmRNS3_8DataSinkEE_NS_9allocatorISB_EEFbmSA_EE18destroy_deallocateEv', symObjAddr: 0x35406, symBinAddr: 0x10003493A, symSize: 0x20 }
  - { offset: 0x1A1755, size: 0x8, addend: 0x0, symName: '__ZNSt3__110__function6__funcIZZ4mainENK3$_0clERKN7httplib7RequestERNS3_8ResponseEEUlmRNS3_8DataSinkEE_NS_9allocatorISB_EEFbmSA_EEclEOmSA_', symObjAddr: 0x35426, symBinAddr: 0x10003495A, symSize: 0x6B4 }
  - { offset: 0x1A3950, size: 0x8, addend: 0x0, symName: __ZL19create_stream_chunkiRKNSt3__112basic_stringIcNS_11char_traitsIcEENS_9allocatorIcEEEES7_S7_S7_b, symObjAddr: 0x35B37, symBinAddr: 0x10003506B, symSize: 0x5FD }
  - { offset: 0x1A4319, size: 0x8, addend: 0x0, symName: '__ZNKSt3__110__function6__funcIZZ4mainENK3$_0clERKN7httplib7RequestERNS3_8ResponseEEUlmRNS3_8DataSinkEE_NS_9allocatorISB_EEFbmSA_EE6targetERKSt9type_info', symObjAddr: 0x35ADA, symBinAddr: 0x10003500E, symSize: 0x1C }
  - { offset: 0x1A438D, size: 0x8, addend: 0x0, symName: '__ZNKSt3__110__function6__funcIZZ4mainENK3$_0clERKN7httplib7RequestERNS3_8ResponseEEUlmRNS3_8DataSinkEE_NS_9allocatorISB_EEFbmSA_EE11target_typeEv', symObjAddr: 0x35AF6, symBinAddr: 0x10003502A, symSize: 0xE }
  - { offset: 0x1A43B0, size: 0x8, addend: 0x0, symName: '__ZNSt3__110__function6__funcIZZZ4mainENK3$_0clERKN7httplib7RequestERNS3_8ResponseEENKUlmRNS3_8DataSinkEE_clEmSA_EUlRKNS_12basic_stringIcNS_11char_traitsIcEENS_9allocatorIcEEEEjE_NSF_ISK_EEFbSJ_jEED1Ev', symObjAddr: 0x36134, symBinAddr: 0x100035668, symSize: 0x6 }
  - { offset: 0x1A43DA, size: 0x8, addend: 0x0, symName: '__ZNSt3__110__function6__funcIZZZ4mainENK3$_0clERKN7httplib7RequestERNS3_8ResponseEENKUlmRNS3_8DataSinkEE_clEmSA_EUlRKNS_12basic_stringIcNS_11char_traitsIcEENS_9allocatorIcEEEEjE_NSF_ISK_EEFbSJ_jEED0Ev', symObjAddr: 0x3613A, symBinAddr: 0x10003566E, symSize: 0xA }
  - { offset: 0x1A44CA, size: 0x8, addend: 0x0, symName: '__ZNKSt3__110__function6__funcIZZZ4mainENK3$_0clERKN7httplib7RequestERNS3_8ResponseEENKUlmRNS3_8DataSinkEE_clEmSA_EUlRKNS_12basic_stringIcNS_11char_traitsIcEENS_9allocatorIcEEEEjE_NSF_ISK_EEFbSJ_jEE7__cloneEv', symObjAddr: 0x36144, symBinAddr: 0x100035678, symSize: 0x34 }
  - { offset: 0x1A46EC, size: 0x8, addend: 0x0, symName: '__ZNKSt3__110__function6__funcIZZZ4mainENK3$_0clERKN7httplib7RequestERNS3_8ResponseEENKUlmRNS3_8DataSinkEE_clEmSA_EUlRKNS_12basic_stringIcNS_11char_traitsIcEENS_9allocatorIcEEEEjE_NSF_ISK_EEFbSJ_jEE7__cloneEPNS0_6__baseISM_EE', symObjAddr: 0x36178, symBinAddr: 0x1000356AC, symSize: 0x20 }
  - { offset: 0x1A47EF, size: 0x8, addend: 0x0, symName: '__ZNSt3__110__function6__funcIZZZ4mainENK3$_0clERKN7httplib7RequestERNS3_8ResponseEENKUlmRNS3_8DataSinkEE_clEmSA_EUlRKNS_12basic_stringIcNS_11char_traitsIcEENS_9allocatorIcEEEEjE_NSF_ISK_EEFbSJ_jEE7destroyEv', symObjAddr: 0x36198, symBinAddr: 0x1000356CC, symSize: 0x6 }
  - { offset: 0x1A4843, size: 0x8, addend: 0x0, symName: '__ZNSt3__110__function6__funcIZZZ4mainENK3$_0clERKN7httplib7RequestERNS3_8ResponseEENKUlmRNS3_8DataSinkEE_clEmSA_EUlRKNS_12basic_stringIcNS_11char_traitsIcEENS_9allocatorIcEEEEjE_NSF_ISK_EEFbSJ_jEE18destroy_deallocateEv', symObjAddr: 0x3619E, symBinAddr: 0x1000356D2, symSize: 0xA }
  - { offset: 0x1A49B6, size: 0x8, addend: 0x0, symName: '__ZNSt3__110__function6__funcIZZZ4mainENK3$_0clERKN7httplib7RequestERNS3_8ResponseEENKUlmRNS3_8DataSinkEE_clEmSA_EUlRKNS_12basic_stringIcNS_11char_traitsIcEENS_9allocatorIcEEEEjE_NSF_ISK_EEFbSJ_jEEclESJ_Oj', symObjAddr: 0x361A8, symBinAddr: 0x1000356DC, symSize: 0x88 }
  - { offset: 0x1A4DA7, size: 0x8, addend: 0x0, symName: '__ZNKSt3__110__function6__funcIZZZ4mainENK3$_0clERKN7httplib7RequestERNS3_8ResponseEENKUlmRNS3_8DataSinkEE_clEmSA_EUlRKNS_12basic_stringIcNS_11char_traitsIcEENS_9allocatorIcEEEEjE_NSF_ISK_EEFbSJ_jEE6targetERKSt9type_info', symObjAddr: 0x36230, symBinAddr: 0x100035764, symSize: 0x1C }
  - { offset: 0x1A4E1B, size: 0x8, addend: 0x0, symName: '__ZNKSt3__110__function6__funcIZZZ4mainENK3$_0clERKN7httplib7RequestERNS3_8ResponseEENKUlmRNS3_8DataSinkEE_clEmSA_EUlRKNS_12basic_stringIcNS_11char_traitsIcEENS_9allocatorIcEEEEjE_NSF_ISK_EEFbSJ_jEE11target_typeEv', symObjAddr: 0x3624C, symBinAddr: 0x100035780, symSize: 0xE }
  - { offset: 0x1A4EF6, size: 0x8, addend: 0x0, symName: __ZNSt3__112__hash_tableINS_17__hash_value_typeINS_12basic_stringIcNS_11char_traitsIcEENS_9allocatorIcEEEES7_EENS_22__unordered_map_hasherIS7_S8_N7httplib6detail11case_ignore4hashENSC_8equal_toELb1EEENS_21__unordered_map_equalIS7_S8_SE_SD_Lb1EEENS5_IS8_EEE19__equal_range_multiIS7_EENS_4pairINS_15__hash_iteratorIPNS_11__hash_nodeIS8_PvEEEESR_EERKT_, symObjAddr: 0x363D2, symBinAddr: 0x100035906, symSize: 0x52 }
  - { offset: 0x1A50A8, size: 0x8, addend: 0x0, symName: '__ZNSt3__110__function6__funcIZ4mainE3$_1NS_9allocatorIS2_EEFvRKN7httplib7RequestERNS5_8ResponseEEED1Ev', symObjAddr: 0x36424, symBinAddr: 0x100035958, symSize: 0x6 }
  - { offset: 0x1A50D2, size: 0x8, addend: 0x0, symName: '__ZNSt3__110__function6__funcIZ4mainE3$_1NS_9allocatorIS2_EEFvRKN7httplib7RequestERNS5_8ResponseEEED0Ev', symObjAddr: 0x3642A, symBinAddr: 0x10003595E, symSize: 0xA }
  - { offset: 0x1A51C2, size: 0x8, addend: 0x0, symName: '__ZNKSt3__110__function6__funcIZ4mainE3$_1NS_9allocatorIS2_EEFvRKN7httplib7RequestERNS5_8ResponseEEE7__cloneEv', symObjAddr: 0x36434, symBinAddr: 0x100035968, symSize: 0x34 }
  - { offset: 0x1A53E4, size: 0x8, addend: 0x0, symName: '__ZNKSt3__110__function6__funcIZ4mainE3$_1NS_9allocatorIS2_EEFvRKN7httplib7RequestERNS5_8ResponseEEE7__cloneEPNS0_6__baseISB_EE', symObjAddr: 0x36468, symBinAddr: 0x10003599C, symSize: 0x20 }
  - { offset: 0x1A54E7, size: 0x8, addend: 0x0, symName: '__ZNSt3__110__function6__funcIZ4mainE3$_1NS_9allocatorIS2_EEFvRKN7httplib7RequestERNS5_8ResponseEEE7destroyEv', symObjAddr: 0x36488, symBinAddr: 0x1000359BC, symSize: 0x6 }
  - { offset: 0x1A553B, size: 0x8, addend: 0x0, symName: '__ZNSt3__110__function6__funcIZ4mainE3$_1NS_9allocatorIS2_EEFvRKN7httplib7RequestERNS5_8ResponseEEE18destroy_deallocateEv', symObjAddr: 0x3648E, symBinAddr: 0x1000359C2, symSize: 0xA }
  - { offset: 0x1A56E6, size: 0x8, addend: 0x0, symName: '__ZNSt3__110__function6__funcIZ4mainE3$_1NS_9allocatorIS2_EEFvRKN7httplib7RequestERNS5_8ResponseEEEclES8_SA_', symObjAddr: 0x36498, symBinAddr: 0x1000359CC, symSize: 0x5BC }
  - { offset: 0x1A60D2, size: 0x8, addend: 0x0, symName: '__ZNKSt3__110__function6__funcIZ4mainE3$_1NS_9allocatorIS2_EEFvRKN7httplib7RequestERNS5_8ResponseEEE6targetERKSt9type_info', symObjAddr: 0x36A54, symBinAddr: 0x100035F88, symSize: 0x1C }
  - { offset: 0x1A6146, size: 0x8, addend: 0x0, symName: '__ZNKSt3__110__function6__funcIZ4mainE3$_1NS_9allocatorIS2_EEFvRKN7httplib7RequestERNS5_8ResponseEEE11target_typeEv', symObjAddr: 0x36A70, symBinAddr: 0x100035FA4, symSize: 0xE }
  - { offset: 0x1A6169, size: 0x8, addend: 0x0, symName: '__ZNSt3__110__function6__funcIZ4mainE3$_2NS_9allocatorIS2_EEFvRKN7httplib7RequestERNS5_8ResponseEEED1Ev', symObjAddr: 0x36A7E, symBinAddr: 0x100035FB2, symSize: 0x6 }
  - { offset: 0x1A6193, size: 0x8, addend: 0x0, symName: '__ZNSt3__110__function6__funcIZ4mainE3$_2NS_9allocatorIS2_EEFvRKN7httplib7RequestERNS5_8ResponseEEED0Ev', symObjAddr: 0x36A84, symBinAddr: 0x100035FB8, symSize: 0xA }
  - { offset: 0x1A6283, size: 0x8, addend: 0x0, symName: '__ZNKSt3__110__function6__funcIZ4mainE3$_2NS_9allocatorIS2_EEFvRKN7httplib7RequestERNS5_8ResponseEEE7__cloneEv', symObjAddr: 0x36A8E, symBinAddr: 0x100035FC2, symSize: 0x3C }
  - { offset: 0x1A64A5, size: 0x8, addend: 0x0, symName: '__ZNKSt3__110__function6__funcIZ4mainE3$_2NS_9allocatorIS2_EEFvRKN7httplib7RequestERNS5_8ResponseEEE7__cloneEPNS0_6__baseISB_EE', symObjAddr: 0x36ACA, symBinAddr: 0x100035FFE, symSize: 0x28 }
  - { offset: 0x1A65A8, size: 0x8, addend: 0x0, symName: '__ZNSt3__110__function6__funcIZ4mainE3$_2NS_9allocatorIS2_EEFvRKN7httplib7RequestERNS5_8ResponseEEE7destroyEv', symObjAddr: 0x36AF2, symBinAddr: 0x100036026, symSize: 0x6 }
  - { offset: 0x1A65FC, size: 0x8, addend: 0x0, symName: '__ZNSt3__110__function6__funcIZ4mainE3$_2NS_9allocatorIS2_EEFvRKN7httplib7RequestERNS5_8ResponseEEE18destroy_deallocateEv', symObjAddr: 0x36AF8, symBinAddr: 0x10003602C, symSize: 0xA }
  - { offset: 0x1A71CE, size: 0x8, addend: 0x0, symName: '__ZNSt3__110__function6__funcIZ4mainE3$_2NS_9allocatorIS2_EEFvRKN7httplib7RequestERNS5_8ResponseEEEclES8_SA_', symObjAddr: 0x36B02, symBinAddr: 0x100036036, symSize: 0x107A }
  - { offset: 0x1AA798, size: 0x8, addend: 0x0, symName: __ZNSt3__16vectorIN3Ort5ValueENS_9allocatorIS2_EEE7reserveEm, symObjAddr: 0x37E9C, symBinAddr: 0x1000373D0, symSize: 0xBC }
  - { offset: 0x1AAA12, size: 0x8, addend: 0x0, symName: __ZNSt3__16vectorIN3Ort5ValueENS_9allocatorIS2_EEE24__emplace_back_slow_pathIJDnEEEPS2_DpOT_, symObjAddr: 0x380E0, symBinAddr: 0x1000375E8, symSize: 0x122 }
  - { offset: 0x1AADD9, size: 0x8, addend: 0x0, symName: __ZNK3Ort6detail14ConstValueImplI8OrtValueE25GetTensorTypeAndShapeInfoEv, symObjAddr: 0x37BA6, symBinAddr: 0x1000370DA, symSize: 0xEC }
  - { offset: 0x1AB25A, size: 0x8, addend: 0x0, symName: __ZNK3Ort6detail26TensorTypeAndShapeInfoImplI25OrtTensorTypeAndShapeInfoE8GetShapeEv, symObjAddr: 0x37C92, symBinAddr: 0x1000371C6, symSize: 0x126 }
  - { offset: 0x1AB7DC, size: 0x8, addend: 0x0, symName: __ZN3Ort6detail9ValueImplI8OrtValueE20GetTensorMutableDataIfEEPT_v, symObjAddr: 0x37DB8, symBinAddr: 0x1000372EC, symSize: 0xE4 }
  - { offset: 0x1ABBC7, size: 0x8, addend: 0x0, symName: __ZNSt3__16vectorIfNS_9allocatorIfEEE16__init_with_sizeB8ne200100IPfS5_EEvT_T0_m, symObjAddr: 0x383F2, symBinAddr: 0x1000378FA, symSize: 0x64 }
  - { offset: 0x1ABFBB, size: 0x8, addend: 0x0, symName: __ZNSt3__16vectorIN3Ort5ValueENS_9allocatorIS2_EEE16__destroy_vectorclB8ne200100Ev, symObjAddr: 0x384C6, symBinAddr: 0x1000379A2, symSize: 0x30 }
  - { offset: 0x1AC070, size: 0x8, addend: 0x0, symName: '__ZNKSt3__110__function6__funcIZ4mainE3$_2NS_9allocatorIS2_EEFvRKN7httplib7RequestERNS5_8ResponseEEE6targetERKSt9type_info', symObjAddr: 0x37B7C, symBinAddr: 0x1000370B0, symSize: 0x1C }
  - { offset: 0x1AC0E4, size: 0x8, addend: 0x0, symName: '__ZNKSt3__110__function6__funcIZ4mainE3$_2NS_9allocatorIS2_EEFvRKN7httplib7RequestERNS5_8ResponseEEE11target_typeEv', symObjAddr: 0x37B98, symBinAddr: 0x1000370CC, symSize: 0xE }
  - { offset: 0x1AC1FC, size: 0x8, addend: 0x0, symName: __ZNK3Ort6detail26TensorTypeAndShapeInfoImplI25OrtTensorTypeAndShapeInfoE18GetDimensionsCountEv, symObjAddr: 0x38202, symBinAddr: 0x10003770A, symSize: 0xE4 }
  - { offset: 0x1AC5E1, size: 0x8, addend: 0x0, symName: __ZNSt3__16vectorIxNS_9allocatorIxEEEC2B8ne200100EmRKx, symObjAddr: 0x382E6, symBinAddr: 0x1000377EE, symSize: 0x10C }
  - { offset: 0x1AC94A, size: 0x8, addend: 0x0, symName: __ZNSt3__114__split_bufferIN3Ort5ValueERNS_9allocatorIS2_EEED2Ev, symObjAddr: 0x3807C, symBinAddr: 0x100037584, symSize: 0x24 }
  - { offset: 0x1AC9ED, size: 0x8, addend: 0x0, symName: __ZNSt3__16vectorIN3Ort5ValueENS_9allocatorIS2_EEE20__throw_length_errorB8ne200100Ev, symObjAddr: 0x37F58, symBinAddr: 0x10003748C, symSize: 0x10 }
  - { offset: 0x1ACB98, size: 0x8, addend: 0x0, symName: __ZNSt3__128__exception_guard_exceptionsINS_29_AllocatorDestroyRangeReverseINS_9allocatorIN3Ort5ValueEEEPS4_EEED2B8ne200100Ev, symObjAddr: 0x38024, symBinAddr: 0x10003752C, symSize: 0x1A }
  - { offset: 0x1ACBD1, size: 0x8, addend: 0x0, symName: __ZNKSt3__129_AllocatorDestroyRangeReverseINS_9allocatorIN3Ort5ValueEEEPS3_EclB8ne200100Ev, symObjAddr: 0x3803E, symBinAddr: 0x100037546, symSize: 0x3E }
  - { offset: 0x1ACE09, size: 0x8, addend: 0x0, symName: __ZNSt3__114__split_bufferIN3Ort5ValueERNS_9allocatorIS2_EEE5clearB8ne200100Ev, symObjAddr: 0x380A0, symBinAddr: 0x1000375A8, symSize: 0x40 }
  - { offset: 0x1AD1B8, size: 0x8, addend: 0x0, symName: __ZNSt3__16vectorIfNS_9allocatorIfEEE11__vallocateB8ne200100Em, symObjAddr: 0x38456, symBinAddr: 0x10003795E, symSize: 0x32 }
  - { offset: 0x1AD212, size: 0x8, addend: 0x0, symName: __ZNSt3__16vectorIfNS_9allocatorIfEEE20__throw_length_errorB8ne200100Ev, symObjAddr: 0x38488, symBinAddr: 0x100037990, symSize: 0x10 }
  - { offset: 0x1AD21D, size: 0x8, addend: 0x0, symName: __ZNSt3__16vectorIfNS_9allocatorIfEEE20__throw_length_errorB8ne200100Ev, symObjAddr: 0x38488, symBinAddr: 0x100037990, symSize: 0x10 }
  - { offset: 0x1AD261, size: 0x8, addend: 0x0, symName: __ZNSt3__16vectorIN3Ort5ValueENS_9allocatorIS2_EEE5clearB8ne200100Ev, symObjAddr: 0x384F6, symBinAddr: 0x1000379D2, symSize: 0x47 }
...
